ARM GAS  C:\DOCUME~1\Remixvit\LOCALS~1\Temp\ccEYwJc3.s 			page 1


   1              		.cpu cortex-m0
   2              		.fpu softvfp
   3              		.eabi_attribute 20, 1
   4              		.eabi_attribute 21, 1
   5              		.eabi_attribute 23, 3
   6              		.eabi_attribute 24, 1
   7              		.eabi_attribute 25, 1
   8              		.eabi_attribute 26, 1
   9              		.eabi_attribute 30, 4
  10              		.eabi_attribute 34, 0
  11              		.eabi_attribute 18, 4
  12              		.code	16
  13              		.file	"AMux.c"
  14              		.text
  15              	.Ltext0:
  16              		.cfi_sections	.debug_frame
  17              		.section	.text.AMux_Start,"ax",%progbits
  18              		.align	1
  19              		.global	AMux_Start
  20              		.code	16
  21              		.thumb_func
  22              		.type	AMux_Start, %function
  23              	AMux_Start:
  24              	.LFB0:
  25              		.file 1 ".\\Generated_Source\\PSoC4\\AMux.c"
   1:.\Generated_Source\PSoC4/AMux.c **** /*******************************************************************************
   2:.\Generated_Source\PSoC4/AMux.c **** * File Name: AMux.c
   3:.\Generated_Source\PSoC4/AMux.c **** * Version 1.80
   4:.\Generated_Source\PSoC4/AMux.c **** *
   5:.\Generated_Source\PSoC4/AMux.c **** *  Description:
   6:.\Generated_Source\PSoC4/AMux.c **** *    This file contains all functions required for the analog multiplexer
   7:.\Generated_Source\PSoC4/AMux.c **** *    AMux User Module.
   8:.\Generated_Source\PSoC4/AMux.c **** *
   9:.\Generated_Source\PSoC4/AMux.c **** *   Note:
  10:.\Generated_Source\PSoC4/AMux.c **** *
  11:.\Generated_Source\PSoC4/AMux.c **** *******************************************************************************
  12:.\Generated_Source\PSoC4/AMux.c **** * Copyright 2008-2010, Cypress Semiconductor Corporation.  All rights reserved.
  13:.\Generated_Source\PSoC4/AMux.c **** * You may use this file only in accordance with the license, terms, conditions, 
  14:.\Generated_Source\PSoC4/AMux.c **** * disclaimers, and limitations in the end user license agreement accompanying 
  15:.\Generated_Source\PSoC4/AMux.c **** * the software package with which this file was provided.
  16:.\Generated_Source\PSoC4/AMux.c **** ********************************************************************************/
  17:.\Generated_Source\PSoC4/AMux.c **** 
  18:.\Generated_Source\PSoC4/AMux.c **** #include "AMux.h"
  19:.\Generated_Source\PSoC4/AMux.c **** 
  20:.\Generated_Source\PSoC4/AMux.c **** static uint8 AMux_lastChannel = AMux_NULL_CHANNEL;
  21:.\Generated_Source\PSoC4/AMux.c **** 
  22:.\Generated_Source\PSoC4/AMux.c **** 
  23:.\Generated_Source\PSoC4/AMux.c **** /*******************************************************************************
  24:.\Generated_Source\PSoC4/AMux.c **** * Function Name: AMux_Start
  25:.\Generated_Source\PSoC4/AMux.c **** ********************************************************************************
  26:.\Generated_Source\PSoC4/AMux.c **** * Summary:
  27:.\Generated_Source\PSoC4/AMux.c **** *  Disconnect all channels.
  28:.\Generated_Source\PSoC4/AMux.c **** *
  29:.\Generated_Source\PSoC4/AMux.c **** * Parameters:
  30:.\Generated_Source\PSoC4/AMux.c **** *  void
  31:.\Generated_Source\PSoC4/AMux.c **** *
  32:.\Generated_Source\PSoC4/AMux.c **** * Return:
ARM GAS  C:\DOCUME~1\Remixvit\LOCALS~1\Temp\ccEYwJc3.s 			page 2


  33:.\Generated_Source\PSoC4/AMux.c **** *  void
  34:.\Generated_Source\PSoC4/AMux.c **** *
  35:.\Generated_Source\PSoC4/AMux.c **** *******************************************************************************/
  36:.\Generated_Source\PSoC4/AMux.c **** void AMux_Start(void) 
  37:.\Generated_Source\PSoC4/AMux.c **** {
  26              		.loc 1 37 0
  27              		.cfi_startproc
  28              	.LVL0:
  29 0000 08B5     		push	{r3, lr}
  30              		.cfi_def_cfa_offset 8
  31              		.cfi_offset 3, -8
  32              		.cfi_offset 14, -4
  38:.\Generated_Source\PSoC4/AMux.c ****     uint8 chan;
  39:.\Generated_Source\PSoC4/AMux.c **** 
  40:.\Generated_Source\PSoC4/AMux.c ****     for(chan = 0u; chan < AMux_CHANNELS ; chan++)
  41:.\Generated_Source\PSoC4/AMux.c ****     {
  42:.\Generated_Source\PSoC4/AMux.c **** #if (AMux_MUXTYPE == AMux_MUX_SINGLE)
  43:.\Generated_Source\PSoC4/AMux.c ****         AMux_Unset(chan);
  33              		.loc 1 43 0
  34 0002 0020     		mov	r0, #0
  35 0004 FFF7FEFF 		bl	AMux_Unset
  36              	.LVL1:
  37 0008 0120     		mov	r0, #1
  38 000a FFF7FEFF 		bl	AMux_Unset
  39              	.LVL2:
  44:.\Generated_Source\PSoC4/AMux.c **** #else
  45:.\Generated_Source\PSoC4/AMux.c ****         AMux_CYAMUXSIDE_A_Unset(chan);
  46:.\Generated_Source\PSoC4/AMux.c ****         AMux_CYAMUXSIDE_B_Unset(chan);
  47:.\Generated_Source\PSoC4/AMux.c **** #endif
  48:.\Generated_Source\PSoC4/AMux.c ****     }
  49:.\Generated_Source\PSoC4/AMux.c **** 
  50:.\Generated_Source\PSoC4/AMux.c ****     AMux_lastChannel = AMux_NULL_CHANNEL;
  40              		.loc 1 50 0
  41 000e FF22     		mov	r2, #255
  42 0010 014B     		ldr	r3, .L2
  51:.\Generated_Source\PSoC4/AMux.c **** }
  43              		.loc 1 51 0
  44              		@ sp needed
  50:.\Generated_Source\PSoC4/AMux.c **** }
  45              		.loc 1 50 0
  46 0012 1A70     		strb	r2, [r3]
  47              		.loc 1 51 0
  48 0014 08BD     		pop	{r3, pc}
  49              	.L3:
  50 0016 C046     		.align	2
  51              	.L2:
  52 0018 00000000 		.word	.LANCHOR0
  53              		.cfi_endproc
  54              	.LFE0:
  55              		.size	AMux_Start, .-AMux_Start
  56              		.section	.text.AMux_Select,"ax",%progbits
  57              		.align	1
  58              		.global	AMux_Select
  59              		.code	16
  60              		.thumb_func
  61              		.type	AMux_Select, %function
  62              	AMux_Select:
ARM GAS  C:\DOCUME~1\Remixvit\LOCALS~1\Temp\ccEYwJc3.s 			page 3


  63              	.LFB1:
  52:.\Generated_Source\PSoC4/AMux.c **** 
  53:.\Generated_Source\PSoC4/AMux.c **** 
  54:.\Generated_Source\PSoC4/AMux.c **** #if (!AMux_ATMOSTONE)
  55:.\Generated_Source\PSoC4/AMux.c **** /*******************************************************************************
  56:.\Generated_Source\PSoC4/AMux.c **** * Function Name: AMux_Select
  57:.\Generated_Source\PSoC4/AMux.c **** ********************************************************************************
  58:.\Generated_Source\PSoC4/AMux.c **** * Summary:
  59:.\Generated_Source\PSoC4/AMux.c **** *  This functions first disconnects all channels then connects the given
  60:.\Generated_Source\PSoC4/AMux.c **** *  channel.
  61:.\Generated_Source\PSoC4/AMux.c **** *
  62:.\Generated_Source\PSoC4/AMux.c **** * Parameters:
  63:.\Generated_Source\PSoC4/AMux.c **** *  channel:  The channel to connect to the common terminal.
  64:.\Generated_Source\PSoC4/AMux.c **** *
  65:.\Generated_Source\PSoC4/AMux.c **** * Return:
  66:.\Generated_Source\PSoC4/AMux.c **** *  void
  67:.\Generated_Source\PSoC4/AMux.c **** *
  68:.\Generated_Source\PSoC4/AMux.c **** *******************************************************************************/
  69:.\Generated_Source\PSoC4/AMux.c **** void AMux_Select(uint8 channel) 
  70:.\Generated_Source\PSoC4/AMux.c **** {
  64              		.loc 1 70 0
  65              		.cfi_startproc
  66              	.LVL3:
  67 0000 10B5     		push	{r4, lr}
  68              		.cfi_def_cfa_offset 8
  69              		.cfi_offset 4, -8
  70              		.cfi_offset 14, -4
  71              		.loc 1 70 0
  72 0002 041C     		mov	r4, r0
  71:.\Generated_Source\PSoC4/AMux.c ****     AMux_DisconnectAll();        /* Disconnect all previous connections */
  73              		.loc 1 71 0
  74 0004 FFF7FEFF 		bl	AMux_Start
  75              	.LVL4:
  72:.\Generated_Source\PSoC4/AMux.c ****     AMux_Connect(channel);       /* Make the given selection */
  76              		.loc 1 72 0
  77 0008 201C     		mov	r0, r4
  78 000a FFF7FEFF 		bl	AMux_Set
  79              	.LVL5:
  73:.\Generated_Source\PSoC4/AMux.c ****     AMux_lastChannel = channel;  /* Update last channel */
  80              		.loc 1 73 0
  81 000e 014B     		ldr	r3, .L5
  74:.\Generated_Source\PSoC4/AMux.c **** }
  82              		.loc 1 74 0
  83              		@ sp needed
  73:.\Generated_Source\PSoC4/AMux.c ****     AMux_lastChannel = channel;  /* Update last channel */
  84              		.loc 1 73 0
  85 0010 1C70     		strb	r4, [r3]
  86              		.loc 1 74 0
  87 0012 10BD     		pop	{r4, pc}
  88              	.L6:
  89              		.align	2
  90              	.L5:
  91 0014 00000000 		.word	.LANCHOR0
  92              		.cfi_endproc
  93              	.LFE1:
  94              		.size	AMux_Select, .-AMux_Select
  95              		.section	.text.AMux_FastSelect,"ax",%progbits
ARM GAS  C:\DOCUME~1\Remixvit\LOCALS~1\Temp\ccEYwJc3.s 			page 4


  96              		.align	1
  97              		.global	AMux_FastSelect
  98              		.code	16
  99              		.thumb_func
 100              		.type	AMux_FastSelect, %function
 101              	AMux_FastSelect:
 102              	.LFB2:
  75:.\Generated_Source\PSoC4/AMux.c **** #endif
  76:.\Generated_Source\PSoC4/AMux.c **** 
  77:.\Generated_Source\PSoC4/AMux.c **** 
  78:.\Generated_Source\PSoC4/AMux.c **** /*******************************************************************************
  79:.\Generated_Source\PSoC4/AMux.c **** * Function Name: AMux_FastSelect
  80:.\Generated_Source\PSoC4/AMux.c **** ********************************************************************************
  81:.\Generated_Source\PSoC4/AMux.c **** * Summary:
  82:.\Generated_Source\PSoC4/AMux.c **** *  This function first disconnects the last connection made with FastSelect or
  83:.\Generated_Source\PSoC4/AMux.c **** *  Select, then connects the given channel. The FastSelect function is similar
  84:.\Generated_Source\PSoC4/AMux.c **** *  to the Select function, except it is faster since it only disconnects the
  85:.\Generated_Source\PSoC4/AMux.c **** *  last channel selected rather than all channels.
  86:.\Generated_Source\PSoC4/AMux.c **** *
  87:.\Generated_Source\PSoC4/AMux.c **** * Parameters:
  88:.\Generated_Source\PSoC4/AMux.c **** *  channel:  The channel to connect to the common terminal.
  89:.\Generated_Source\PSoC4/AMux.c **** *
  90:.\Generated_Source\PSoC4/AMux.c **** * Return:
  91:.\Generated_Source\PSoC4/AMux.c **** *  void
  92:.\Generated_Source\PSoC4/AMux.c **** *
  93:.\Generated_Source\PSoC4/AMux.c **** *******************************************************************************/
  94:.\Generated_Source\PSoC4/AMux.c **** void AMux_FastSelect(uint8 channel) 
  95:.\Generated_Source\PSoC4/AMux.c **** {
 103              		.loc 1 95 0
 104              		.cfi_startproc
 105              	.LVL6:
 106 0000 38B5     		push	{r3, r4, r5, lr}
 107              		.cfi_def_cfa_offset 16
 108              		.cfi_offset 3, -16
 109              		.cfi_offset 4, -12
 110              		.cfi_offset 5, -8
 111              		.cfi_offset 14, -4
  96:.\Generated_Source\PSoC4/AMux.c ****     /* Disconnect the last valid channel */
  97:.\Generated_Source\PSoC4/AMux.c ****     if( AMux_lastChannel != AMux_NULL_CHANNEL)
 112              		.loc 1 97 0
 113 0002 064B     		ldr	r3, .L13
  95:.\Generated_Source\PSoC4/AMux.c ****     /* Disconnect the last valid channel */
 114              		.loc 1 95 0
 115 0004 051C     		mov	r5, r0
 116              		.loc 1 97 0
 117 0006 1878     		ldrb	r0, [r3]
 118              	.LVL7:
 119 0008 1C1C     		mov	r4, r3
 120 000a FF28     		cmp	r0, #255
 121 000c 01D0     		beq	.L8
  98:.\Generated_Source\PSoC4/AMux.c ****     {
  99:.\Generated_Source\PSoC4/AMux.c ****         AMux_Disconnect(AMux_lastChannel);
 122              		.loc 1 99 0
 123 000e FFF7FEFF 		bl	AMux_Unset
 124              	.LVL8:
 125              	.L8:
 100:.\Generated_Source\PSoC4/AMux.c ****     }
ARM GAS  C:\DOCUME~1\Remixvit\LOCALS~1\Temp\ccEYwJc3.s 			page 5


 101:.\Generated_Source\PSoC4/AMux.c **** 
 102:.\Generated_Source\PSoC4/AMux.c ****     /* Make the new channel connection */
 103:.\Generated_Source\PSoC4/AMux.c **** #if (AMux_MUXTYPE == AMux_MUX_SINGLE)
 104:.\Generated_Source\PSoC4/AMux.c ****     AMux_Set(channel);
 126              		.loc 1 104 0
 127 0012 281C     		mov	r0, r5
 128 0014 FFF7FEFF 		bl	AMux_Set
 129              	.LVL9:
 105:.\Generated_Source\PSoC4/AMux.c **** #else
 106:.\Generated_Source\PSoC4/AMux.c ****     AMux_CYAMUXSIDE_A_Set(channel);
 107:.\Generated_Source\PSoC4/AMux.c ****     AMux_CYAMUXSIDE_B_Set(channel);
 108:.\Generated_Source\PSoC4/AMux.c **** #endif
 109:.\Generated_Source\PSoC4/AMux.c **** 
 110:.\Generated_Source\PSoC4/AMux.c **** 
 111:.\Generated_Source\PSoC4/AMux.c ****     AMux_lastChannel = channel;   /* Update last channel */
 112:.\Generated_Source\PSoC4/AMux.c **** }
 130              		.loc 1 112 0
 131              		@ sp needed
 111:.\Generated_Source\PSoC4/AMux.c **** }
 132              		.loc 1 111 0
 133 0018 2570     		strb	r5, [r4]
 134              		.loc 1 112 0
 135 001a 38BD     		pop	{r3, r4, r5, pc}
 136              	.L14:
 137              		.align	2
 138              	.L13:
 139 001c 00000000 		.word	.LANCHOR0
 140              		.cfi_endproc
 141              	.LFE2:
 142              		.size	AMux_FastSelect, .-AMux_FastSelect
 143              		.data
 144              		.set	.LANCHOR0,. + 0
 145              		.type	AMux_lastChannel, %object
 146              		.size	AMux_lastChannel, 1
 147              	AMux_lastChannel:
 148 0000 FF       		.byte	-1
 149              		.text
 150              	.Letext0:
 151              		.file 2 ".\\Generated_Source\\PSoC4\\cytypes.h"
 152              		.file 3 ".\\Generated_Source\\PSoC4\\cyfitter_cfg.h"