ARM GAS  C:\Users\Vitali\AppData\Local\Temp\ccQjqh8P.s 			page 1


   1              		.cpu cortex-m0
   2              		.fpu softvfp
   3              		.eabi_attribute 20, 1
   4              		.eabi_attribute 21, 1
   5              		.eabi_attribute 23, 3
   6              		.eabi_attribute 24, 1
   7              		.eabi_attribute 25, 1
   8              		.eabi_attribute 26, 1
   9              		.eabi_attribute 30, 4
  10              		.eabi_attribute 34, 0
  11              		.eabi_attribute 18, 4
  12              		.code	16
  13              		.file	"LCD.c"
  14              		.text
  15              	.Ltext0:
  16              		.cfi_sections	.debug_frame
  17              		.section	.text.LCD_WrCntrlNib,"ax",%progbits
  18              		.align	1
  19              		.code	16
  20              		.thumb_func
  21              		.type	LCD_WrCntrlNib, %function
  22              	LCD_WrCntrlNib:
  23              	.LFB11:
  24              		.file 1 ".\\Generated_Source\\PSoC4\\LCD.c"
   1:.\Generated_Source\PSoC4/LCD.c **** /*******************************************************************************
   2:.\Generated_Source\PSoC4/LCD.c **** * File Name: LCD.c
   3:.\Generated_Source\PSoC4/LCD.c **** * Version 2.10
   4:.\Generated_Source\PSoC4/LCD.c **** *
   5:.\Generated_Source\PSoC4/LCD.c **** * Description:
   6:.\Generated_Source\PSoC4/LCD.c **** *  This file provides source code for the Character LCD component's API.
   7:.\Generated_Source\PSoC4/LCD.c **** *
   8:.\Generated_Source\PSoC4/LCD.c **** * Note:
   9:.\Generated_Source\PSoC4/LCD.c **** *
  10:.\Generated_Source\PSoC4/LCD.c **** ********************************************************************************
  11:.\Generated_Source\PSoC4/LCD.c **** * Copyright 2008-2014, Cypress Semiconductor Corporation.  All rights reserved.
  12:.\Generated_Source\PSoC4/LCD.c **** * You may use this file only in accordance with the license, terms, conditions,
  13:.\Generated_Source\PSoC4/LCD.c **** * disclaimers, and limitations in the end user license agreement accompanying
  14:.\Generated_Source\PSoC4/LCD.c **** * the software package with which this file was provided.
  15:.\Generated_Source\PSoC4/LCD.c **** *******************************************************************************/
  16:.\Generated_Source\PSoC4/LCD.c **** 
  17:.\Generated_Source\PSoC4/LCD.c **** #include "CyLib.h"
  18:.\Generated_Source\PSoC4/LCD.c **** #include "LCD.h"
  19:.\Generated_Source\PSoC4/LCD.c **** 
  20:.\Generated_Source\PSoC4/LCD.c **** 
  21:.\Generated_Source\PSoC4/LCD.c **** static void LCD_WrDatNib(uint8 nibble) ;
  22:.\Generated_Source\PSoC4/LCD.c **** static void LCD_WrCntrlNib(uint8 nibble) ;
  23:.\Generated_Source\PSoC4/LCD.c **** 
  24:.\Generated_Source\PSoC4/LCD.c **** /* Stores state of component. Indicates whether component is or not
  25:.\Generated_Source\PSoC4/LCD.c **** * in enable state.
  26:.\Generated_Source\PSoC4/LCD.c **** */
  27:.\Generated_Source\PSoC4/LCD.c **** uint8 LCD_enableState = 0u;
  28:.\Generated_Source\PSoC4/LCD.c **** 
  29:.\Generated_Source\PSoC4/LCD.c **** uint8 LCD_initVar = 0u;
  30:.\Generated_Source\PSoC4/LCD.c **** 
  31:.\Generated_Source\PSoC4/LCD.c **** 
  32:.\Generated_Source\PSoC4/LCD.c **** /*******************************************************************************
  33:.\Generated_Source\PSoC4/LCD.c **** * Function Name: LCD_Init
ARM GAS  C:\Users\Vitali\AppData\Local\Temp\ccQjqh8P.s 			page 2


  34:.\Generated_Source\PSoC4/LCD.c **** ********************************************************************************
  35:.\Generated_Source\PSoC4/LCD.c **** *
  36:.\Generated_Source\PSoC4/LCD.c **** * Summary:
  37:.\Generated_Source\PSoC4/LCD.c **** *  Performs initialization required for the components normal work.
  38:.\Generated_Source\PSoC4/LCD.c **** *  This function initializes the LCD hardware module as follows:
  39:.\Generated_Source\PSoC4/LCD.c **** *        Enables a 4-bit interface
  40:.\Generated_Source\PSoC4/LCD.c **** *        Clears the display
  41:.\Generated_Source\PSoC4/LCD.c **** *        Enables the auto cursor increment
  42:.\Generated_Source\PSoC4/LCD.c **** *        Resets the cursor to start position
  43:.\Generated_Source\PSoC4/LCD.c **** *  Also, it loads a custom character set to the LCD if it was defined in the customizer.
  44:.\Generated_Source\PSoC4/LCD.c **** *
  45:.\Generated_Source\PSoC4/LCD.c **** * Parameters:
  46:.\Generated_Source\PSoC4/LCD.c **** *  None.
  47:.\Generated_Source\PSoC4/LCD.c **** *
  48:.\Generated_Source\PSoC4/LCD.c **** * Return:
  49:.\Generated_Source\PSoC4/LCD.c **** *  None.
  50:.\Generated_Source\PSoC4/LCD.c **** *
  51:.\Generated_Source\PSoC4/LCD.c **** * Reentrant:
  52:.\Generated_Source\PSoC4/LCD.c **** *  No.
  53:.\Generated_Source\PSoC4/LCD.c **** *
  54:.\Generated_Source\PSoC4/LCD.c **** *******************************************************************************/
  55:.\Generated_Source\PSoC4/LCD.c **** void LCD_Init(void) 
  56:.\Generated_Source\PSoC4/LCD.c **** {
  57:.\Generated_Source\PSoC4/LCD.c ****     /* INIT CODE */
  58:.\Generated_Source\PSoC4/LCD.c ****     CyDelay(40u);                                                        /* Delay 40 ms */
  59:.\Generated_Source\PSoC4/LCD.c ****     LCD_WrCntrlNib(LCD_DISPLAY_8_BIT_INIT);    /* Selects 8-bit mode */
  60:.\Generated_Source\PSoC4/LCD.c ****     CyDelay(5u);                                                         /* Delay 5 ms */
  61:.\Generated_Source\PSoC4/LCD.c ****     LCD_WrCntrlNib(LCD_DISPLAY_8_BIT_INIT);    /* Selects 8-bit mode */
  62:.\Generated_Source\PSoC4/LCD.c ****     CyDelay(15u);                                                        /* Delay 15 ms */
  63:.\Generated_Source\PSoC4/LCD.c ****     LCD_WrCntrlNib(LCD_DISPLAY_8_BIT_INIT);    /* Selects 8-bit mode */
  64:.\Generated_Source\PSoC4/LCD.c ****     CyDelay(1u);                                                         /* Delay 1 ms */
  65:.\Generated_Source\PSoC4/LCD.c ****     LCD_WrCntrlNib(LCD_DISPLAY_4_BIT_INIT);    /* Selects 4-bit mode */
  66:.\Generated_Source\PSoC4/LCD.c ****     CyDelay(5u);                                                         /* Delay 5 ms */
  67:.\Generated_Source\PSoC4/LCD.c **** 
  68:.\Generated_Source\PSoC4/LCD.c ****     LCD_WriteControl(LCD_CURSOR_AUTO_INCR_ON);    /* Incr Cursor After Writes */
  69:.\Generated_Source\PSoC4/LCD.c ****     LCD_WriteControl(LCD_DISPLAY_CURSOR_ON);      /* Turn Display, Cursor ON */
  70:.\Generated_Source\PSoC4/LCD.c ****     LCD_WriteControl(LCD_DISPLAY_2_LINES_5x10);   /* 2 Lines by 5x10 Characters */
  71:.\Generated_Source\PSoC4/LCD.c ****     LCD_WriteControl(LCD_DISPLAY_CURSOR_OFF);     /* Turn Display, Cursor OFF */
  72:.\Generated_Source\PSoC4/LCD.c ****     LCD_WriteControl(LCD_CLEAR_DISPLAY);          /* Clear LCD Screen */
  73:.\Generated_Source\PSoC4/LCD.c ****     LCD_WriteControl(LCD_DISPLAY_ON_CURSOR_OFF);  /* Turn Display ON, Cursor OFF */
  74:.\Generated_Source\PSoC4/LCD.c ****     LCD_WriteControl(LCD_RESET_CURSOR_POSITION);  /* Set Cursor to 0,0 */
  75:.\Generated_Source\PSoC4/LCD.c ****     CyDelay(5u);
  76:.\Generated_Source\PSoC4/LCD.c **** 
  77:.\Generated_Source\PSoC4/LCD.c ****     #if(LCD_CUSTOM_CHAR_SET != LCD_NONE)
  78:.\Generated_Source\PSoC4/LCD.c ****         LCD_LoadCustomFonts(LCD_customFonts);
  79:.\Generated_Source\PSoC4/LCD.c ****     #endif /* LCD_CUSTOM_CHAR_SET != LCD_NONE */
  80:.\Generated_Source\PSoC4/LCD.c **** }
  81:.\Generated_Source\PSoC4/LCD.c **** 
  82:.\Generated_Source\PSoC4/LCD.c **** 
  83:.\Generated_Source\PSoC4/LCD.c **** /*******************************************************************************
  84:.\Generated_Source\PSoC4/LCD.c **** * Function Name: LCD_Enable
  85:.\Generated_Source\PSoC4/LCD.c **** ********************************************************************************
  86:.\Generated_Source\PSoC4/LCD.c **** *
  87:.\Generated_Source\PSoC4/LCD.c **** * Summary:
  88:.\Generated_Source\PSoC4/LCD.c **** *  Turns on the display.
  89:.\Generated_Source\PSoC4/LCD.c **** *
  90:.\Generated_Source\PSoC4/LCD.c **** * Parameters:
ARM GAS  C:\Users\Vitali\AppData\Local\Temp\ccQjqh8P.s 			page 3


  91:.\Generated_Source\PSoC4/LCD.c **** *  None.
  92:.\Generated_Source\PSoC4/LCD.c **** *
  93:.\Generated_Source\PSoC4/LCD.c **** * Return:
  94:.\Generated_Source\PSoC4/LCD.c **** *  None.
  95:.\Generated_Source\PSoC4/LCD.c **** *
  96:.\Generated_Source\PSoC4/LCD.c **** * Reentrant:
  97:.\Generated_Source\PSoC4/LCD.c **** *  No.
  98:.\Generated_Source\PSoC4/LCD.c **** *
  99:.\Generated_Source\PSoC4/LCD.c **** * Theory:
 100:.\Generated_Source\PSoC4/LCD.c **** *  This function has no effect when it is called the first time as
 101:.\Generated_Source\PSoC4/LCD.c **** *  LCD_Init() turns on the LCD.
 102:.\Generated_Source\PSoC4/LCD.c **** *
 103:.\Generated_Source\PSoC4/LCD.c **** *******************************************************************************/
 104:.\Generated_Source\PSoC4/LCD.c **** void LCD_Enable(void) 
 105:.\Generated_Source\PSoC4/LCD.c **** {
 106:.\Generated_Source\PSoC4/LCD.c ****     LCD_DisplayOn();
 107:.\Generated_Source\PSoC4/LCD.c ****     LCD_enableState = 1u;
 108:.\Generated_Source\PSoC4/LCD.c **** }
 109:.\Generated_Source\PSoC4/LCD.c **** 
 110:.\Generated_Source\PSoC4/LCD.c **** 
 111:.\Generated_Source\PSoC4/LCD.c **** /*******************************************************************************
 112:.\Generated_Source\PSoC4/LCD.c **** * Function Name: LCD_Start
 113:.\Generated_Source\PSoC4/LCD.c **** ********************************************************************************
 114:.\Generated_Source\PSoC4/LCD.c **** *
 115:.\Generated_Source\PSoC4/LCD.c **** * Summary:
 116:.\Generated_Source\PSoC4/LCD.c **** *  Performs initialization required for the components normal work.
 117:.\Generated_Source\PSoC4/LCD.c **** *  This function initializes the LCD hardware module as follows:
 118:.\Generated_Source\PSoC4/LCD.c **** *        Enables 4-bit interface
 119:.\Generated_Source\PSoC4/LCD.c **** *        Clears the display
 120:.\Generated_Source\PSoC4/LCD.c **** *        Enables auto cursor increment
 121:.\Generated_Source\PSoC4/LCD.c **** *        Resets the cursor to start position
 122:.\Generated_Source\PSoC4/LCD.c **** *  Also, it loads a custom character set to the LCD if it was defined in the customizer.
 123:.\Generated_Source\PSoC4/LCD.c **** *  If it was not the first call in this project, then it just turns on the
 124:.\Generated_Source\PSoC4/LCD.c **** *  display
 125:.\Generated_Source\PSoC4/LCD.c **** *
 126:.\Generated_Source\PSoC4/LCD.c **** *
 127:.\Generated_Source\PSoC4/LCD.c **** * Parameters:
 128:.\Generated_Source\PSoC4/LCD.c **** *  LCD_initVar - global variable.
 129:.\Generated_Source\PSoC4/LCD.c **** *
 130:.\Generated_Source\PSoC4/LCD.c **** * Return:
 131:.\Generated_Source\PSoC4/LCD.c **** *  LCD_initVar - global variable.
 132:.\Generated_Source\PSoC4/LCD.c **** *
 133:.\Generated_Source\PSoC4/LCD.c **** * Reentrant:
 134:.\Generated_Source\PSoC4/LCD.c **** *  No.
 135:.\Generated_Source\PSoC4/LCD.c **** *
 136:.\Generated_Source\PSoC4/LCD.c **** *******************************************************************************/
 137:.\Generated_Source\PSoC4/LCD.c **** void LCD_Start(void) 
 138:.\Generated_Source\PSoC4/LCD.c **** {
 139:.\Generated_Source\PSoC4/LCD.c ****     /* If not initialized, perform initialization */
 140:.\Generated_Source\PSoC4/LCD.c ****     if(LCD_initVar == 0u)
 141:.\Generated_Source\PSoC4/LCD.c ****     {
 142:.\Generated_Source\PSoC4/LCD.c ****         LCD_Init();
 143:.\Generated_Source\PSoC4/LCD.c ****         LCD_initVar = 1u;
 144:.\Generated_Source\PSoC4/LCD.c ****     }
 145:.\Generated_Source\PSoC4/LCD.c **** 
 146:.\Generated_Source\PSoC4/LCD.c ****     /* Turn on the LCD */
 147:.\Generated_Source\PSoC4/LCD.c ****     LCD_Enable();
ARM GAS  C:\Users\Vitali\AppData\Local\Temp\ccQjqh8P.s 			page 4


 148:.\Generated_Source\PSoC4/LCD.c **** }
 149:.\Generated_Source\PSoC4/LCD.c **** 
 150:.\Generated_Source\PSoC4/LCD.c **** 
 151:.\Generated_Source\PSoC4/LCD.c **** /*******************************************************************************
 152:.\Generated_Source\PSoC4/LCD.c **** * Function Name: LCD_Stop
 153:.\Generated_Source\PSoC4/LCD.c **** ********************************************************************************
 154:.\Generated_Source\PSoC4/LCD.c **** *
 155:.\Generated_Source\PSoC4/LCD.c **** * Summary:
 156:.\Generated_Source\PSoC4/LCD.c **** *  Turns off the display of the LCD screen.
 157:.\Generated_Source\PSoC4/LCD.c **** *
 158:.\Generated_Source\PSoC4/LCD.c **** * Parameters:
 159:.\Generated_Source\PSoC4/LCD.c **** *  None.
 160:.\Generated_Source\PSoC4/LCD.c **** *
 161:.\Generated_Source\PSoC4/LCD.c **** * Return:
 162:.\Generated_Source\PSoC4/LCD.c **** *  None.
 163:.\Generated_Source\PSoC4/LCD.c **** *
 164:.\Generated_Source\PSoC4/LCD.c **** * Reentrant:
 165:.\Generated_Source\PSoC4/LCD.c **** *  No.
 166:.\Generated_Source\PSoC4/LCD.c **** *
 167:.\Generated_Source\PSoC4/LCD.c **** *******************************************************************************/
 168:.\Generated_Source\PSoC4/LCD.c **** void LCD_Stop(void) 
 169:.\Generated_Source\PSoC4/LCD.c **** {
 170:.\Generated_Source\PSoC4/LCD.c ****     /* Calls LCD Off Macro */
 171:.\Generated_Source\PSoC4/LCD.c ****     LCD_DisplayOff();
 172:.\Generated_Source\PSoC4/LCD.c ****     LCD_enableState = 0u;
 173:.\Generated_Source\PSoC4/LCD.c **** }
 174:.\Generated_Source\PSoC4/LCD.c **** 
 175:.\Generated_Source\PSoC4/LCD.c **** 
 176:.\Generated_Source\PSoC4/LCD.c **** /*******************************************************************************
 177:.\Generated_Source\PSoC4/LCD.c **** *  Function Name: LCD_Position
 178:.\Generated_Source\PSoC4/LCD.c **** ********************************************************************************
 179:.\Generated_Source\PSoC4/LCD.c **** *
 180:.\Generated_Source\PSoC4/LCD.c **** * Summary:
 181:.\Generated_Source\PSoC4/LCD.c **** *  Moves the active cursor location to a point specified by the input arguments
 182:.\Generated_Source\PSoC4/LCD.c **** *
 183:.\Generated_Source\PSoC4/LCD.c **** * Parameters:
 184:.\Generated_Source\PSoC4/LCD.c **** *  row:    Specific row of LCD module to be written
 185:.\Generated_Source\PSoC4/LCD.c **** *  column: Column of LCD module to be written
 186:.\Generated_Source\PSoC4/LCD.c **** *
 187:.\Generated_Source\PSoC4/LCD.c **** * Return:
 188:.\Generated_Source\PSoC4/LCD.c **** *  None.
 189:.\Generated_Source\PSoC4/LCD.c **** *
 190:.\Generated_Source\PSoC4/LCD.c **** * Note:
 191:.\Generated_Source\PSoC4/LCD.c **** *  This only applies for LCD displays that use the 2X40 address mode.
 192:.\Generated_Source\PSoC4/LCD.c **** *  In this case Row 2 starts with a 0x28 offset from Row 1.
 193:.\Generated_Source\PSoC4/LCD.c **** *  When there are more than 2 rows, each row must be fewer than 20 characters.
 194:.\Generated_Source\PSoC4/LCD.c **** *
 195:.\Generated_Source\PSoC4/LCD.c **** *******************************************************************************/
 196:.\Generated_Source\PSoC4/LCD.c **** void LCD_Position(uint8 row, uint8 column) 
 197:.\Generated_Source\PSoC4/LCD.c **** {
 198:.\Generated_Source\PSoC4/LCD.c ****     switch (row)
 199:.\Generated_Source\PSoC4/LCD.c ****     {
 200:.\Generated_Source\PSoC4/LCD.c ****         case (uint8)0:
 201:.\Generated_Source\PSoC4/LCD.c ****             LCD_WriteControl(LCD_ROW_0_START + column);
 202:.\Generated_Source\PSoC4/LCD.c ****             break;
 203:.\Generated_Source\PSoC4/LCD.c ****         case (uint8) 1:
 204:.\Generated_Source\PSoC4/LCD.c ****             LCD_WriteControl(LCD_ROW_1_START + column);
ARM GAS  C:\Users\Vitali\AppData\Local\Temp\ccQjqh8P.s 			page 5


 205:.\Generated_Source\PSoC4/LCD.c ****             break;
 206:.\Generated_Source\PSoC4/LCD.c ****         case (uint8) 2:
 207:.\Generated_Source\PSoC4/LCD.c ****             LCD_WriteControl(LCD_ROW_2_START + column);
 208:.\Generated_Source\PSoC4/LCD.c ****             break;
 209:.\Generated_Source\PSoC4/LCD.c ****         case (uint8) 3:
 210:.\Generated_Source\PSoC4/LCD.c ****             LCD_WriteControl(LCD_ROW_3_START + column);
 211:.\Generated_Source\PSoC4/LCD.c ****             break;
 212:.\Generated_Source\PSoC4/LCD.c ****         default:
 213:.\Generated_Source\PSoC4/LCD.c ****             /* if default case is hit, invalid row argument was passed.*/
 214:.\Generated_Source\PSoC4/LCD.c ****             break;
 215:.\Generated_Source\PSoC4/LCD.c ****     }
 216:.\Generated_Source\PSoC4/LCD.c **** }
 217:.\Generated_Source\PSoC4/LCD.c **** 
 218:.\Generated_Source\PSoC4/LCD.c **** 
 219:.\Generated_Source\PSoC4/LCD.c **** /*******************************************************************************
 220:.\Generated_Source\PSoC4/LCD.c **** * Function Name: LCD_PrintString
 221:.\Generated_Source\PSoC4/LCD.c **** ********************************************************************************
 222:.\Generated_Source\PSoC4/LCD.c **** *
 223:.\Generated_Source\PSoC4/LCD.c **** * Summary:
 224:.\Generated_Source\PSoC4/LCD.c **** *  Writes a zero terminated string to the LCD.
 225:.\Generated_Source\PSoC4/LCD.c **** *
 226:.\Generated_Source\PSoC4/LCD.c **** * Parameters:
 227:.\Generated_Source\PSoC4/LCD.c **** *  string: Pointer to head of char8 array to be written to the LCD module
 228:.\Generated_Source\PSoC4/LCD.c **** *
 229:.\Generated_Source\PSoC4/LCD.c **** * Return:
 230:.\Generated_Source\PSoC4/LCD.c **** *  None.
 231:.\Generated_Source\PSoC4/LCD.c **** *
 232:.\Generated_Source\PSoC4/LCD.c **** *******************************************************************************/
 233:.\Generated_Source\PSoC4/LCD.c **** void LCD_PrintString(char8 const string[]) 
 234:.\Generated_Source\PSoC4/LCD.c **** {
 235:.\Generated_Source\PSoC4/LCD.c ****     uint8 indexU8 = 1u;
 236:.\Generated_Source\PSoC4/LCD.c ****     char8 current = *string;
 237:.\Generated_Source\PSoC4/LCD.c **** 
 238:.\Generated_Source\PSoC4/LCD.c ****     /* Until null is reached, print next character */
 239:.\Generated_Source\PSoC4/LCD.c ****     while((char8) '\0' != current)
 240:.\Generated_Source\PSoC4/LCD.c ****     {
 241:.\Generated_Source\PSoC4/LCD.c ****         LCD_WriteData((uint8)current);
 242:.\Generated_Source\PSoC4/LCD.c ****         current = string[indexU8];
 243:.\Generated_Source\PSoC4/LCD.c ****         indexU8++;
 244:.\Generated_Source\PSoC4/LCD.c ****     }
 245:.\Generated_Source\PSoC4/LCD.c **** }
 246:.\Generated_Source\PSoC4/LCD.c **** 
 247:.\Generated_Source\PSoC4/LCD.c **** 
 248:.\Generated_Source\PSoC4/LCD.c **** /*******************************************************************************
 249:.\Generated_Source\PSoC4/LCD.c **** *  Function Name: LCD_PutChar
 250:.\Generated_Source\PSoC4/LCD.c **** ********************************************************************************
 251:.\Generated_Source\PSoC4/LCD.c **** *
 252:.\Generated_Source\PSoC4/LCD.c **** * Summary:
 253:.\Generated_Source\PSoC4/LCD.c **** *  Writes a single character to the current cursor position of the LCD module.
 254:.\Generated_Source\PSoC4/LCD.c **** *  Custom character names (_CUSTOM_0 through
 255:.\Generated_Source\PSoC4/LCD.c **** *  _CUSTOM_7) are acceptable as inputs.
 256:.\Generated_Source\PSoC4/LCD.c **** *
 257:.\Generated_Source\PSoC4/LCD.c **** * Parameters:
 258:.\Generated_Source\PSoC4/LCD.c **** *  character: Character to be written to LCD
 259:.\Generated_Source\PSoC4/LCD.c **** *
 260:.\Generated_Source\PSoC4/LCD.c **** * Return:
 261:.\Generated_Source\PSoC4/LCD.c **** *  None.
ARM GAS  C:\Users\Vitali\AppData\Local\Temp\ccQjqh8P.s 			page 6


 262:.\Generated_Source\PSoC4/LCD.c **** *
 263:.\Generated_Source\PSoC4/LCD.c **** *******************************************************************************/
 264:.\Generated_Source\PSoC4/LCD.c **** void LCD_PutChar(char8 character) 
 265:.\Generated_Source\PSoC4/LCD.c **** {
 266:.\Generated_Source\PSoC4/LCD.c ****     LCD_WriteData((uint8)character);
 267:.\Generated_Source\PSoC4/LCD.c **** }
 268:.\Generated_Source\PSoC4/LCD.c **** 
 269:.\Generated_Source\PSoC4/LCD.c **** 
 270:.\Generated_Source\PSoC4/LCD.c **** /*******************************************************************************
 271:.\Generated_Source\PSoC4/LCD.c **** *  Function Name: LCD_WriteData
 272:.\Generated_Source\PSoC4/LCD.c **** ********************************************************************************
 273:.\Generated_Source\PSoC4/LCD.c **** *
 274:.\Generated_Source\PSoC4/LCD.c **** * Summary:
 275:.\Generated_Source\PSoC4/LCD.c **** *  Writes a data byte to the LCD module's Data Display RAM.
 276:.\Generated_Source\PSoC4/LCD.c **** *
 277:.\Generated_Source\PSoC4/LCD.c **** * Parameters:
 278:.\Generated_Source\PSoC4/LCD.c **** *  dByte: Byte to be written to the LCD module
 279:.\Generated_Source\PSoC4/LCD.c **** *
 280:.\Generated_Source\PSoC4/LCD.c **** * Return:
 281:.\Generated_Source\PSoC4/LCD.c **** *  None.
 282:.\Generated_Source\PSoC4/LCD.c **** *
 283:.\Generated_Source\PSoC4/LCD.c **** *******************************************************************************/
 284:.\Generated_Source\PSoC4/LCD.c **** void LCD_WriteData(uint8 dByte) 
 285:.\Generated_Source\PSoC4/LCD.c **** {
 286:.\Generated_Source\PSoC4/LCD.c ****     uint8 nibble;
 287:.\Generated_Source\PSoC4/LCD.c **** 
 288:.\Generated_Source\PSoC4/LCD.c ****     LCD_IsReady();
 289:.\Generated_Source\PSoC4/LCD.c ****     nibble = dByte >> LCD_NIBBLE_SHIFT;
 290:.\Generated_Source\PSoC4/LCD.c **** 
 291:.\Generated_Source\PSoC4/LCD.c ****     /* Write high nibble */
 292:.\Generated_Source\PSoC4/LCD.c ****     LCD_WrDatNib(nibble);
 293:.\Generated_Source\PSoC4/LCD.c **** 
 294:.\Generated_Source\PSoC4/LCD.c ****     nibble = dByte & LCD_NIBBLE_MASK;
 295:.\Generated_Source\PSoC4/LCD.c ****     /* Write low nibble */
 296:.\Generated_Source\PSoC4/LCD.c ****     LCD_WrDatNib(nibble);
 297:.\Generated_Source\PSoC4/LCD.c **** }
 298:.\Generated_Source\PSoC4/LCD.c **** 
 299:.\Generated_Source\PSoC4/LCD.c **** 
 300:.\Generated_Source\PSoC4/LCD.c **** /*******************************************************************************
 301:.\Generated_Source\PSoC4/LCD.c **** *  Function Name: LCD_WriteControl
 302:.\Generated_Source\PSoC4/LCD.c **** ********************************************************************************
 303:.\Generated_Source\PSoC4/LCD.c **** *
 304:.\Generated_Source\PSoC4/LCD.c **** * Summary:
 305:.\Generated_Source\PSoC4/LCD.c **** *  Writes a command byte to the LCD module.
 306:.\Generated_Source\PSoC4/LCD.c **** *
 307:.\Generated_Source\PSoC4/LCD.c **** * Parameters:
 308:.\Generated_Source\PSoC4/LCD.c **** *  cByte:  The byte to be written to theLCD module
 309:.\Generated_Source\PSoC4/LCD.c **** * 
 310:.\Generated_Source\PSoC4/LCD.c **** * Return:
 311:.\Generated_Source\PSoC4/LCD.c **** *  None.
 312:.\Generated_Source\PSoC4/LCD.c **** *
 313:.\Generated_Source\PSoC4/LCD.c **** *******************************************************************************/
 314:.\Generated_Source\PSoC4/LCD.c **** void LCD_WriteControl(uint8 cByte) 
 315:.\Generated_Source\PSoC4/LCD.c **** {
 316:.\Generated_Source\PSoC4/LCD.c ****     uint8 nibble;
 317:.\Generated_Source\PSoC4/LCD.c **** 
 318:.\Generated_Source\PSoC4/LCD.c ****     LCD_IsReady();
ARM GAS  C:\Users\Vitali\AppData\Local\Temp\ccQjqh8P.s 			page 7


 319:.\Generated_Source\PSoC4/LCD.c **** 
 320:.\Generated_Source\PSoC4/LCD.c ****     nibble = cByte >> LCD_NIBBLE_SHIFT;
 321:.\Generated_Source\PSoC4/LCD.c ****     
 322:.\Generated_Source\PSoC4/LCD.c ****     /* WrCntrlNib(High Nibble) */
 323:.\Generated_Source\PSoC4/LCD.c ****     LCD_WrCntrlNib(nibble);
 324:.\Generated_Source\PSoC4/LCD.c ****     nibble = cByte & LCD_NIBBLE_MASK;
 325:.\Generated_Source\PSoC4/LCD.c **** 
 326:.\Generated_Source\PSoC4/LCD.c ****     /* WrCntrlNib(Low Nibble) */
 327:.\Generated_Source\PSoC4/LCD.c ****     LCD_WrCntrlNib(nibble);
 328:.\Generated_Source\PSoC4/LCD.c **** }
 329:.\Generated_Source\PSoC4/LCD.c **** 
 330:.\Generated_Source\PSoC4/LCD.c **** 
 331:.\Generated_Source\PSoC4/LCD.c **** /*******************************************************************************
 332:.\Generated_Source\PSoC4/LCD.c **** * Function Name: LCD_IsReady
 333:.\Generated_Source\PSoC4/LCD.c **** ********************************************************************************
 334:.\Generated_Source\PSoC4/LCD.c **** *
 335:.\Generated_Source\PSoC4/LCD.c **** * Summary:
 336:.\Generated_Source\PSoC4/LCD.c **** *  Polls the LCD until the ready bit is set or a timeout occurs.
 337:.\Generated_Source\PSoC4/LCD.c **** *
 338:.\Generated_Source\PSoC4/LCD.c **** * Parameters:
 339:.\Generated_Source\PSoC4/LCD.c **** *  None.
 340:.\Generated_Source\PSoC4/LCD.c **** *
 341:.\Generated_Source\PSoC4/LCD.c **** * Return:
 342:.\Generated_Source\PSoC4/LCD.c **** *  None.
 343:.\Generated_Source\PSoC4/LCD.c **** *
 344:.\Generated_Source\PSoC4/LCD.c **** * Note:
 345:.\Generated_Source\PSoC4/LCD.c **** *  Changes the pins to High-Z.
 346:.\Generated_Source\PSoC4/LCD.c **** *
 347:.\Generated_Source\PSoC4/LCD.c **** *******************************************************************************/
 348:.\Generated_Source\PSoC4/LCD.c **** void LCD_IsReady(void) 
 349:.\Generated_Source\PSoC4/LCD.c **** {
 350:.\Generated_Source\PSoC4/LCD.c ****     uint32 value;
 351:.\Generated_Source\PSoC4/LCD.c ****     uint32 timeout;
 352:.\Generated_Source\PSoC4/LCD.c ****     timeout = LCD_READY_DELAY;
 353:.\Generated_Source\PSoC4/LCD.c **** 
 354:.\Generated_Source\PSoC4/LCD.c ****     /* Clear LCD port*/
 355:.\Generated_Source\PSoC4/LCD.c ****     LCD_PORT_DR_REG &= ((uint32)(~LCD_PORT_MASK));
 356:.\Generated_Source\PSoC4/LCD.c **** 
 357:.\Generated_Source\PSoC4/LCD.c ****     /* PSoC4 has a little different from PSoC3/5 port/pin organization for setting Drive Modes.
 358:.\Generated_Source\PSoC4/LCD.c ****   
 359:.\Generated_Source\PSoC4/LCD.c ****     */
 360:.\Generated_Source\PSoC4/LCD.c ****     #if (CY_PSOC4)
 361:.\Generated_Source\PSoC4/LCD.c ****         
 362:.\Generated_Source\PSoC4/LCD.c ****         /* Mask off data pins to clear old values out */
 363:.\Generated_Source\PSoC4/LCD.c ****         value = LCD_PORT_PC_REG & ((uint32) (~ LCD_DM_DATA_MASK));
 364:.\Generated_Source\PSoC4/LCD.c ****         /* Load in high Z values for data pins, others unchanged */
 365:.\Generated_Source\PSoC4/LCD.c ****         LCD_PORT_PC_REG = value | LCD_HIGH_Z_DATA_DM;
 366:.\Generated_Source\PSoC4/LCD.c **** 
 367:.\Generated_Source\PSoC4/LCD.c ****     #else
 368:.\Generated_Source\PSoC4/LCD.c ****     
 369:.\Generated_Source\PSoC4/LCD.c ****         /* Change Port to High-Z Status on data pins */
 370:.\Generated_Source\PSoC4/LCD.c **** 
 371:.\Generated_Source\PSoC4/LCD.c ****         /* Mask off data pins to clear old values out */
 372:.\Generated_Source\PSoC4/LCD.c ****         value = LCD_PORT_DM0_REG & ((uint8)(~LCD_DATA_MASK));
 373:.\Generated_Source\PSoC4/LCD.c ****         /* Load in high Z values for data pins, others unchanged */
 374:.\Generated_Source\PSoC4/LCD.c ****         LCD_PORT_DM0_REG = value | (LCD_HIGH_Z_DM0 & LCD_DATA_MASK);
 375:.\Generated_Source\PSoC4/LCD.c **** 
ARM GAS  C:\Users\Vitali\AppData\Local\Temp\ccQjqh8P.s 			page 8


 376:.\Generated_Source\PSoC4/LCD.c ****         /* Mask off data pins to clear old values out */
 377:.\Generated_Source\PSoC4/LCD.c ****         value = LCD_PORT_DM1_REG & ((uint8)(~LCD_DATA_MASK));
 378:.\Generated_Source\PSoC4/LCD.c ****         /* Load in high Z values for data pins, others unchanged */
 379:.\Generated_Source\PSoC4/LCD.c ****         LCD_PORT_DM1_REG = value;
 380:.\Generated_Source\PSoC4/LCD.c **** 
 381:.\Generated_Source\PSoC4/LCD.c ****         /* Mask off data pins to clear old values out */
 382:.\Generated_Source\PSoC4/LCD.c ****         value = LCD_PORT_DM2_REG & ((uint8)(~LCD_DATA_MASK));
 383:.\Generated_Source\PSoC4/LCD.c ****         /* Load in high Z values for data pins, others unchanged */
 384:.\Generated_Source\PSoC4/LCD.c ****         LCD_PORT_DM2_REG = value;
 385:.\Generated_Source\PSoC4/LCD.c ****     
 386:.\Generated_Source\PSoC4/LCD.c ****     #endif /* CY_PSOC4 */
 387:.\Generated_Source\PSoC4/LCD.c ****     
 388:.\Generated_Source\PSoC4/LCD.c ****     /* Make sure RS is low */
 389:.\Generated_Source\PSoC4/LCD.c ****     LCD_PORT_DR_REG &= ((uint32)(~LCD_RS));
 390:.\Generated_Source\PSoC4/LCD.c **** 
 391:.\Generated_Source\PSoC4/LCD.c ****     /* Set R/W high to read */
 392:.\Generated_Source\PSoC4/LCD.c ****     LCD_PORT_DR_REG |= LCD_RW;
 393:.\Generated_Source\PSoC4/LCD.c **** 
 394:.\Generated_Source\PSoC4/LCD.c ****     do
 395:.\Generated_Source\PSoC4/LCD.c ****     {
 396:.\Generated_Source\PSoC4/LCD.c ****         /* 40 ns delay required before rising Enable and 500ns between neighbour Enables */
 397:.\Generated_Source\PSoC4/LCD.c ****         CyDelayUs(0u);
 398:.\Generated_Source\PSoC4/LCD.c **** 
 399:.\Generated_Source\PSoC4/LCD.c ****         /* Set E high */
 400:.\Generated_Source\PSoC4/LCD.c ****         LCD_PORT_DR_REG |= LCD_E;
 401:.\Generated_Source\PSoC4/LCD.c **** 
 402:.\Generated_Source\PSoC4/LCD.c ****         /* 360 ns delay setup time for data pins */
 403:.\Generated_Source\PSoC4/LCD.c ****         CyDelayUs(1u);
 404:.\Generated_Source\PSoC4/LCD.c **** 
 405:.\Generated_Source\PSoC4/LCD.c ****         /* Get port state */
 406:.\Generated_Source\PSoC4/LCD.c ****         value = LCD_PORT_PS_REG;
 407:.\Generated_Source\PSoC4/LCD.c **** 
 408:.\Generated_Source\PSoC4/LCD.c ****         /* Set enable low */
 409:.\Generated_Source\PSoC4/LCD.c ****         LCD_PORT_DR_REG &= ((uint32)(~LCD_E));
 410:.\Generated_Source\PSoC4/LCD.c **** 
 411:.\Generated_Source\PSoC4/LCD.c ****         /* This gives true delay between disabling Enable bit and polling Ready bit */
 412:.\Generated_Source\PSoC4/LCD.c ****         CyDelayUs(0u);
 413:.\Generated_Source\PSoC4/LCD.c **** 
 414:.\Generated_Source\PSoC4/LCD.c ****         /* Extract ready bit */
 415:.\Generated_Source\PSoC4/LCD.c ****         value &= LCD_READY_BIT;
 416:.\Generated_Source\PSoC4/LCD.c **** 
 417:.\Generated_Source\PSoC4/LCD.c ****         /* Set E high as we in 4-bit interface we need extra operation */
 418:.\Generated_Source\PSoC4/LCD.c ****         LCD_PORT_DR_REG |= LCD_E;
 419:.\Generated_Source\PSoC4/LCD.c **** 
 420:.\Generated_Source\PSoC4/LCD.c ****         /* 360 ns delay setup time for data pins */
 421:.\Generated_Source\PSoC4/LCD.c ****         CyDelayUs(1u);
 422:.\Generated_Source\PSoC4/LCD.c **** 
 423:.\Generated_Source\PSoC4/LCD.c ****         /* Set enable low */
 424:.\Generated_Source\PSoC4/LCD.c ****         LCD_PORT_DR_REG &= ((uint32)(~LCD_E));
 425:.\Generated_Source\PSoC4/LCD.c **** 
 426:.\Generated_Source\PSoC4/LCD.c ****         /* If LCD is not ready make a delay */
 427:.\Generated_Source\PSoC4/LCD.c ****         if (value == 0u)
 428:.\Generated_Source\PSoC4/LCD.c ****         {
 429:.\Generated_Source\PSoC4/LCD.c ****             CyDelayUs(10u);
 430:.\Generated_Source\PSoC4/LCD.c ****         }
 431:.\Generated_Source\PSoC4/LCD.c **** 
 432:.\Generated_Source\PSoC4/LCD.c ****         /* Repeat until bit 4 is not zero or until timeout. */
ARM GAS  C:\Users\Vitali\AppData\Local\Temp\ccQjqh8P.s 			page 9


 433:.\Generated_Source\PSoC4/LCD.c ****         timeout--;
 434:.\Generated_Source\PSoC4/LCD.c **** 
 435:.\Generated_Source\PSoC4/LCD.c ****     } while ((value != 0u) && (timeout > 0u));
 436:.\Generated_Source\PSoC4/LCD.c **** 
 437:.\Generated_Source\PSoC4/LCD.c ****     /* Set R/W low to write */
 438:.\Generated_Source\PSoC4/LCD.c ****     LCD_PORT_DR_REG &= ((uint32)(~LCD_RW));
 439:.\Generated_Source\PSoC4/LCD.c **** 
 440:.\Generated_Source\PSoC4/LCD.c ****     /* Clear LCD port*/
 441:.\Generated_Source\PSoC4/LCD.c ****     LCD_PORT_DR_REG &= ((uint32)(~LCD_PORT_MASK));
 442:.\Generated_Source\PSoC4/LCD.c **** 
 443:.\Generated_Source\PSoC4/LCD.c ****     #if (CY_PSOC4)
 444:.\Generated_Source\PSoC4/LCD.c ****         
 445:.\Generated_Source\PSoC4/LCD.c ****         /* Mask off data pins to clear old values out */
 446:.\Generated_Source\PSoC4/LCD.c ****         value = LCD_PORT_PC_REG & ((uint32)(~ LCD_DM_DATA_MASK));
 447:.\Generated_Source\PSoC4/LCD.c ****         /* Load in high Z values for data pins, others unchanged */
 448:.\Generated_Source\PSoC4/LCD.c ****         LCD_PORT_PC_REG = value | LCD_STRONG_DATA_DM;
 449:.\Generated_Source\PSoC4/LCD.c **** 
 450:.\Generated_Source\PSoC4/LCD.c ****     #else
 451:.\Generated_Source\PSoC4/LCD.c **** 
 452:.\Generated_Source\PSoC4/LCD.c ****         /* Change Port to Output (Strong) on data pins */
 453:.\Generated_Source\PSoC4/LCD.c ****         /* Mask off data pins to clear high z values out. Configure data pins 
 454:.\Generated_Source\PSoC4/LCD.c ****         * to Strong Drive, others unchanged.
 455:.\Generated_Source\PSoC4/LCD.c ****         */
 456:.\Generated_Source\PSoC4/LCD.c ****         LCD_PORT_DM0_REG &= ((uint8)(~LCD_DATA_MASK));
 457:.\Generated_Source\PSoC4/LCD.c ****         /* Mask off data pins to clear high z values out */
 458:.\Generated_Source\PSoC4/LCD.c ****         value = LCD_PORT_DM1_REG & ((uint8)(~LCD_DATA_MASK));
 459:.\Generated_Source\PSoC4/LCD.c ****         /* Configure data pins to Strong Drive, others unchanged */
 460:.\Generated_Source\PSoC4/LCD.c ****         LCD_PORT_DM1_REG = value | (LCD_STRONG_DM1 & LCD_DATA_MASK);
 461:.\Generated_Source\PSoC4/LCD.c **** 
 462:.\Generated_Source\PSoC4/LCD.c ****         /* Mask off data pins to clear high z values out */
 463:.\Generated_Source\PSoC4/LCD.c ****         value = LCD_PORT_DM2_REG & ((uint8)(~LCD_DATA_MASK));
 464:.\Generated_Source\PSoC4/LCD.c ****         /* Configure data pins to Strong Drive, others unchanged */
 465:.\Generated_Source\PSoC4/LCD.c ****         LCD_PORT_DM2_REG = value | (LCD_STRONG_DM2 & LCD_DATA_MASK);
 466:.\Generated_Source\PSoC4/LCD.c ****     
 467:.\Generated_Source\PSoC4/LCD.c ****     #endif /* CY_PSOC4 */
 468:.\Generated_Source\PSoC4/LCD.c **** }
 469:.\Generated_Source\PSoC4/LCD.c **** 
 470:.\Generated_Source\PSoC4/LCD.c **** 
 471:.\Generated_Source\PSoC4/LCD.c **** /*******************************************************************************
 472:.\Generated_Source\PSoC4/LCD.c **** *  Function Name: LCD_WrDatNib
 473:.\Generated_Source\PSoC4/LCD.c **** ********************************************************************************
 474:.\Generated_Source\PSoC4/LCD.c **** *
 475:.\Generated_Source\PSoC4/LCD.c **** * Summary:
 476:.\Generated_Source\PSoC4/LCD.c **** *  Writes a data nibble to the LCD module.
 477:.\Generated_Source\PSoC4/LCD.c **** *
 478:.\Generated_Source\PSoC4/LCD.c **** * Parameters:
 479:.\Generated_Source\PSoC4/LCD.c **** *  nibble:  Byte containing nibble in the least significant nibble to be
 480:.\Generated_Source\PSoC4/LCD.c **** *           written to the LCD module.
 481:.\Generated_Source\PSoC4/LCD.c **** *
 482:.\Generated_Source\PSoC4/LCD.c **** * Return:
 483:.\Generated_Source\PSoC4/LCD.c **** *  None.
 484:.\Generated_Source\PSoC4/LCD.c **** *
 485:.\Generated_Source\PSoC4/LCD.c **** *******************************************************************************/
 486:.\Generated_Source\PSoC4/LCD.c **** static void LCD_WrDatNib(uint8 nibble) 
 487:.\Generated_Source\PSoC4/LCD.c **** {
 488:.\Generated_Source\PSoC4/LCD.c ****     /* RS should be low to select data register */
 489:.\Generated_Source\PSoC4/LCD.c ****     LCD_PORT_DR_REG |= LCD_RS;
ARM GAS  C:\Users\Vitali\AppData\Local\Temp\ccQjqh8P.s 			page 10


 490:.\Generated_Source\PSoC4/LCD.c ****     /* Reset RW for write operation */
 491:.\Generated_Source\PSoC4/LCD.c ****     LCD_PORT_DR_REG &= ((uint32)(~LCD_RW));
 492:.\Generated_Source\PSoC4/LCD.c **** 
 493:.\Generated_Source\PSoC4/LCD.c ****     /* Guaranteed delay between Setting RS and RW and setting E bits */
 494:.\Generated_Source\PSoC4/LCD.c ****     CyDelayUs(0u);
 495:.\Generated_Source\PSoC4/LCD.c ****     
 496:.\Generated_Source\PSoC4/LCD.c ****     /* Clear data pins */
 497:.\Generated_Source\PSoC4/LCD.c ****     LCD_PORT_DR_REG &= ((uint32)(~LCD_DATA_MASK));
 498:.\Generated_Source\PSoC4/LCD.c **** 
 499:.\Generated_Source\PSoC4/LCD.c ****     /* Write data, bring E high */
 500:.\Generated_Source\PSoC4/LCD.c ****     #if(0u != LCD_PORT_SHIFT) /* MISRA forbids shift by 0 so need to handle that */
 501:.\Generated_Source\PSoC4/LCD.c ****         LCD_PORT_DR_REG |= 
 502:.\Generated_Source\PSoC4/LCD.c ****             (LCD_E | ((uint8)(((uint8) nibble) << LCD_PORT_SHIFT)));
 503:.\Generated_Source\PSoC4/LCD.c ****     #else
 504:.\Generated_Source\PSoC4/LCD.c ****         LCD_PORT_DR_REG |= (LCD_E | nibble);
 505:.\Generated_Source\PSoC4/LCD.c ****     #endif /* (0u != LCD_PORT_SHIFT) */
 506:.\Generated_Source\PSoC4/LCD.c **** 
 507:.\Generated_Source\PSoC4/LCD.c ****     /* Minimum of 230 ns delay */
 508:.\Generated_Source\PSoC4/LCD.c ****     CyDelayUs(1u);
 509:.\Generated_Source\PSoC4/LCD.c **** 
 510:.\Generated_Source\PSoC4/LCD.c ****     LCD_PORT_DR_REG &= ((uint32)(~LCD_E));
 511:.\Generated_Source\PSoC4/LCD.c **** }
 512:.\Generated_Source\PSoC4/LCD.c **** 
 513:.\Generated_Source\PSoC4/LCD.c **** 
 514:.\Generated_Source\PSoC4/LCD.c **** /*******************************************************************************
 515:.\Generated_Source\PSoC4/LCD.c **** *  Function Name: LCD_WrCntrlNib
 516:.\Generated_Source\PSoC4/LCD.c **** ********************************************************************************
 517:.\Generated_Source\PSoC4/LCD.c **** *
 518:.\Generated_Source\PSoC4/LCD.c **** * Summary:
 519:.\Generated_Source\PSoC4/LCD.c **** *  Writes a control nibble to the LCD module.
 520:.\Generated_Source\PSoC4/LCD.c **** *
 521:.\Generated_Source\PSoC4/LCD.c **** * Parameters:
 522:.\Generated_Source\PSoC4/LCD.c **** *  nibble: The byte containing a nibble in the four least significant bits.????
 523:.\Generated_Source\PSoC4/LCD.c **** *
 524:.\Generated_Source\PSoC4/LCD.c **** * Return:
 525:.\Generated_Source\PSoC4/LCD.c **** *  None.
 526:.\Generated_Source\PSoC4/LCD.c **** *
 527:.\Generated_Source\PSoC4/LCD.c **** *******************************************************************************/
 528:.\Generated_Source\PSoC4/LCD.c **** static void LCD_WrCntrlNib(uint8 nibble) 
 529:.\Generated_Source\PSoC4/LCD.c **** {
  25              		.loc 1 529 0
  26              		.cfi_startproc
  27              	.LVL0:
 530:.\Generated_Source\PSoC4/LCD.c ****     /* RS and RW should be low to select instruction register and  write operation respectively */
 531:.\Generated_Source\PSoC4/LCD.c ****     LCD_PORT_DR_REG &= ((uint32)(~(LCD_RS | LCD_RW)));
  28              		.loc 1 531 0
  29 0000 6022     		mov	r2, #96
 529:.\Generated_Source\PSoC4/LCD.c ****     /* RS and RW should be low to select instruction register and  write operation respectively */
  30              		.loc 1 529 0
  31 0002 38B5     		push	{r3, r4, r5, lr}
  32              		.cfi_def_cfa_offset 16
  33              		.cfi_offset 3, -16
  34              		.cfi_offset 4, -12
  35              		.cfi_offset 5, -8
  36              		.cfi_offset 14, -4
 532:.\Generated_Source\PSoC4/LCD.c **** 
 533:.\Generated_Source\PSoC4/LCD.c ****     /* Two following lines of code will give 40ns delay */
ARM GAS  C:\Users\Vitali\AppData\Local\Temp\ccQjqh8P.s 			page 11


 534:.\Generated_Source\PSoC4/LCD.c ****     /* Clear data pins */
 535:.\Generated_Source\PSoC4/LCD.c ****     LCD_PORT_DR_REG &= ((uint32)(~LCD_DATA_MASK));
 536:.\Generated_Source\PSoC4/LCD.c **** 
 537:.\Generated_Source\PSoC4/LCD.c ****     /* Write control data and set enable signal */
 538:.\Generated_Source\PSoC4/LCD.c ****     #if(0u != LCD_PORT_SHIFT) /* MISRA forbids shift by 0 so need to handle that */
 539:.\Generated_Source\PSoC4/LCD.c ****         LCD_PORT_DR_REG |= 
 540:.\Generated_Source\PSoC4/LCD.c ****             (LCD_E | ((uint8)(((uint8) nibble) << LCD_PORT_SHIFT)));
 541:.\Generated_Source\PSoC4/LCD.c ****     #else
 542:.\Generated_Source\PSoC4/LCD.c ****         LCD_PORT_DR_REG |= (LCD_E | nibble);
  37              		.loc 1 542 0
  38 0004 1025     		mov	r5, #16
 531:.\Generated_Source\PSoC4/LCD.c **** 
  39              		.loc 1 531 0
  40 0006 094C     		ldr	r4, .L2
  41              		.loc 1 542 0
  42 0008 2843     		orr	r0, r5
  43              	.LVL1:
 531:.\Generated_Source\PSoC4/LCD.c **** 
  44              		.loc 1 531 0
  45 000a 2368     		ldr	r3, [r4]
 543:.\Generated_Source\PSoC4/LCD.c ****     #endif /* (0u != LCD_PORT_SHIFT) */
 544:.\Generated_Source\PSoC4/LCD.c **** 
 545:.\Generated_Source\PSoC4/LCD.c ****     /* Minimum of 230 ns delay */
 546:.\Generated_Source\PSoC4/LCD.c ****     CyDelayUs(1u);
 547:.\Generated_Source\PSoC4/LCD.c **** 
 548:.\Generated_Source\PSoC4/LCD.c ****     LCD_PORT_DR_REG &= ((uint32)(~LCD_E));
 549:.\Generated_Source\PSoC4/LCD.c **** }
  46              		.loc 1 549 0
  47              		@ sp needed
 531:.\Generated_Source\PSoC4/LCD.c **** 
  48              		.loc 1 531 0
  49 000c 9343     		bic	r3, r2
  50 000e 2360     		str	r3, [r4]
 535:.\Generated_Source\PSoC4/LCD.c **** 
  51              		.loc 1 535 0
  52 0010 2368     		ldr	r3, [r4]
  53 0012 513A     		sub	r2, r2, #81
  54 0014 9343     		bic	r3, r2
  55 0016 2360     		str	r3, [r4]
 542:.\Generated_Source\PSoC4/LCD.c ****     #endif /* (0u != LCD_PORT_SHIFT) */
  56              		.loc 1 542 0
  57 0018 2368     		ldr	r3, [r4]
  58 001a 1843     		orr	r0, r3
  59 001c 2060     		str	r0, [r4]
 546:.\Generated_Source\PSoC4/LCD.c **** 
  60              		.loc 1 546 0
  61 001e 0120     		mov	r0, #1
  62 0020 FFF7FEFF 		bl	CyDelayUs
  63              	.LVL2:
 548:.\Generated_Source\PSoC4/LCD.c **** }
  64              		.loc 1 548 0
  65 0024 2368     		ldr	r3, [r4]
  66 0026 AB43     		bic	r3, r5
  67 0028 2360     		str	r3, [r4]
  68              		.loc 1 549 0
  69 002a 38BD     		pop	{r3, r4, r5, pc}
  70              	.L3:
ARM GAS  C:\Users\Vitali\AppData\Local\Temp\ccQjqh8P.s 			page 12


  71              		.align	2
  72              	.L2:
  73 002c 00020440 		.word	1074004480
  74              		.cfi_endproc
  75              	.LFE11:
  76              		.size	LCD_WrCntrlNib, .-LCD_WrCntrlNib
  77              		.section	.text.LCD_WrDatNib,"ax",%progbits
  78              		.align	1
  79              		.code	16
  80              		.thumb_func
  81              		.type	LCD_WrDatNib, %function
  82              	LCD_WrDatNib:
  83              	.LFB10:
 487:.\Generated_Source\PSoC4/LCD.c ****     /* RS should be low to select data register */
  84              		.loc 1 487 0
  85              		.cfi_startproc
  86              	.LVL3:
 489:.\Generated_Source\PSoC4/LCD.c ****     /* Reset RW for write operation */
  87              		.loc 1 489 0
  88 0000 2022     		mov	r2, #32
 487:.\Generated_Source\PSoC4/LCD.c ****     /* RS should be low to select data register */
  89              		.loc 1 487 0
  90 0002 70B5     		push	{r4, r5, r6, lr}
  91              		.cfi_def_cfa_offset 16
  92              		.cfi_offset 4, -16
  93              		.cfi_offset 5, -12
  94              		.cfi_offset 6, -8
  95              		.cfi_offset 14, -4
 487:.\Generated_Source\PSoC4/LCD.c ****     /* RS should be low to select data register */
  96              		.loc 1 487 0
  97 0004 061C     		mov	r6, r0
 489:.\Generated_Source\PSoC4/LCD.c ****     /* Reset RW for write operation */
  98              		.loc 1 489 0
  99 0006 0E4C     		ldr	r4, .L5
 494:.\Generated_Source\PSoC4/LCD.c ****     
 100              		.loc 1 494 0
 101 0008 0020     		mov	r0, #0
 102              	.LVL4:
 489:.\Generated_Source\PSoC4/LCD.c ****     /* Reset RW for write operation */
 103              		.loc 1 489 0
 104 000a 2368     		ldr	r3, [r4]
 504:.\Generated_Source\PSoC4/LCD.c ****     #endif /* (0u != LCD_PORT_SHIFT) */
 105              		.loc 1 504 0
 106 000c 1025     		mov	r5, #16
 489:.\Generated_Source\PSoC4/LCD.c ****     /* Reset RW for write operation */
 107              		.loc 1 489 0
 108 000e 1343     		orr	r3, r2
 109 0010 2360     		str	r3, [r4]
 491:.\Generated_Source\PSoC4/LCD.c **** 
 110              		.loc 1 491 0
 111 0012 2368     		ldr	r3, [r4]
 112 0014 9218     		add	r2, r2, r2
 113 0016 9343     		bic	r3, r2
 114 0018 2360     		str	r3, [r4]
 494:.\Generated_Source\PSoC4/LCD.c ****     
 115              		.loc 1 494 0
 116 001a FFF7FEFF 		bl	CyDelayUs
ARM GAS  C:\Users\Vitali\AppData\Local\Temp\ccQjqh8P.s 			page 13


 117              	.LVL5:
 497:.\Generated_Source\PSoC4/LCD.c **** 
 118              		.loc 1 497 0
 119 001e 0F22     		mov	r2, #15
 504:.\Generated_Source\PSoC4/LCD.c ****     #endif /* (0u != LCD_PORT_SHIFT) */
 120              		.loc 1 504 0
 121 0020 301C     		mov	r0, r6
 497:.\Generated_Source\PSoC4/LCD.c **** 
 122              		.loc 1 497 0
 123 0022 2368     		ldr	r3, [r4]
 504:.\Generated_Source\PSoC4/LCD.c ****     #endif /* (0u != LCD_PORT_SHIFT) */
 124              		.loc 1 504 0
 125 0024 2843     		orr	r0, r5
 497:.\Generated_Source\PSoC4/LCD.c **** 
 126              		.loc 1 497 0
 127 0026 9343     		bic	r3, r2
 128 0028 2360     		str	r3, [r4]
 504:.\Generated_Source\PSoC4/LCD.c ****     #endif /* (0u != LCD_PORT_SHIFT) */
 129              		.loc 1 504 0
 130 002a 2368     		ldr	r3, [r4]
 511:.\Generated_Source\PSoC4/LCD.c **** 
 131              		.loc 1 511 0
 132              		@ sp needed
 504:.\Generated_Source\PSoC4/LCD.c ****     #endif /* (0u != LCD_PORT_SHIFT) */
 133              		.loc 1 504 0
 134 002c 1843     		orr	r0, r3
 135 002e 2060     		str	r0, [r4]
 508:.\Generated_Source\PSoC4/LCD.c **** 
 136              		.loc 1 508 0
 137 0030 0120     		mov	r0, #1
 138 0032 FFF7FEFF 		bl	CyDelayUs
 139              	.LVL6:
 510:.\Generated_Source\PSoC4/LCD.c **** }
 140              		.loc 1 510 0
 141 0036 2368     		ldr	r3, [r4]
 142 0038 AB43     		bic	r3, r5
 143 003a 2360     		str	r3, [r4]
 511:.\Generated_Source\PSoC4/LCD.c **** 
 144              		.loc 1 511 0
 145 003c 70BD     		pop	{r4, r5, r6, pc}
 146              	.L6:
 147 003e C046     		.align	2
 148              	.L5:
 149 0040 00020440 		.word	1074004480
 150              		.cfi_endproc
 151              	.LFE10:
 152              		.size	LCD_WrDatNib, .-LCD_WrDatNib
 153              		.section	.text.LCD_IsReady,"ax",%progbits
 154              		.align	1
 155              		.global	LCD_IsReady
 156              		.code	16
 157              		.thumb_func
 158              		.type	LCD_IsReady, %function
 159              	LCD_IsReady:
 160              	.LFB9:
 349:.\Generated_Source\PSoC4/LCD.c ****     uint32 value;
 161              		.loc 1 349 0
ARM GAS  C:\Users\Vitali\AppData\Local\Temp\ccQjqh8P.s 			page 14


 162              		.cfi_startproc
 163              	.LVL7:
 164 0000 F7B5     		push	{r0, r1, r2, r4, r5, r6, r7, lr}
 165              		.cfi_def_cfa_offset 32
 166              		.cfi_offset 0, -32
 167              		.cfi_offset 1, -28
 168              		.cfi_offset 2, -24
 169              		.cfi_offset 4, -20
 170              		.cfi_offset 5, -16
 171              		.cfi_offset 6, -12
 172              		.cfi_offset 7, -8
 173              		.cfi_offset 14, -4
 355:.\Generated_Source\PSoC4/LCD.c **** 
 174              		.loc 1 355 0
 175 0002 7F22     		mov	r2, #127
 176 0004 244C     		ldr	r4, .L12
 363:.\Generated_Source\PSoC4/LCD.c ****         /* Load in high Z values for data pins, others unchanged */
 177              		.loc 1 363 0
 178 0006 254D     		ldr	r5, .L12+4
 355:.\Generated_Source\PSoC4/LCD.c **** 
 179              		.loc 1 355 0
 180 0008 2368     		ldr	r3, [r4]
 392:.\Generated_Source\PSoC4/LCD.c **** 
 181              		.loc 1 392 0
 182 000a CA27     		mov	r7, #202
 355:.\Generated_Source\PSoC4/LCD.c **** 
 183              		.loc 1 355 0
 184 000c 9343     		bic	r3, r2
 185 000e 2360     		str	r3, [r4]
 363:.\Generated_Source\PSoC4/LCD.c ****         /* Load in high Z values for data pins, others unchanged */
 186              		.loc 1 363 0
 187 0010 2B68     		ldr	r3, [r5]
 188              	.LVL8:
 365:.\Generated_Source\PSoC4/LCD.c **** 
 189              		.loc 1 365 0
 190 0012 234A     		ldr	r2, .L12+8
 363:.\Generated_Source\PSoC4/LCD.c ****         /* Load in high Z values for data pins, others unchanged */
 191              		.loc 1 363 0
 192 0014 1B0B     		lsr	r3, r3, #12
 193              	.LVL9:
 194 0016 1B03     		lsl	r3, r3, #12
 365:.\Generated_Source\PSoC4/LCD.c **** 
 195              		.loc 1 365 0
 196 0018 1343     		orr	r3, r2
 389:.\Generated_Source\PSoC4/LCD.c **** 
 197              		.loc 1 389 0
 198 001a 2022     		mov	r2, #32
 365:.\Generated_Source\PSoC4/LCD.c **** 
 199              		.loc 1 365 0
 200 001c 2B60     		str	r3, [r5]
 389:.\Generated_Source\PSoC4/LCD.c **** 
 201              		.loc 1 389 0
 202 001e 2368     		ldr	r3, [r4]
 392:.\Generated_Source\PSoC4/LCD.c **** 
 203              		.loc 1 392 0
 204 0020 7F00     		lsl	r7, r7, #1
 389:.\Generated_Source\PSoC4/LCD.c **** 
ARM GAS  C:\Users\Vitali\AppData\Local\Temp\ccQjqh8P.s 			page 15


 205              		.loc 1 389 0
 206 0022 9343     		bic	r3, r2
 207 0024 2360     		str	r3, [r4]
 392:.\Generated_Source\PSoC4/LCD.c **** 
 208              		.loc 1 392 0
 209 0026 2368     		ldr	r3, [r4]
 210 0028 9218     		add	r2, r2, r2
 211 002a 1343     		orr	r3, r2
 212 002c 2360     		str	r3, [r4]
 213              	.LVL10:
 214              	.L10:
 400:.\Generated_Source\PSoC4/LCD.c **** 
 215              		.loc 1 400 0
 216 002e 1026     		mov	r6, #16
 397:.\Generated_Source\PSoC4/LCD.c **** 
 217              		.loc 1 397 0
 218 0030 0020     		mov	r0, #0
 219 0032 FFF7FEFF 		bl	CyDelayUs
 220              	.LVL11:
 400:.\Generated_Source\PSoC4/LCD.c **** 
 221              		.loc 1 400 0
 222 0036 2368     		ldr	r3, [r4]
 403:.\Generated_Source\PSoC4/LCD.c **** 
 223              		.loc 1 403 0
 224 0038 0120     		mov	r0, #1
 400:.\Generated_Source\PSoC4/LCD.c **** 
 225              		.loc 1 400 0
 226 003a 3343     		orr	r3, r6
 227 003c 2360     		str	r3, [r4]
 403:.\Generated_Source\PSoC4/LCD.c **** 
 228              		.loc 1 403 0
 229 003e FFF7FEFF 		bl	CyDelayUs
 230              	.LVL12:
 406:.\Generated_Source\PSoC4/LCD.c **** 
 231              		.loc 1 406 0
 232 0042 184B     		ldr	r3, .L12+12
 412:.\Generated_Source\PSoC4/LCD.c **** 
 233              		.loc 1 412 0
 234 0044 0020     		mov	r0, #0
 406:.\Generated_Source\PSoC4/LCD.c **** 
 235              		.loc 1 406 0
 236 0046 1B68     		ldr	r3, [r3]
 237 0048 0193     		str	r3, [sp, #4]
 238              	.LVL13:
 409:.\Generated_Source\PSoC4/LCD.c **** 
 239              		.loc 1 409 0
 240 004a 2368     		ldr	r3, [r4]
 241              	.LVL14:
 242 004c B343     		bic	r3, r6
 243 004e 2360     		str	r3, [r4]
 412:.\Generated_Source\PSoC4/LCD.c **** 
 244              		.loc 1 412 0
 245 0050 FFF7FEFF 		bl	CyDelayUs
 246              	.LVL15:
 418:.\Generated_Source\PSoC4/LCD.c **** 
 247              		.loc 1 418 0
 248 0054 2368     		ldr	r3, [r4]
ARM GAS  C:\Users\Vitali\AppData\Local\Temp\ccQjqh8P.s 			page 16


 421:.\Generated_Source\PSoC4/LCD.c **** 
 249              		.loc 1 421 0
 250 0056 0120     		mov	r0, #1
 418:.\Generated_Source\PSoC4/LCD.c **** 
 251              		.loc 1 418 0
 252 0058 3343     		orr	r3, r6
 253 005a 2360     		str	r3, [r4]
 421:.\Generated_Source\PSoC4/LCD.c **** 
 254              		.loc 1 421 0
 255 005c FFF7FEFF 		bl	CyDelayUs
 256              	.LVL16:
 424:.\Generated_Source\PSoC4/LCD.c **** 
 257              		.loc 1 424 0
 258 0060 2368     		ldr	r3, [r4]
 259 0062 B343     		bic	r3, r6
 260 0064 2360     		str	r3, [r4]
 427:.\Generated_Source\PSoC4/LCD.c ****         {
 261              		.loc 1 427 0
 262 0066 019B     		ldr	r3, [sp, #4]
 263 0068 1B07     		lsl	r3, r3, #28
 264 006a 03D4     		bmi	.L8
 429:.\Generated_Source\PSoC4/LCD.c ****         }
 265              		.loc 1 429 0
 266 006c 0A20     		mov	r0, #10
 267 006e FFF7FEFF 		bl	CyDelayUs
 268              	.LVL17:
 269 0072 02E0     		b	.L9
 270              	.L8:
 271              	.LVL18:
 272 0074 013F     		sub	r7, r7, #1
 273              	.LVL19:
 435:.\Generated_Source\PSoC4/LCD.c **** 
 274              		.loc 1 435 0 discriminator 1
 275 0076 002F     		cmp	r7, #0
 276 0078 D9D1     		bne	.L10
 277              	.LVL20:
 278              	.L9:
 438:.\Generated_Source\PSoC4/LCD.c **** 
 279              		.loc 1 438 0
 280 007a 4022     		mov	r2, #64
 281 007c 2368     		ldr	r3, [r4]
 468:.\Generated_Source\PSoC4/LCD.c **** 
 282              		.loc 1 468 0
 283              		@ sp needed
 438:.\Generated_Source\PSoC4/LCD.c **** 
 284              		.loc 1 438 0
 285 007e 9343     		bic	r3, r2
 286 0080 2360     		str	r3, [r4]
 441:.\Generated_Source\PSoC4/LCD.c **** 
 287              		.loc 1 441 0
 288 0082 2368     		ldr	r3, [r4]
 289 0084 3F32     		add	r2, r2, #63
 290 0086 9343     		bic	r3, r2
 291 0088 2360     		str	r3, [r4]
 446:.\Generated_Source\PSoC4/LCD.c ****         /* Load in high Z values for data pins, others unchanged */
 292              		.loc 1 446 0
 293 008a 2B68     		ldr	r3, [r5]
ARM GAS  C:\Users\Vitali\AppData\Local\Temp\ccQjqh8P.s 			page 17


 294              	.LVL21:
 448:.\Generated_Source\PSoC4/LCD.c **** 
 295              		.loc 1 448 0
 296 008c 064A     		ldr	r2, .L12+16
 446:.\Generated_Source\PSoC4/LCD.c ****         /* Load in high Z values for data pins, others unchanged */
 297              		.loc 1 446 0
 298 008e 1B0B     		lsr	r3, r3, #12
 299              	.LVL22:
 300 0090 1B03     		lsl	r3, r3, #12
 448:.\Generated_Source\PSoC4/LCD.c **** 
 301              		.loc 1 448 0
 302 0092 1343     		orr	r3, r2
 303 0094 2B60     		str	r3, [r5]
 468:.\Generated_Source\PSoC4/LCD.c **** 
 304              		.loc 1 468 0
 305 0096 F7BD     		pop	{r0, r1, r2, r4, r5, r6, r7, pc}
 306              	.L13:
 307              		.align	2
 308              	.L12:
 309 0098 00020440 		.word	1074004480
 310 009c 08020440 		.word	1074004488
 311 00a0 49020000 		.word	585
 312 00a4 04020440 		.word	1074004484
 313 00a8 B60D0000 		.word	3510
 314              		.cfi_endproc
 315              	.LFE9:
 316              		.size	LCD_IsReady, .-LCD_IsReady
 317              		.section	.text.LCD_WriteData,"ax",%progbits
 318              		.align	1
 319              		.global	LCD_WriteData
 320              		.code	16
 321              		.thumb_func
 322              		.type	LCD_WriteData, %function
 323              	LCD_WriteData:
 324              	.LFB7:
 285:.\Generated_Source\PSoC4/LCD.c ****     uint8 nibble;
 325              		.loc 1 285 0
 326              		.cfi_startproc
 327              	.LVL23:
 328 0000 10B5     		push	{r4, lr}
 329              		.cfi_def_cfa_offset 8
 330              		.cfi_offset 4, -8
 331              		.cfi_offset 14, -4
 285:.\Generated_Source\PSoC4/LCD.c ****     uint8 nibble;
 332              		.loc 1 285 0
 333 0002 041C     		mov	r4, r0
 288:.\Generated_Source\PSoC4/LCD.c ****     nibble = dByte >> LCD_NIBBLE_SHIFT;
 334              		.loc 1 288 0
 335 0004 FFF7FEFF 		bl	LCD_IsReady
 336              	.LVL24:
 292:.\Generated_Source\PSoC4/LCD.c **** 
 337              		.loc 1 292 0
 338 0008 2009     		lsr	r0, r4, #4
 339 000a FFF7FEFF 		bl	LCD_WrDatNib
 340              	.LVL25:
 296:.\Generated_Source\PSoC4/LCD.c **** }
 341              		.loc 1 296 0
ARM GAS  C:\Users\Vitali\AppData\Local\Temp\ccQjqh8P.s 			page 18


 342 000e 0F20     		mov	r0, #15
 343 0010 2040     		and	r0, r4
 344 0012 FFF7FEFF 		bl	LCD_WrDatNib
 345              	.LVL26:
 297:.\Generated_Source\PSoC4/LCD.c **** 
 346              		.loc 1 297 0
 347              		@ sp needed
 348              	.LVL27:
 349 0016 10BD     		pop	{r4, pc}
 350              		.cfi_endproc
 351              	.LFE7:
 352              		.size	LCD_WriteData, .-LCD_WriteData
 353              		.section	.text.LCD_PrintString,"ax",%progbits
 354              		.align	1
 355              		.global	LCD_PrintString
 356              		.code	16
 357              		.thumb_func
 358              		.type	LCD_PrintString, %function
 359              	LCD_PrintString:
 360              	.LFB5:
 234:.\Generated_Source\PSoC4/LCD.c ****     uint8 indexU8 = 1u;
 361              		.loc 1 234 0
 362              		.cfi_startproc
 363              	.LVL28:
 364 0000 38B5     		push	{r3, r4, r5, lr}
 365              		.cfi_def_cfa_offset 16
 366              		.cfi_offset 3, -16
 367              		.cfi_offset 4, -12
 368              		.cfi_offset 5, -8
 369              		.cfi_offset 14, -4
 235:.\Generated_Source\PSoC4/LCD.c ****     char8 current = *string;
 370              		.loc 1 235 0
 371 0002 0124     		mov	r4, #1
 234:.\Generated_Source\PSoC4/LCD.c ****     uint8 indexU8 = 1u;
 372              		.loc 1 234 0
 373 0004 051C     		mov	r5, r0
 236:.\Generated_Source\PSoC4/LCD.c **** 
 374              		.loc 1 236 0
 375 0006 0078     		ldrb	r0, [r0]
 376              	.LVL29:
 377              	.L16:
 239:.\Generated_Source\PSoC4/LCD.c ****     {
 378              		.loc 1 239 0
 379 0008 0028     		cmp	r0, #0
 380 000a 05D0     		beq	.L18
 241:.\Generated_Source\PSoC4/LCD.c ****         current = string[indexU8];
 381              		.loc 1 241 0
 382 000c FFF7FEFF 		bl	LCD_WriteData
 383              	.LVL30:
 242:.\Generated_Source\PSoC4/LCD.c ****         indexU8++;
 384              		.loc 1 242 0
 385 0010 285D     		ldrb	r0, [r5, r4]
 386              	.LVL31:
 243:.\Generated_Source\PSoC4/LCD.c ****     }
 387              		.loc 1 243 0
 388 0012 0134     		add	r4, r4, #1
 389              	.LVL32:
ARM GAS  C:\Users\Vitali\AppData\Local\Temp\ccQjqh8P.s 			page 19


 390 0014 E4B2     		uxtb	r4, r4
 391              	.LVL33:
 392 0016 F7E7     		b	.L16
 393              	.L18:
 245:.\Generated_Source\PSoC4/LCD.c **** 
 394              		.loc 1 245 0
 395              		@ sp needed
 396              	.LVL34:
 397              	.LVL35:
 398 0018 38BD     		pop	{r3, r4, r5, pc}
 399              		.cfi_endproc
 400              	.LFE5:
 401              		.size	LCD_PrintString, .-LCD_PrintString
 402              		.section	.text.LCD_PutChar,"ax",%progbits
 403              		.align	1
 404              		.global	LCD_PutChar
 405              		.code	16
 406              		.thumb_func
 407              		.type	LCD_PutChar, %function
 408              	LCD_PutChar:
 409              	.LFB6:
 265:.\Generated_Source\PSoC4/LCD.c ****     LCD_WriteData((uint8)character);
 410              		.loc 1 265 0
 411              		.cfi_startproc
 412              	.LVL36:
 413 0000 08B5     		push	{r3, lr}
 414              		.cfi_def_cfa_offset 8
 415              		.cfi_offset 3, -8
 416              		.cfi_offset 14, -4
 266:.\Generated_Source\PSoC4/LCD.c **** }
 417              		.loc 1 266 0
 418 0002 FFF7FEFF 		bl	LCD_WriteData
 419              	.LVL37:
 267:.\Generated_Source\PSoC4/LCD.c **** 
 420              		.loc 1 267 0
 421              		@ sp needed
 422 0006 08BD     		pop	{r3, pc}
 423              		.cfi_endproc
 424              	.LFE6:
 425              		.size	LCD_PutChar, .-LCD_PutChar
 426              		.section	.text.LCD_WriteControl,"ax",%progbits
 427              		.align	1
 428              		.global	LCD_WriteControl
 429              		.code	16
 430              		.thumb_func
 431              		.type	LCD_WriteControl, %function
 432              	LCD_WriteControl:
 433              	.LFB8:
 315:.\Generated_Source\PSoC4/LCD.c ****     uint8 nibble;
 434              		.loc 1 315 0
 435              		.cfi_startproc
 436              	.LVL38:
 437 0000 10B5     		push	{r4, lr}
 438              		.cfi_def_cfa_offset 8
 439              		.cfi_offset 4, -8
 440              		.cfi_offset 14, -4
 315:.\Generated_Source\PSoC4/LCD.c ****     uint8 nibble;
ARM GAS  C:\Users\Vitali\AppData\Local\Temp\ccQjqh8P.s 			page 20


 441              		.loc 1 315 0
 442 0002 041C     		mov	r4, r0
 318:.\Generated_Source\PSoC4/LCD.c **** 
 443              		.loc 1 318 0
 444 0004 FFF7FEFF 		bl	LCD_IsReady
 445              	.LVL39:
 323:.\Generated_Source\PSoC4/LCD.c ****     nibble = cByte & LCD_NIBBLE_MASK;
 446              		.loc 1 323 0
 447 0008 2009     		lsr	r0, r4, #4
 448 000a FFF7FEFF 		bl	LCD_WrCntrlNib
 449              	.LVL40:
 327:.\Generated_Source\PSoC4/LCD.c **** }
 450              		.loc 1 327 0
 451 000e 0F20     		mov	r0, #15
 452 0010 2040     		and	r0, r4
 453 0012 FFF7FEFF 		bl	LCD_WrCntrlNib
 454              	.LVL41:
 328:.\Generated_Source\PSoC4/LCD.c **** 
 455              		.loc 1 328 0
 456              		@ sp needed
 457              	.LVL42:
 458 0016 10BD     		pop	{r4, pc}
 459              		.cfi_endproc
 460              	.LFE8:
 461              		.size	LCD_WriteControl, .-LCD_WriteControl
 462              		.section	.text.LCD_Init,"ax",%progbits
 463              		.align	1
 464              		.global	LCD_Init
 465              		.code	16
 466              		.thumb_func
 467              		.type	LCD_Init, %function
 468              	LCD_Init:
 469              	.LFB0:
  56:.\Generated_Source\PSoC4/LCD.c ****     /* INIT CODE */
 470              		.loc 1 56 0
 471              		.cfi_startproc
 472 0000 08B5     		push	{r3, lr}
 473              		.cfi_def_cfa_offset 8
 474              		.cfi_offset 3, -8
 475              		.cfi_offset 14, -4
  58:.\Generated_Source\PSoC4/LCD.c ****     LCD_WrCntrlNib(LCD_DISPLAY_8_BIT_INIT);    /* Selects 8-bit mode */
 476              		.loc 1 58 0
 477 0002 2820     		mov	r0, #40
 478 0004 FFF7FEFF 		bl	CyDelay
 479              	.LVL43:
  59:.\Generated_Source\PSoC4/LCD.c ****     CyDelay(5u);                                                         /* Delay 5 ms */
 480              		.loc 1 59 0
 481 0008 0320     		mov	r0, #3
 482 000a FFF7FEFF 		bl	LCD_WrCntrlNib
 483              	.LVL44:
  60:.\Generated_Source\PSoC4/LCD.c ****     LCD_WrCntrlNib(LCD_DISPLAY_8_BIT_INIT);    /* Selects 8-bit mode */
 484              		.loc 1 60 0
 485 000e 0520     		mov	r0, #5
 486 0010 FFF7FEFF 		bl	CyDelay
 487              	.LVL45:
  61:.\Generated_Source\PSoC4/LCD.c ****     CyDelay(15u);                                                        /* Delay 15 ms */
 488              		.loc 1 61 0
ARM GAS  C:\Users\Vitali\AppData\Local\Temp\ccQjqh8P.s 			page 21


 489 0014 0320     		mov	r0, #3
 490 0016 FFF7FEFF 		bl	LCD_WrCntrlNib
 491              	.LVL46:
  62:.\Generated_Source\PSoC4/LCD.c ****     LCD_WrCntrlNib(LCD_DISPLAY_8_BIT_INIT);    /* Selects 8-bit mode */
 492              		.loc 1 62 0
 493 001a 0F20     		mov	r0, #15
 494 001c FFF7FEFF 		bl	CyDelay
 495              	.LVL47:
  63:.\Generated_Source\PSoC4/LCD.c ****     CyDelay(1u);                                                         /* Delay 1 ms */
 496              		.loc 1 63 0
 497 0020 0320     		mov	r0, #3
 498 0022 FFF7FEFF 		bl	LCD_WrCntrlNib
 499              	.LVL48:
  64:.\Generated_Source\PSoC4/LCD.c ****     LCD_WrCntrlNib(LCD_DISPLAY_4_BIT_INIT);    /* Selects 4-bit mode */
 500              		.loc 1 64 0
 501 0026 0120     		mov	r0, #1
 502 0028 FFF7FEFF 		bl	CyDelay
 503              	.LVL49:
  65:.\Generated_Source\PSoC4/LCD.c ****     CyDelay(5u);                                                         /* Delay 5 ms */
 504              		.loc 1 65 0
 505 002c 0220     		mov	r0, #2
 506 002e FFF7FEFF 		bl	LCD_WrCntrlNib
 507              	.LVL50:
  66:.\Generated_Source\PSoC4/LCD.c **** 
 508              		.loc 1 66 0
 509 0032 0520     		mov	r0, #5
 510 0034 FFF7FEFF 		bl	CyDelay
 511              	.LVL51:
  68:.\Generated_Source\PSoC4/LCD.c ****     LCD_WriteControl(LCD_DISPLAY_CURSOR_ON);      /* Turn Display, Cursor ON */
 512              		.loc 1 68 0
 513 0038 0620     		mov	r0, #6
 514 003a FFF7FEFF 		bl	LCD_WriteControl
 515              	.LVL52:
  69:.\Generated_Source\PSoC4/LCD.c ****     LCD_WriteControl(LCD_DISPLAY_2_LINES_5x10);   /* 2 Lines by 5x10 Characters */
 516              		.loc 1 69 0
 517 003e 0E20     		mov	r0, #14
 518 0040 FFF7FEFF 		bl	LCD_WriteControl
 519              	.LVL53:
  70:.\Generated_Source\PSoC4/LCD.c ****     LCD_WriteControl(LCD_DISPLAY_CURSOR_OFF);     /* Turn Display, Cursor OFF */
 520              		.loc 1 70 0
 521 0044 2C20     		mov	r0, #44
 522 0046 FFF7FEFF 		bl	LCD_WriteControl
 523              	.LVL54:
  71:.\Generated_Source\PSoC4/LCD.c ****     LCD_WriteControl(LCD_CLEAR_DISPLAY);          /* Clear LCD Screen */
 524              		.loc 1 71 0
 525 004a 0820     		mov	r0, #8
 526 004c FFF7FEFF 		bl	LCD_WriteControl
 527              	.LVL55:
  72:.\Generated_Source\PSoC4/LCD.c ****     LCD_WriteControl(LCD_DISPLAY_ON_CURSOR_OFF);  /* Turn Display ON, Cursor OFF */
 528              		.loc 1 72 0
 529 0050 0120     		mov	r0, #1
 530 0052 FFF7FEFF 		bl	LCD_WriteControl
 531              	.LVL56:
  73:.\Generated_Source\PSoC4/LCD.c ****     LCD_WriteControl(LCD_RESET_CURSOR_POSITION);  /* Set Cursor to 0,0 */
 532              		.loc 1 73 0
 533 0056 0C20     		mov	r0, #12
 534 0058 FFF7FEFF 		bl	LCD_WriteControl
ARM GAS  C:\Users\Vitali\AppData\Local\Temp\ccQjqh8P.s 			page 22


 535              	.LVL57:
  74:.\Generated_Source\PSoC4/LCD.c ****     CyDelay(5u);
 536              		.loc 1 74 0
 537 005c 0320     		mov	r0, #3
 538 005e FFF7FEFF 		bl	LCD_WriteControl
 539              	.LVL58:
  75:.\Generated_Source\PSoC4/LCD.c **** 
 540              		.loc 1 75 0
 541 0062 0520     		mov	r0, #5
 542 0064 FFF7FEFF 		bl	CyDelay
 543              	.LVL59:
  80:.\Generated_Source\PSoC4/LCD.c **** 
 544              		.loc 1 80 0
 545              		@ sp needed
 546 0068 08BD     		pop	{r3, pc}
 547              		.cfi_endproc
 548              	.LFE0:
 549              		.size	LCD_Init, .-LCD_Init
 550              		.section	.text.LCD_Enable,"ax",%progbits
 551              		.align	1
 552              		.global	LCD_Enable
 553              		.code	16
 554              		.thumb_func
 555              		.type	LCD_Enable, %function
 556              	LCD_Enable:
 557              	.LFB1:
 105:.\Generated_Source\PSoC4/LCD.c ****     LCD_DisplayOn();
 558              		.loc 1 105 0
 559              		.cfi_startproc
 560 0000 08B5     		push	{r3, lr}
 561              		.cfi_def_cfa_offset 8
 562              		.cfi_offset 3, -8
 563              		.cfi_offset 14, -4
 106:.\Generated_Source\PSoC4/LCD.c ****     LCD_enableState = 1u;
 564              		.loc 1 106 0
 565 0002 0C20     		mov	r0, #12
 566 0004 FFF7FEFF 		bl	LCD_WriteControl
 567              	.LVL60:
 107:.\Generated_Source\PSoC4/LCD.c **** }
 568              		.loc 1 107 0
 569 0008 0122     		mov	r2, #1
 570 000a 014B     		ldr	r3, .L23
 108:.\Generated_Source\PSoC4/LCD.c **** 
 571              		.loc 1 108 0
 572              		@ sp needed
 107:.\Generated_Source\PSoC4/LCD.c **** }
 573              		.loc 1 107 0
 574 000c 1A70     		strb	r2, [r3]
 108:.\Generated_Source\PSoC4/LCD.c **** 
 575              		.loc 1 108 0
 576 000e 08BD     		pop	{r3, pc}
 577              	.L24:
 578              		.align	2
 579              	.L23:
 580 0010 00000000 		.word	.LANCHOR0
 581              		.cfi_endproc
 582              	.LFE1:
ARM GAS  C:\Users\Vitali\AppData\Local\Temp\ccQjqh8P.s 			page 23


 583              		.size	LCD_Enable, .-LCD_Enable
 584              		.section	.text.LCD_Start,"ax",%progbits
 585              		.align	1
 586              		.global	LCD_Start
 587              		.code	16
 588              		.thumb_func
 589              		.type	LCD_Start, %function
 590              	LCD_Start:
 591              	.LFB2:
 138:.\Generated_Source\PSoC4/LCD.c ****     /* If not initialized, perform initialization */
 592              		.loc 1 138 0
 593              		.cfi_startproc
 594 0000 10B5     		push	{r4, lr}
 595              		.cfi_def_cfa_offset 8
 596              		.cfi_offset 4, -8
 597              		.cfi_offset 14, -4
 140:.\Generated_Source\PSoC4/LCD.c ****     {
 598              		.loc 1 140 0
 599 0002 054C     		ldr	r4, .L27
 600 0004 6378     		ldrb	r3, [r4, #1]
 601 0006 002B     		cmp	r3, #0
 602 0008 03D1     		bne	.L26
 142:.\Generated_Source\PSoC4/LCD.c ****         LCD_initVar = 1u;
 603              		.loc 1 142 0
 604 000a FFF7FEFF 		bl	LCD_Init
 605              	.LVL61:
 143:.\Generated_Source\PSoC4/LCD.c ****     }
 606              		.loc 1 143 0
 607 000e 0123     		mov	r3, #1
 608 0010 6370     		strb	r3, [r4, #1]
 609              	.L26:
 147:.\Generated_Source\PSoC4/LCD.c **** }
 610              		.loc 1 147 0
 611 0012 FFF7FEFF 		bl	LCD_Enable
 612              	.LVL62:
 148:.\Generated_Source\PSoC4/LCD.c **** 
 613              		.loc 1 148 0
 614              		@ sp needed
 615 0016 10BD     		pop	{r4, pc}
 616              	.L28:
 617              		.align	2
 618              	.L27:
 619 0018 00000000 		.word	.LANCHOR0
 620              		.cfi_endproc
 621              	.LFE2:
 622              		.size	LCD_Start, .-LCD_Start
 623              		.section	.text.LCD_Stop,"ax",%progbits
 624              		.align	1
 625              		.global	LCD_Stop
 626              		.code	16
 627              		.thumb_func
 628              		.type	LCD_Stop, %function
 629              	LCD_Stop:
 630              	.LFB3:
 169:.\Generated_Source\PSoC4/LCD.c ****     /* Calls LCD Off Macro */
 631              		.loc 1 169 0
 632              		.cfi_startproc
ARM GAS  C:\Users\Vitali\AppData\Local\Temp\ccQjqh8P.s 			page 24


 633 0000 08B5     		push	{r3, lr}
 634              		.cfi_def_cfa_offset 8
 635              		.cfi_offset 3, -8
 636              		.cfi_offset 14, -4
 171:.\Generated_Source\PSoC4/LCD.c ****     LCD_enableState = 0u;
 637              		.loc 1 171 0
 638 0002 0820     		mov	r0, #8
 639 0004 FFF7FEFF 		bl	LCD_WriteControl
 640              	.LVL63:
 172:.\Generated_Source\PSoC4/LCD.c **** }
 641              		.loc 1 172 0
 642 0008 0022     		mov	r2, #0
 643 000a 014B     		ldr	r3, .L30
 173:.\Generated_Source\PSoC4/LCD.c **** 
 644              		.loc 1 173 0
 645              		@ sp needed
 172:.\Generated_Source\PSoC4/LCD.c **** }
 646              		.loc 1 172 0
 647 000c 1A70     		strb	r2, [r3]
 173:.\Generated_Source\PSoC4/LCD.c **** 
 648              		.loc 1 173 0
 649 000e 08BD     		pop	{r3, pc}
 650              	.L31:
 651              		.align	2
 652              	.L30:
 653 0010 00000000 		.word	.LANCHOR0
 654              		.cfi_endproc
 655              	.LFE3:
 656              		.size	LCD_Stop, .-LCD_Stop
 657              		.section	.text.LCD_Position,"ax",%progbits
 658              		.align	1
 659              		.global	LCD_Position
 660              		.code	16
 661              		.thumb_func
 662              		.type	LCD_Position, %function
 663              	LCD_Position:
 664              	.LFB4:
 197:.\Generated_Source\PSoC4/LCD.c ****     switch (row)
 665              		.loc 1 197 0
 666              		.cfi_startproc
 667              	.LVL64:
 668 0000 08B5     		push	{r3, lr}
 669              		.cfi_def_cfa_offset 8
 670              		.cfi_offset 3, -8
 671              		.cfi_offset 14, -4
 198:.\Generated_Source\PSoC4/LCD.c ****     {
 672              		.loc 1 198 0
 673 0002 0328     		cmp	r0, #3
 674 0004 0DD8     		bhi	.L32
 675 0006 FFF7FEFF 		bl	__gnu_thumb1_case_uqi
 676              	.L35:
 677 000a 02       		.byte	(.L34-.L35)/2
 678 000b 04       		.byte	(.L36-.L35)/2
 679 000c 06       		.byte	(.L37-.L35)/2
 680 000d 08       		.byte	(.L38-.L35)/2
 681              		.p2align 1
 682              	.L34:
ARM GAS  C:\Users\Vitali\AppData\Local\Temp\ccQjqh8P.s 			page 25


 201:.\Generated_Source\PSoC4/LCD.c ****             break;
 683              		.loc 1 201 0
 684 000e 8039     		sub	r1, r1, #128
 685              	.LVL65:
 686 0010 04E0     		b	.L39
 687              	.LVL66:
 688              	.L36:
 204:.\Generated_Source\PSoC4/LCD.c ****             break;
 689              		.loc 1 204 0
 690 0012 4039     		sub	r1, r1, #64
 691              	.LVL67:
 692 0014 02E0     		b	.L39
 693              	.LVL68:
 694              	.L37:
 207:.\Generated_Source\PSoC4/LCD.c ****             break;
 695              		.loc 1 207 0
 696 0016 6C39     		sub	r1, r1, #108
 697              	.LVL69:
 698 0018 00E0     		b	.L39
 699              	.LVL70:
 700              	.L38:
 210:.\Generated_Source\PSoC4/LCD.c ****             break;
 701              		.loc 1 210 0
 702 001a 2C39     		sub	r1, r1, #44
 703              	.LVL71:
 704              	.L39:
 705 001c C8B2     		uxtb	r0, r1
 706              	.LVL72:
 707 001e FFF7FEFF 		bl	LCD_WriteControl
 708              	.LVL73:
 709              	.L32:
 216:.\Generated_Source\PSoC4/LCD.c **** 
 710              		.loc 1 216 0
 711              		@ sp needed
 712 0022 08BD     		pop	{r3, pc}
 713              		.cfi_endproc
 714              	.LFE4:
 715              		.size	LCD_Position, .-LCD_Position
 716              		.section	.text.LCD_PrintInt8,"ax",%progbits
 717              		.align	1
 718              		.global	LCD_PrintInt8
 719              		.code	16
 720              		.thumb_func
 721              		.type	LCD_PrintInt8, %function
 722              	LCD_PrintInt8:
 723              	.LFB12:
 550:.\Generated_Source\PSoC4/LCD.c **** 
 551:.\Generated_Source\PSoC4/LCD.c **** 
 552:.\Generated_Source\PSoC4/LCD.c **** #if(LCD_CONVERSION_ROUTINES == 1u)
 553:.\Generated_Source\PSoC4/LCD.c **** 
 554:.\Generated_Source\PSoC4/LCD.c ****     /*******************************************************************************
 555:.\Generated_Source\PSoC4/LCD.c ****     *  Function Name: LCD_PrintInt8
 556:.\Generated_Source\PSoC4/LCD.c ****     ********************************************************************************
 557:.\Generated_Source\PSoC4/LCD.c ****     *
 558:.\Generated_Source\PSoC4/LCD.c ****     * Summary:
 559:.\Generated_Source\PSoC4/LCD.c ****     *  Print a byte as two ASCII characters.
 560:.\Generated_Source\PSoC4/LCD.c ****     *
ARM GAS  C:\Users\Vitali\AppData\Local\Temp\ccQjqh8P.s 			page 26


 561:.\Generated_Source\PSoC4/LCD.c ****     * Parameters:
 562:.\Generated_Source\PSoC4/LCD.c ****     *  value: The byte to be printed out as ASCII characters.
 563:.\Generated_Source\PSoC4/LCD.c ****     *
 564:.\Generated_Source\PSoC4/LCD.c ****     * Return:
 565:.\Generated_Source\PSoC4/LCD.c ****     *  None.
 566:.\Generated_Source\PSoC4/LCD.c ****     *
 567:.\Generated_Source\PSoC4/LCD.c ****     *******************************************************************************/
 568:.\Generated_Source\PSoC4/LCD.c ****     void LCD_PrintInt8(uint8 value) 
 569:.\Generated_Source\PSoC4/LCD.c ****     {
 724              		.loc 1 569 0
 725              		.cfi_startproc
 726              	.LVL74:
 727 0000 38B5     		push	{r3, r4, r5, lr}
 728              		.cfi_def_cfa_offset 16
 729              		.cfi_offset 3, -16
 730              		.cfi_offset 4, -12
 731              		.cfi_offset 5, -8
 732              		.cfi_offset 14, -4
 570:.\Generated_Source\PSoC4/LCD.c ****         static char8 const CYCODE LCD_hex[16u] = "0123456789ABCDEF";
 571:.\Generated_Source\PSoC4/LCD.c ****         
 572:.\Generated_Source\PSoC4/LCD.c ****         LCD_PutChar((char8) LCD_hex[value >> LCD_BYTE_UPPER_NIBBLE_SHIFT]);
 733              		.loc 1 572 0
 734 0002 064C     		ldr	r4, .L41
 735 0004 0309     		lsr	r3, r0, #4
 569:.\Generated_Source\PSoC4/LCD.c ****         static char8 const CYCODE LCD_hex[16u] = "0123456789ABCDEF";
 736              		.loc 1 569 0
 737 0006 051C     		mov	r5, r0
 738              	.LBB6:
 739              	.LBB7:
 266:.\Generated_Source\PSoC4/LCD.c **** }
 740              		.loc 1 266 0
 741 0008 E05C     		ldrb	r0, [r4, r3]
 742              	.LVL75:
 743 000a FFF7FEFF 		bl	LCD_WriteData
 744              	.LVL76:
 745              	.LBE7:
 746              	.LBE6:
 573:.\Generated_Source\PSoC4/LCD.c ****         LCD_PutChar((char8) LCD_hex[value & LCD_BYTE_LOWER_NIBBLE_MASK]);
 747              		.loc 1 573 0
 748 000e 0F20     		mov	r0, #15
 749 0010 2840     		and	r0, r5
 750              	.LBB8:
 751              	.LBB9:
 266:.\Generated_Source\PSoC4/LCD.c **** }
 752              		.loc 1 266 0
 753 0012 205C     		ldrb	r0, [r4, r0]
 754 0014 FFF7FEFF 		bl	LCD_WriteData
 755              	.LVL77:
 756              	.LBE9:
 757              	.LBE8:
 574:.\Generated_Source\PSoC4/LCD.c ****     }
 758              		.loc 1 574 0
 759              		@ sp needed
 760              	.LVL78:
 761 0018 38BD     		pop	{r3, r4, r5, pc}
 762              	.L42:
 763 001a C046     		.align	2
ARM GAS  C:\Users\Vitali\AppData\Local\Temp\ccQjqh8P.s 			page 27


 764              	.L41:
 765 001c 00000000 		.word	.LANCHOR1
 766              		.cfi_endproc
 767              	.LFE12:
 768              		.size	LCD_PrintInt8, .-LCD_PrintInt8
 769              		.section	.text.LCD_PrintInt16,"ax",%progbits
 770              		.align	1
 771              		.global	LCD_PrintInt16
 772              		.code	16
 773              		.thumb_func
 774              		.type	LCD_PrintInt16, %function
 775              	LCD_PrintInt16:
 776              	.LFB13:
 575:.\Generated_Source\PSoC4/LCD.c **** 
 576:.\Generated_Source\PSoC4/LCD.c **** 
 577:.\Generated_Source\PSoC4/LCD.c ****     /*******************************************************************************
 578:.\Generated_Source\PSoC4/LCD.c ****     *  Function Name: LCD_PrintInt16
 579:.\Generated_Source\PSoC4/LCD.c ****     ********************************************************************************
 580:.\Generated_Source\PSoC4/LCD.c ****     *
 581:.\Generated_Source\PSoC4/LCD.c ****     * Summary:
 582:.\Generated_Source\PSoC4/LCD.c ****     *  Print a uint16 as four ASCII characters.
 583:.\Generated_Source\PSoC4/LCD.c ****     *
 584:.\Generated_Source\PSoC4/LCD.c ****     * Parameters:
 585:.\Generated_Source\PSoC4/LCD.c ****     *  value: The uint16 to be printed out as ASCII characters.
 586:.\Generated_Source\PSoC4/LCD.c ****     *
 587:.\Generated_Source\PSoC4/LCD.c ****     * Return:
 588:.\Generated_Source\PSoC4/LCD.c ****     *  None.
 589:.\Generated_Source\PSoC4/LCD.c ****     *
 590:.\Generated_Source\PSoC4/LCD.c ****     *******************************************************************************/
 591:.\Generated_Source\PSoC4/LCD.c ****     void LCD_PrintInt16(uint16 value) 
 592:.\Generated_Source\PSoC4/LCD.c ****     {
 777              		.loc 1 592 0
 778              		.cfi_startproc
 779              	.LVL79:
 780 0000 10B5     		push	{r4, lr}
 781              		.cfi_def_cfa_offset 8
 782              		.cfi_offset 4, -8
 783              		.cfi_offset 14, -4
 784              		.loc 1 592 0
 785 0002 041C     		mov	r4, r0
 593:.\Generated_Source\PSoC4/LCD.c ****         LCD_PrintInt8((uint8)(value >> LCD_U16_UPPER_BYTE_SHIFT));
 786              		.loc 1 593 0
 787 0004 000A     		lsr	r0, r0, #8
 788              	.LVL80:
 789 0006 FFF7FEFF 		bl	LCD_PrintInt8
 790              	.LVL81:
 594:.\Generated_Source\PSoC4/LCD.c ****         LCD_PrintInt8((uint8)(value & LCD_U16_LOWER_BYTE_MASK));
 791              		.loc 1 594 0
 792 000a E0B2     		uxtb	r0, r4
 793 000c FFF7FEFF 		bl	LCD_PrintInt8
 794              	.LVL82:
 595:.\Generated_Source\PSoC4/LCD.c ****     }
 795              		.loc 1 595 0
 796              		@ sp needed
 797 0010 10BD     		pop	{r4, pc}
 798              		.cfi_endproc
 799              	.LFE13:
ARM GAS  C:\Users\Vitali\AppData\Local\Temp\ccQjqh8P.s 			page 28


 800              		.size	LCD_PrintInt16, .-LCD_PrintInt16
 801              		.section	.text.LCD_PrintInt32,"ax",%progbits
 802              		.align	1
 803              		.global	LCD_PrintInt32
 804              		.code	16
 805              		.thumb_func
 806              		.type	LCD_PrintInt32, %function
 807              	LCD_PrintInt32:
 808              	.LFB14:
 596:.\Generated_Source\PSoC4/LCD.c **** 
 597:.\Generated_Source\PSoC4/LCD.c ****     
 598:.\Generated_Source\PSoC4/LCD.c ****     /*******************************************************************************
 599:.\Generated_Source\PSoC4/LCD.c ****     *  Function Name: LCD_PrintInt32
 600:.\Generated_Source\PSoC4/LCD.c ****     ********************************************************************************
 601:.\Generated_Source\PSoC4/LCD.c ****     *
 602:.\Generated_Source\PSoC4/LCD.c ****     * Summary:
 603:.\Generated_Source\PSoC4/LCD.c ****     *  Print a uint32 hexadecimal number as eight ASCII characters.
 604:.\Generated_Source\PSoC4/LCD.c ****     *
 605:.\Generated_Source\PSoC4/LCD.c ****     * Parameters:
 606:.\Generated_Source\PSoC4/LCD.c ****     *  value: The uint32 to be printed out as ASCII characters.
 607:.\Generated_Source\PSoC4/LCD.c ****     *
 608:.\Generated_Source\PSoC4/LCD.c ****     * Return:
 609:.\Generated_Source\PSoC4/LCD.c ****     *  None.
 610:.\Generated_Source\PSoC4/LCD.c ****     *
 611:.\Generated_Source\PSoC4/LCD.c ****     *******************************************************************************/
 612:.\Generated_Source\PSoC4/LCD.c ****     void LCD_PrintInt32(uint32 value) 
 613:.\Generated_Source\PSoC4/LCD.c ****     {
 809              		.loc 1 613 0
 810              		.cfi_startproc
 811              	.LVL83:
 812 0000 38B5     		push	{r3, r4, r5, lr}
 813              		.cfi_def_cfa_offset 16
 814              		.cfi_offset 3, -16
 815              		.cfi_offset 4, -12
 816              		.cfi_offset 5, -8
 817              		.cfi_offset 14, -4
 818              		.loc 1 613 0
 819 0002 051C     		mov	r5, r0
 614:.\Generated_Source\PSoC4/LCD.c ****         uint8 shift = LCD_32_BIT_SHIFT;
 820              		.loc 1 614 0
 821 0004 2024     		mov	r4, #32
 822              	.LVL84:
 823              	.L45:
 615:.\Generated_Source\PSoC4/LCD.c ****         
 616:.\Generated_Source\PSoC4/LCD.c ****         while (shift != 0u)
 617:.\Generated_Source\PSoC4/LCD.c ****         {
 618:.\Generated_Source\PSoC4/LCD.c ****             /* "shift" var is to be subtracted by 8 prior shifting. This implements 
 619:.\Generated_Source\PSoC4/LCD.c ****             * shifting by 24, 16, 8 and 0u. 
 620:.\Generated_Source\PSoC4/LCD.c ****             */
 621:.\Generated_Source\PSoC4/LCD.c ****             shift -= LCD_8_BIT_SHIFT;
 622:.\Generated_Source\PSoC4/LCD.c ****             
 623:.\Generated_Source\PSoC4/LCD.c ****             /* Print 8 bits of uint32 hex number */
 624:.\Generated_Source\PSoC4/LCD.c ****             LCD_PrintInt8((uint8) ((uint32) (value >> shift)));
 824              		.loc 1 624 0
 825 0006 281C     		mov	r0, r5
 621:.\Generated_Source\PSoC4/LCD.c ****             
 826              		.loc 1 621 0
ARM GAS  C:\Users\Vitali\AppData\Local\Temp\ccQjqh8P.s 			page 29


 827 0008 083C     		sub	r4, r4, #8
 828              	.LVL85:
 829 000a E4B2     		uxtb	r4, r4
 830              	.LVL86:
 831              		.loc 1 624 0
 832 000c E040     		lsr	r0, r0, r4
 833 000e C0B2     		uxtb	r0, r0
 834 0010 FFF7FEFF 		bl	LCD_PrintInt8
 835              	.LVL87:
 616:.\Generated_Source\PSoC4/LCD.c ****         {
 836              		.loc 1 616 0
 837 0014 002C     		cmp	r4, #0
 838 0016 F6D1     		bne	.L45
 625:.\Generated_Source\PSoC4/LCD.c ****         }
 626:.\Generated_Source\PSoC4/LCD.c ****     }
 839              		.loc 1 626 0
 840              		@ sp needed
 841              	.LVL88:
 842              	.LVL89:
 843 0018 38BD     		pop	{r3, r4, r5, pc}
 844              		.cfi_endproc
 845              	.LFE14:
 846              		.size	LCD_PrintInt32, .-LCD_PrintInt32
 847              		.global	__aeabi_uidivmod
 848              		.global	__aeabi_uidiv
 849              		.section	.text.LCD_PrintU32Number,"ax",%progbits
 850              		.align	1
 851              		.global	LCD_PrintU32Number
 852              		.code	16
 853              		.thumb_func
 854              		.type	LCD_PrintU32Number, %function
 855              	LCD_PrintU32Number:
 856              	.LFB15:
 627:.\Generated_Source\PSoC4/LCD.c ****     
 628:.\Generated_Source\PSoC4/LCD.c ****     
 629:.\Generated_Source\PSoC4/LCD.c ****     /*******************************************************************************
 630:.\Generated_Source\PSoC4/LCD.c ****     *  Function Name: LCD_PrintNumber
 631:.\Generated_Source\PSoC4/LCD.c ****     ********************************************************************************
 632:.\Generated_Source\PSoC4/LCD.c ****     *
 633:.\Generated_Source\PSoC4/LCD.c ****     * Summary:
 634:.\Generated_Source\PSoC4/LCD.c ****     *  Print an uint16 value as a left-justified decimal value.
 635:.\Generated_Source\PSoC4/LCD.c ****     *
 636:.\Generated_Source\PSoC4/LCD.c ****     * Parameters:
 637:.\Generated_Source\PSoC4/LCD.c ****     *  value: A 16-bit value to be printed in ASCII characters as a decimal number
 638:.\Generated_Source\PSoC4/LCD.c ****     *
 639:.\Generated_Source\PSoC4/LCD.c ****     * Return:
 640:.\Generated_Source\PSoC4/LCD.c ****     *  None.
 641:.\Generated_Source\PSoC4/LCD.c ****     *
 642:.\Generated_Source\PSoC4/LCD.c ****     * Note:
 643:.\Generated_Source\PSoC4/LCD.c ****     *  This function is implemented as a macro.
 644:.\Generated_Source\PSoC4/LCD.c ****     *
 645:.\Generated_Source\PSoC4/LCD.c ****     *******************************************************************************/
 646:.\Generated_Source\PSoC4/LCD.c **** 
 647:.\Generated_Source\PSoC4/LCD.c ****     
 648:.\Generated_Source\PSoC4/LCD.c ****     /*******************************************************************************
 649:.\Generated_Source\PSoC4/LCD.c ****     *  Function Name: LCD_PrintU32Number
 650:.\Generated_Source\PSoC4/LCD.c ****     ********************************************************************************
ARM GAS  C:\Users\Vitali\AppData\Local\Temp\ccQjqh8P.s 			page 30


 651:.\Generated_Source\PSoC4/LCD.c ****     *
 652:.\Generated_Source\PSoC4/LCD.c ****     * Summary:
 653:.\Generated_Source\PSoC4/LCD.c ****     *  Print an uint32 value as a left-justified decimal value.
 654:.\Generated_Source\PSoC4/LCD.c ****     *
 655:.\Generated_Source\PSoC4/LCD.c ****     * Parameters:
 656:.\Generated_Source\PSoC4/LCD.c ****     *  value: A 32-bit value to be printed in ASCII characters as a decimal number
 657:.\Generated_Source\PSoC4/LCD.c ****     *
 658:.\Generated_Source\PSoC4/LCD.c ****     * Return:
 659:.\Generated_Source\PSoC4/LCD.c ****     *  None.
 660:.\Generated_Source\PSoC4/LCD.c ****     *
 661:.\Generated_Source\PSoC4/LCD.c ****     *******************************************************************************/
 662:.\Generated_Source\PSoC4/LCD.c ****     void LCD_PrintU32Number(uint32 value) 
 663:.\Generated_Source\PSoC4/LCD.c ****     {
 857              		.loc 1 663 0
 858              		.cfi_startproc
 859              	.LVL90:
 860 0000 7FB5     		push	{r0, r1, r2, r3, r4, r5, r6, lr}
 861              		.cfi_def_cfa_offset 32
 862              		.cfi_offset 0, -32
 863              		.cfi_offset 1, -28
 864              		.cfi_offset 2, -24
 865              		.cfi_offset 3, -20
 866              		.cfi_offset 4, -16
 867              		.cfi_offset 5, -12
 868              		.cfi_offset 6, -8
 869              		.cfi_offset 14, -4
 664:.\Generated_Source\PSoC4/LCD.c ****         uint8 tmpDigit;
 665:.\Generated_Source\PSoC4/LCD.c ****         char8 number[LCD_NUMBER_OF_REMAINDERS_U32 + 1u];
 666:.\Generated_Source\PSoC4/LCD.c ****         uint8 digIndex = LCD_NUMBER_OF_REMAINDERS_U32;
 667:.\Generated_Source\PSoC4/LCD.c ****         
 668:.\Generated_Source\PSoC4/LCD.c ****         /* This API will output a decimal number as a string and that string will be 
 669:.\Generated_Source\PSoC4/LCD.c ****         * filled from end to start. Set Null termination character first.
 670:.\Generated_Source\PSoC4/LCD.c ****         */
 671:.\Generated_Source\PSoC4/LCD.c ****         number[digIndex] = (char8) '\0';
 870              		.loc 1 671 0
 871 0002 0023     		mov	r3, #0
 663:.\Generated_Source\PSoC4/LCD.c ****         uint8 tmpDigit;
 872              		.loc 1 663 0
 873 0004 051C     		mov	r5, r0
 672:.\Generated_Source\PSoC4/LCD.c ****         digIndex--;
 874              		.loc 1 672 0
 875 0006 0924     		mov	r4, #9
 671:.\Generated_Source\PSoC4/LCD.c ****         digIndex--;
 876              		.loc 1 671 0
 877 0008 01AE     		add	r6, sp, #4
 878 000a B372     		strb	r3, [r6, #10]
 879              	.LVL91:
 880              	.L47:
 673:.\Generated_Source\PSoC4/LCD.c ****         
 674:.\Generated_Source\PSoC4/LCD.c ****         /* Load these in reverse order */
 675:.\Generated_Source\PSoC4/LCD.c ****         while(value >= LCD_TEN)
 676:.\Generated_Source\PSoC4/LCD.c ****         {
 677:.\Generated_Source\PSoC4/LCD.c ****             /* Extract decimal digit, indexed by 'digIndex', from 'value' and
 678:.\Generated_Source\PSoC4/LCD.c ****             * convert it to ASCII character.
 679:.\Generated_Source\PSoC4/LCD.c ****             */
 680:.\Generated_Source\PSoC4/LCD.c ****             tmpDigit = (uint8) (((uint8) (value % LCD_TEN)) + (uint8) LCD_ZERO_CHAR_ASCII);
 881              		.loc 1 680 0
ARM GAS  C:\Users\Vitali\AppData\Local\Temp\ccQjqh8P.s 			page 31


 882 000c 281C     		mov	r0, r5
 883 000e 0A21     		mov	r1, #10
 675:.\Generated_Source\PSoC4/LCD.c ****         {
 884              		.loc 1 675 0
 885 0010 092D     		cmp	r5, #9
 886 0012 0BD9     		bls	.L49
 887              	.LVL92:
 888              		.loc 1 680 0
 889 0014 FFF7FEFF 		bl	__aeabi_uidivmod
 890              	.LVL93:
 891 0018 3031     		add	r1, r1, #48
 681:.\Generated_Source\PSoC4/LCD.c ****             
 682:.\Generated_Source\PSoC4/LCD.c ****             /* Temporary variable 'tmpDigit' is used to avoid Violation of MISRA rule 
 683:.\Generated_Source\PSoC4/LCD.c ****             * #10.3.
 684:.\Generated_Source\PSoC4/LCD.c ****             */
 685:.\Generated_Source\PSoC4/LCD.c ****             number[digIndex] = (char8) tmpDigit;
 892              		.loc 1 685 0
 893 001a 3155     		strb	r1, [r6, r4]
 686:.\Generated_Source\PSoC4/LCD.c ****             value /= LCD_TEN;
 894              		.loc 1 686 0
 895 001c 281C     		mov	r0, r5
 896 001e 0A21     		mov	r1, #10
 897 0020 FFF7FEFF 		bl	__aeabi_uidiv
 898              	.LVL94:
 687:.\Generated_Source\PSoC4/LCD.c ****             digIndex--;
 899              		.loc 1 687 0
 900 0024 013C     		sub	r4, r4, #1
 901              	.LVL95:
 686:.\Generated_Source\PSoC4/LCD.c ****             value /= LCD_TEN;
 902              		.loc 1 686 0
 903 0026 051C     		mov	r5, r0
 904              	.LVL96:
 905              		.loc 1 687 0
 906 0028 E4B2     		uxtb	r4, r4
 907              	.LVL97:
 908 002a EFE7     		b	.L47
 909              	.L49:
 688:.\Generated_Source\PSoC4/LCD.c ****         }
 689:.\Generated_Source\PSoC4/LCD.c ****         
 690:.\Generated_Source\PSoC4/LCD.c ****         /* Extract last decimal digit 'digIndex', from the 'value' and convert it
 691:.\Generated_Source\PSoC4/LCD.c ****         * to ASCII character.
 692:.\Generated_Source\PSoC4/LCD.c ****         */
 693:.\Generated_Source\PSoC4/LCD.c ****         tmpDigit = (uint8) (((uint8)(value % LCD_TEN)) + (uint8) LCD_ZERO_CHAR_ASCII);
 910              		.loc 1 693 0
 911 002c FFF7FEFF 		bl	__aeabi_uidivmod
 912              	.LVL98:
 694:.\Generated_Source\PSoC4/LCD.c ****         number[digIndex] = (char8) tmpDigit;
 695:.\Generated_Source\PSoC4/LCD.c **** 
 696:.\Generated_Source\PSoC4/LCD.c ****         /* Print out number */
 697:.\Generated_Source\PSoC4/LCD.c ****         LCD_PrintString(&number[digIndex]);
 913              		.loc 1 697 0
 914 0030 3019     		add	r0, r6, r4
 693:.\Generated_Source\PSoC4/LCD.c ****         number[digIndex] = (char8) tmpDigit;
 915              		.loc 1 693 0
 916 0032 3031     		add	r1, r1, #48
 694:.\Generated_Source\PSoC4/LCD.c ****         number[digIndex] = (char8) tmpDigit;
 917              		.loc 1 694 0
ARM GAS  C:\Users\Vitali\AppData\Local\Temp\ccQjqh8P.s 			page 32


 918 0034 3155     		strb	r1, [r6, r4]
 698:.\Generated_Source\PSoC4/LCD.c ****     }
 919              		.loc 1 698 0
 920              		@ sp needed
 697:.\Generated_Source\PSoC4/LCD.c ****     }
 921              		.loc 1 697 0
 922 0036 FFF7FEFF 		bl	LCD_PrintString
 923              	.LVL99:
 924              	.LVL100:
 925              	.LVL101:
 926              		.loc 1 698 0
 927 003a 7FBD     		pop	{r0, r1, r2, r3, r4, r5, r6, pc}
 928              		.cfi_endproc
 929              	.LFE15:
 930              		.size	LCD_PrintU32Number, .-LCD_PrintU32Number
 931              		.global	LCD_initVar
 932              		.global	LCD_enableState
 933              		.section	.rodata
 934              		.set	.LANCHOR1,. + 0
 935              		.type	LCD_hex.4778, %object
 936              		.size	LCD_hex.4778, 16
 937              	LCD_hex.4778:
 938 0000 30313233 		.ascii	"0123456789ABCDEF"
 938      34353637 
 938      38394142 
 938      43444546 
 939              		.bss
 940              		.set	.LANCHOR0,. + 0
 941              		.type	LCD_enableState, %object
 942              		.size	LCD_enableState, 1
 943              	LCD_enableState:
 944 0000 00       		.space	1
 945              		.type	LCD_initVar, %object
 946              		.size	LCD_initVar, 1
 947              	LCD_initVar:
 948 0001 00       		.space	1
 949              		.text
 950              	.Letext0:
 951              		.file 2 ".\\Generated_Source\\PSoC4\\cytypes.h"
 952              		.file 3 ".\\Generated_Source\\PSoC4\\CyLib.h"