ARM GAS  C:\Users\Vitali\AppData\Local\Temp\cc2WPJTl.s 			page 1


   1              		.cpu cortex-m0
   2              		.fpu softvfp
   3              		.eabi_attribute 20, 1
   4              		.eabi_attribute 21, 1
   5              		.eabi_attribute 23, 3
   6              		.eabi_attribute 24, 1
   7              		.eabi_attribute 25, 1
   8              		.eabi_attribute 26, 1
   9              		.eabi_attribute 30, 4
  10              		.eabi_attribute 34, 0
  11              		.eabi_attribute 18, 4
  12              		.code	16
  13              		.file	"main.c"
  14              		.text
  15              	.Ltext0:
  16              		.cfi_sections	.debug_frame
  17              		.section	.text.RTC_GetSecond,"ax",%progbits
  18              		.align	1
  19              		.code	16
  20              		.thumb_func
  21              		.type	RTC_GetSecond, %function
  22              	RTC_GetSecond:
  23              	.LFB2:
  24              		.file 1 "Generated_Source\\PSoC4/RTC.h"
   1:Generated_Source\PSoC4/RTC.h **** /*******************************************************************************
   2:Generated_Source\PSoC4/RTC.h **** * File Name: RTC.h
   3:Generated_Source\PSoC4/RTC.h **** * Version 1.0
   4:Generated_Source\PSoC4/RTC.h **** *
   5:Generated_Source\PSoC4/RTC.h **** * Description:
   6:Generated_Source\PSoC4/RTC.h **** *  This file provides constants and parameter values for the RTC_P4 Component.
   7:Generated_Source\PSoC4/RTC.h **** *
   8:Generated_Source\PSoC4/RTC.h **** ********************************************************************************
   9:Generated_Source\PSoC4/RTC.h **** * Copyright 2015, Cypress Semiconductor Corporation.  All rights reserved.
  10:Generated_Source\PSoC4/RTC.h **** * You may use this file only in accordance with the license, terms, conditions,
  11:Generated_Source\PSoC4/RTC.h **** * disclaimers, and limitations in the end user license agreement accompanying
  12:Generated_Source\PSoC4/RTC.h **** * the software package with which this file was provided.
  13:Generated_Source\PSoC4/RTC.h **** *******************************************************************************/
  14:Generated_Source\PSoC4/RTC.h **** 
  15:Generated_Source\PSoC4/RTC.h **** #if !defined(CY_RTC_P4_RTC_H)
  16:Generated_Source\PSoC4/RTC.h **** #define CY_RTC_P4_RTC_H
  17:Generated_Source\PSoC4/RTC.h **** 
  18:Generated_Source\PSoC4/RTC.h **** #include <cytypes.h>
  19:Generated_Source\PSoC4/RTC.h **** #include <CyLib.h>
  20:Generated_Source\PSoC4/RTC.h **** 
  21:Generated_Source\PSoC4/RTC.h **** 
  22:Generated_Source\PSoC4/RTC.h **** /***************************************
  23:Generated_Source\PSoC4/RTC.h **** *    Data types definition.
  24:Generated_Source\PSoC4/RTC.h **** ***************************************/
  25:Generated_Source\PSoC4/RTC.h **** typedef enum
  26:Generated_Source\PSoC4/RTC.h **** {
  27:Generated_Source\PSoC4/RTC.h ****     RTC_DST_DATE_RELATIVE = 0u,
  28:Generated_Source\PSoC4/RTC.h ****     RTC_DST_DATE_FIXED = 1u
  29:Generated_Source\PSoC4/RTC.h **** }RTC_DST_DATETYPE_ENUM;
  30:Generated_Source\PSoC4/RTC.h **** 
  31:Generated_Source\PSoC4/RTC.h **** typedef struct
  32:Generated_Source\PSoC4/RTC.h **** {
  33:Generated_Source\PSoC4/RTC.h ****     uint32 time;
ARM GAS  C:\Users\Vitali\AppData\Local\Temp\cc2WPJTl.s 			page 2


  34:Generated_Source\PSoC4/RTC.h ****     uint32 date;
  35:Generated_Source\PSoC4/RTC.h ****     uint32 dayOfWeek;
  36:Generated_Source\PSoC4/RTC.h ****     uint32 status;
  37:Generated_Source\PSoC4/RTC.h **** }RTC_DATE_TIME;
  38:Generated_Source\PSoC4/RTC.h **** 
  39:Generated_Source\PSoC4/RTC.h **** typedef struct
  40:Generated_Source\PSoC4/RTC.h **** {
  41:Generated_Source\PSoC4/RTC.h ****     uint32 hour;
  42:Generated_Source\PSoC4/RTC.h ****     uint32 dayOfWeek;
  43:Generated_Source\PSoC4/RTC.h ****     uint32 dayOfMonth;
  44:Generated_Source\PSoC4/RTC.h ****     uint32 weekOfMonth;
  45:Generated_Source\PSoC4/RTC.h ****     uint32 month;
  46:Generated_Source\PSoC4/RTC.h ****     uint8  timeFormat;
  47:Generated_Source\PSoC4/RTC.h **** }RTC_DST_TIME;
  48:Generated_Source\PSoC4/RTC.h **** 
  49:Generated_Source\PSoC4/RTC.h **** 
  50:Generated_Source\PSoC4/RTC.h **** /**************************************
  51:Generated_Source\PSoC4/RTC.h **** *    Enumerated Types and Parameters
  52:Generated_Source\PSoC4/RTC.h **** **************************************/
  53:Generated_Source\PSoC4/RTC.h **** /* Time Format setting constants */
  54:Generated_Source\PSoC4/RTC.h **** #define RTC__HOUR_12 1
  55:Generated_Source\PSoC4/RTC.h **** #define RTC__HOUR_24 0
  56:Generated_Source\PSoC4/RTC.h **** 
  57:Generated_Source\PSoC4/RTC.h **** /*  Date Format setting constants */
  58:Generated_Source\PSoC4/RTC.h **** #define RTC__MM_DD_YYYY 0
  59:Generated_Source\PSoC4/RTC.h **** #define RTC__DD_MM_YYYY 1
  60:Generated_Source\PSoC4/RTC.h **** #define RTC__YYYY_MM_DD 2
  61:Generated_Source\PSoC4/RTC.h **** 
  62:Generated_Source\PSoC4/RTC.h **** /* Date Type setting constants */
  63:Generated_Source\PSoC4/RTC.h **** #define RTC__RELATIVE 0
  64:Generated_Source\PSoC4/RTC.h **** #define RTC__FIXED 1
  65:Generated_Source\PSoC4/RTC.h **** 
  66:Generated_Source\PSoC4/RTC.h **** /* DST Hour setting constants */
  67:Generated_Source\PSoC4/RTC.h **** #define RTC__H0000 0
  68:Generated_Source\PSoC4/RTC.h **** #define RTC__H0100 1
  69:Generated_Source\PSoC4/RTC.h **** #define RTC__H0200 2
  70:Generated_Source\PSoC4/RTC.h **** #define RTC__H0300 3
  71:Generated_Source\PSoC4/RTC.h **** #define RTC__H0400 4
  72:Generated_Source\PSoC4/RTC.h **** #define RTC__H0500 5
  73:Generated_Source\PSoC4/RTC.h **** #define RTC__H0600 6
  74:Generated_Source\PSoC4/RTC.h **** #define RTC__H0700 7
  75:Generated_Source\PSoC4/RTC.h **** #define RTC__H0800 8
  76:Generated_Source\PSoC4/RTC.h **** #define RTC__H0900 9
  77:Generated_Source\PSoC4/RTC.h **** #define RTC__H1000 10
  78:Generated_Source\PSoC4/RTC.h **** #define RTC__H1100 11
  79:Generated_Source\PSoC4/RTC.h **** #define RTC__H1200 12
  80:Generated_Source\PSoC4/RTC.h **** #define RTC__H1300 13
  81:Generated_Source\PSoC4/RTC.h **** #define RTC__H1400 14
  82:Generated_Source\PSoC4/RTC.h **** #define RTC__H1500 15
  83:Generated_Source\PSoC4/RTC.h **** #define RTC__H1600 16
  84:Generated_Source\PSoC4/RTC.h **** #define RTC__H1700 17
  85:Generated_Source\PSoC4/RTC.h **** #define RTC__H1800 18
  86:Generated_Source\PSoC4/RTC.h **** #define RTC__H1900 19
  87:Generated_Source\PSoC4/RTC.h **** #define RTC__H2000 20
  88:Generated_Source\PSoC4/RTC.h **** #define RTC__H2100 21
  89:Generated_Source\PSoC4/RTC.h **** #define RTC__H2200 22
  90:Generated_Source\PSoC4/RTC.h **** #define RTC__H2300 23
ARM GAS  C:\Users\Vitali\AppData\Local\Temp\cc2WPJTl.s 			page 3


  91:Generated_Source\PSoC4/RTC.h **** 
  92:Generated_Source\PSoC4/RTC.h **** /* DST DayOfWeek setting constants */
  93:Generated_Source\PSoC4/RTC.h **** #define RTC__SUNDAY 1
  94:Generated_Source\PSoC4/RTC.h **** #define RTC__MONDAY 2
  95:Generated_Source\PSoC4/RTC.h **** #define RTC__TUESDAY 3
  96:Generated_Source\PSoC4/RTC.h **** #define RTC__WEDNESDAY 4
  97:Generated_Source\PSoC4/RTC.h **** #define RTC__THURSDAY 5
  98:Generated_Source\PSoC4/RTC.h **** #define RTC__FRIDAY 6
  99:Generated_Source\PSoC4/RTC.h **** #define RTC__SATURDAY 7
 100:Generated_Source\PSoC4/RTC.h **** 
 101:Generated_Source\PSoC4/RTC.h **** /* DST Month setting constants */
 102:Generated_Source\PSoC4/RTC.h **** #define RTC__JAN 1
 103:Generated_Source\PSoC4/RTC.h **** #define RTC__FEB 2
 104:Generated_Source\PSoC4/RTC.h **** #define RTC__MAR 3
 105:Generated_Source\PSoC4/RTC.h **** #define RTC__APR 4
 106:Generated_Source\PSoC4/RTC.h **** #define RTC__MAY 5
 107:Generated_Source\PSoC4/RTC.h **** #define RTC__JUN 6
 108:Generated_Source\PSoC4/RTC.h **** #define RTC__JUL 7
 109:Generated_Source\PSoC4/RTC.h **** #define RTC__AUG 8
 110:Generated_Source\PSoC4/RTC.h **** #define RTC__SEP 9
 111:Generated_Source\PSoC4/RTC.h **** #define RTC__OCT 10
 112:Generated_Source\PSoC4/RTC.h **** #define RTC__NOV 11
 113:Generated_Source\PSoC4/RTC.h **** #define RTC__DEC 12
 114:Generated_Source\PSoC4/RTC.h **** 
 115:Generated_Source\PSoC4/RTC.h **** /* DST WeekOfMonth setting constants */
 116:Generated_Source\PSoC4/RTC.h **** #define RTC__FIRST 1
 117:Generated_Source\PSoC4/RTC.h **** #define RTC__SECOND 2
 118:Generated_Source\PSoC4/RTC.h **** #define RTC__THIRD 3
 119:Generated_Source\PSoC4/RTC.h **** #define RTC__FOURTH 4
 120:Generated_Source\PSoC4/RTC.h **** #define RTC__FIFTH 5
 121:Generated_Source\PSoC4/RTC.h **** #define RTC__LAST 6
 122:Generated_Source\PSoC4/RTC.h **** 
 123:Generated_Source\PSoC4/RTC.h **** 
 124:Generated_Source\PSoC4/RTC.h **** 
 125:Generated_Source\PSoC4/RTC.h **** #define RTC_INITIAL_DATA_FORMAT     (0u)
 126:Generated_Source\PSoC4/RTC.h **** #define RTC_INITIAL_TIME_FORMAT     (0u)
 127:Generated_Source\PSoC4/RTC.h **** #define RTC_INITIAL_UPDATE_MODE     (0u)
 128:Generated_Source\PSoC4/RTC.h **** #define RTC_INITIAL_SECOND          (27u)
 129:Generated_Source\PSoC4/RTC.h **** #define RTC_INITIAL_MINUTE          (49u)
 130:Generated_Source\PSoC4/RTC.h **** #define RTC_INITIAL_HOUR            (23u)
 131:Generated_Source\PSoC4/RTC.h **** #define RTC_INITIAL_DAY             (22u)
 132:Generated_Source\PSoC4/RTC.h **** #define RTC_INITIAL_MONTH           (11u)
 133:Generated_Source\PSoC4/RTC.h **** #define RTC_INITIAL_YEAR            (2015u)
 134:Generated_Source\PSoC4/RTC.h **** 
 135:Generated_Source\PSoC4/RTC.h **** #define RTC_INITIAL_ALARM_STATUS    (1u)
 136:Generated_Source\PSoC4/RTC.h **** 
 137:Generated_Source\PSoC4/RTC.h **** #define RTC_INITIAL_DST_STATUS      (0u)
 138:Generated_Source\PSoC4/RTC.h **** #define RTC_INITIAL_DST_DATE_TYPE   (0u)
 139:Generated_Source\PSoC4/RTC.h **** #define RTC_INITIAL_DST_START_MONTH (3uL)
 140:Generated_Source\PSoC4/RTC.h **** #define RTC_INITIAL_DST_START_WOM   (6uL)
 141:Generated_Source\PSoC4/RTC.h **** #define RTC_INITIAL_DST_START_DOM   (22uL)
 142:Generated_Source\PSoC4/RTC.h **** #define RTC_INITIAL_DST_START_DOW   (1uL)
 143:Generated_Source\PSoC4/RTC.h **** #define RTC_INITIAL_DST_START_HRS   (0uL)
 144:Generated_Source\PSoC4/RTC.h **** #define RTC_INITIAL_DST_STOP_MONTH  (10uL)
 145:Generated_Source\PSoC4/RTC.h **** #define RTC_INITIAL_DST_STOP_DOM    (22uL)
 146:Generated_Source\PSoC4/RTC.h **** #define RTC_INITIAL_DST_STOP_DOW    (1uL)
 147:Generated_Source\PSoC4/RTC.h **** #define RTC_INITIAL_DST_STOP_WOM    (6uL)
ARM GAS  C:\Users\Vitali\AppData\Local\Temp\cc2WPJTl.s 			page 4


 148:Generated_Source\PSoC4/RTC.h **** #define RTC_INITIAL_DST_STOP_HRS    (0uL)
 149:Generated_Source\PSoC4/RTC.h **** 
 150:Generated_Source\PSoC4/RTC.h **** 
 151:Generated_Source\PSoC4/RTC.h **** /* Day of week definitions */
 152:Generated_Source\PSoC4/RTC.h **** #define RTC_SUNDAY     (RTC__SUNDAY)
 153:Generated_Source\PSoC4/RTC.h **** #define RTC_MONDAY     (RTC__MONDAY)
 154:Generated_Source\PSoC4/RTC.h **** #define RTC_TUESDAY    (RTC__TUESDAY)
 155:Generated_Source\PSoC4/RTC.h **** #define RTC_WEDNESDAY  (RTC__WEDNESDAY)
 156:Generated_Source\PSoC4/RTC.h **** #define RTC_THURSDAY   (RTC__THURSDAY)
 157:Generated_Source\PSoC4/RTC.h **** #define RTC_FRIDAY     (RTC__FRIDAY)
 158:Generated_Source\PSoC4/RTC.h **** #define RTC_SATURDAY   (RTC__SATURDAY)
 159:Generated_Source\PSoC4/RTC.h **** 
 160:Generated_Source\PSoC4/RTC.h **** /* DST WeekOfMonth setting constants definitions */
 161:Generated_Source\PSoC4/RTC.h **** #define RTC_FIRST      (RTC__FIRST)
 162:Generated_Source\PSoC4/RTC.h **** #define RTC_SECOND     (RTC__SECOND)
 163:Generated_Source\PSoC4/RTC.h **** #define RTC_THIRD      (RTC__THIRD)
 164:Generated_Source\PSoC4/RTC.h **** #define RTC_FOURTH     (RTC__FOURTH)
 165:Generated_Source\PSoC4/RTC.h **** #define RTC_FIFTH      (RTC__FIFTH)
 166:Generated_Source\PSoC4/RTC.h **** #define RTC_LAST       (RTC__LAST)
 167:Generated_Source\PSoC4/RTC.h **** 
 168:Generated_Source\PSoC4/RTC.h **** /* Month definitions */
 169:Generated_Source\PSoC4/RTC.h **** #define RTC_JANUARY    (RTC__JAN)
 170:Generated_Source\PSoC4/RTC.h **** #define RTC_FEBRUARY   (RTC__FEB)
 171:Generated_Source\PSoC4/RTC.h **** #define RTC_MARCH      (RTC__MAR)
 172:Generated_Source\PSoC4/RTC.h **** #define RTC_APRIL      (RTC__APR)
 173:Generated_Source\PSoC4/RTC.h **** #define RTC_MAY        (RTC__MAY)
 174:Generated_Source\PSoC4/RTC.h **** #define RTC_JUNE       (RTC__JUN)
 175:Generated_Source\PSoC4/RTC.h **** #define RTC_JULY       (RTC__JUL)
 176:Generated_Source\PSoC4/RTC.h **** #define RTC_AUGUST     (RTC__AUG)
 177:Generated_Source\PSoC4/RTC.h **** #define RTC_SEPTEMBER  (RTC__SEP)
 178:Generated_Source\PSoC4/RTC.h **** #define RTC_OCTOBER    (RTC__OCT)
 179:Generated_Source\PSoC4/RTC.h **** #define RTC_NOVEMBER   (RTC__NOV)
 180:Generated_Source\PSoC4/RTC.h **** #define RTC_DECEMBER   (RTC__DEC)
 181:Generated_Source\PSoC4/RTC.h **** 
 182:Generated_Source\PSoC4/RTC.h **** #define RTC_DAYS_PER_WEEK       (7u)
 183:Generated_Source\PSoC4/RTC.h **** 
 184:Generated_Source\PSoC4/RTC.h **** /* Number of days in month definitions */
 185:Generated_Source\PSoC4/RTC.h **** #define RTC_DAYS_IN_JANUARY     (31u)
 186:Generated_Source\PSoC4/RTC.h **** #define RTC_DAYS_IN_FEBRUARY    (28u)
 187:Generated_Source\PSoC4/RTC.h **** #define RTC_DAYS_IN_MARCH       (31u)
 188:Generated_Source\PSoC4/RTC.h **** #define RTC_DAYS_IN_APRIL       (30u)
 189:Generated_Source\PSoC4/RTC.h **** #define RTC_DAYS_IN_MAY         (31u)
 190:Generated_Source\PSoC4/RTC.h **** #define RTC_DAYS_IN_JUNE        (30u)
 191:Generated_Source\PSoC4/RTC.h **** #define RTC_DAYS_IN_JULY        (31u)
 192:Generated_Source\PSoC4/RTC.h **** #define RTC_DAYS_IN_AUGUST      (31u)
 193:Generated_Source\PSoC4/RTC.h **** #define RTC_DAYS_IN_SEPTEMBER   (30u)
 194:Generated_Source\PSoC4/RTC.h **** #define RTC_DAYS_IN_OCTOBER     (31u)
 195:Generated_Source\PSoC4/RTC.h **** #define RTC_DAYS_IN_NOVEMBER    (30u)
 196:Generated_Source\PSoC4/RTC.h **** #define RTC_DAYS_IN_DECEMBER    (31u)
 197:Generated_Source\PSoC4/RTC.h **** 
 198:Generated_Source\PSoC4/RTC.h **** #define RTC_MONTHS_PER_YEAR     (12uL)
 199:Generated_Source\PSoC4/RTC.h **** 
 200:Generated_Source\PSoC4/RTC.h **** #define RTC_HOURS_PER_DAY       (24uL)
 201:Generated_Source\PSoC4/RTC.h **** #define RTC_HOURS_PER_HALF_DAY  (12uL)
 202:Generated_Source\PSoC4/RTC.h **** 
 203:Generated_Source\PSoC4/RTC.h **** #define RTC_SECONDS_PER_MINUTE  (60uL)
 204:Generated_Source\PSoC4/RTC.h **** #define RTC_SECONDS_PER_HOUR    (3600uL)
ARM GAS  C:\Users\Vitali\AppData\Local\Temp\cc2WPJTl.s 			page 5


 205:Generated_Source\PSoC4/RTC.h **** #define RTC_SECONDS_PER_DAY     (24uL * 3600uL)
 206:Generated_Source\PSoC4/RTC.h **** 
 207:Generated_Source\PSoC4/RTC.h **** #define RTC_SECONDS_PER_LEAP_YEAR    (366uL * 24uL * 3600uL)
 208:Generated_Source\PSoC4/RTC.h **** #define RTC_SECONDS_PER_NONLEAP_YEAR (365uL * 24uL * 3600uL)
 209:Generated_Source\PSoC4/RTC.h **** 
 210:Generated_Source\PSoC4/RTC.h **** #define RTC_UNIX_TIME_PM   ((12uL * 3600uL) + 1uL)
 211:Generated_Source\PSoC4/RTC.h **** 
 212:Generated_Source\PSoC4/RTC.h **** /* AM/PM status definitions */
 213:Generated_Source\PSoC4/RTC.h **** #define RTC_AM                 (0u)
 214:Generated_Source\PSoC4/RTC.h **** #define RTC_PM                 (1u)
 215:Generated_Source\PSoC4/RTC.h **** 
 216:Generated_Source\PSoC4/RTC.h **** /* Time format definitions */
 217:Generated_Source\PSoC4/RTC.h **** #define RTC_12_HOURS_FORMAT    (RTC__HOUR_12)
 218:Generated_Source\PSoC4/RTC.h **** #define RTC_24_HOURS_FORMAT    (RTC__HOUR_24)
 219:Generated_Source\PSoC4/RTC.h **** 
 220:Generated_Source\PSoC4/RTC.h **** /* UNIX time begins in 1970 year.  */
 221:Generated_Source\PSoC4/RTC.h **** #define RTC_YEAR_0             (1970u)
 222:Generated_Source\PSoC4/RTC.h **** 
 223:Generated_Source\PSoC4/RTC.h **** /* Definition of date register fields */
 224:Generated_Source\PSoC4/RTC.h **** #if(RTC_INITIAL_DATA_FORMAT == RTC__MM_DD_YYYY)
 225:Generated_Source\PSoC4/RTC.h ****     #define RTC_10_MONTH_OFFSET   (28u)
 226:Generated_Source\PSoC4/RTC.h ****     #define RTC_MONTH_OFFSET      (24u)
 227:Generated_Source\PSoC4/RTC.h ****     #define RTC_10_DAY_OFFSET     (20u)
 228:Generated_Source\PSoC4/RTC.h ****     #define RTC_DAY_OFFSET        (16u)
 229:Generated_Source\PSoC4/RTC.h ****     #define RTC_1000_YEAR_OFFSET  (12u)
 230:Generated_Source\PSoC4/RTC.h ****     #define RTC_100_YEAR_OFFSET   (8u)
 231:Generated_Source\PSoC4/RTC.h ****     #define RTC_10_YEAR_OFFSET    (4u)
 232:Generated_Source\PSoC4/RTC.h ****     #define RTC_YEAR_OFFSET       (0u)
 233:Generated_Source\PSoC4/RTC.h **** #elif(RTC_INITIAL_DATA_FORMAT == RTC__DD_MM_YYYY)
 234:Generated_Source\PSoC4/RTC.h ****     #define RTC_10_MONTH_OFFSET   (20u)
 235:Generated_Source\PSoC4/RTC.h ****     #define RTC_MONTH_OFFSET      (16u)
 236:Generated_Source\PSoC4/RTC.h ****     #define RTC_10_DAY_OFFSET     (28u)
 237:Generated_Source\PSoC4/RTC.h ****     #define RTC_DAY_OFFSET        (24u)
 238:Generated_Source\PSoC4/RTC.h ****     #define RTC_1000_YEAR_OFFSET  (12u)
 239:Generated_Source\PSoC4/RTC.h ****     #define RTC_100_YEAR_OFFSET   (8u)
 240:Generated_Source\PSoC4/RTC.h ****     #define RTC_10_YEAR_OFFSET    (4u)
 241:Generated_Source\PSoC4/RTC.h ****     #define RTC_YEAR_OFFSET       (0u)
 242:Generated_Source\PSoC4/RTC.h **** #else
 243:Generated_Source\PSoC4/RTC.h ****     #define RTC_10_MONTH_OFFSET   (12u)
 244:Generated_Source\PSoC4/RTC.h ****     #define RTC_MONTH_OFFSET      (8u)
 245:Generated_Source\PSoC4/RTC.h ****     #define RTC_10_DAY_OFFSET     (4u)
 246:Generated_Source\PSoC4/RTC.h ****     #define RTC_DAY_OFFSET        (0u)
 247:Generated_Source\PSoC4/RTC.h ****     #define RTC_1000_YEAR_OFFSET  (28u)
 248:Generated_Source\PSoC4/RTC.h ****     #define RTC_100_YEAR_OFFSET   (24u)
 249:Generated_Source\PSoC4/RTC.h ****     #define RTC_10_YEAR_OFFSET    (20u)
 250:Generated_Source\PSoC4/RTC.h ****     #define RTC_YEAR_OFFSET       (16u)
 251:Generated_Source\PSoC4/RTC.h **** #endif /* (RTC_INITIAL_DATA_FORMAT == RTC__MM_DD_YYYY) */
 252:Generated_Source\PSoC4/RTC.h **** 
 253:Generated_Source\PSoC4/RTC.h **** #define RTC_10_MONTH_MASK          (0x00000001uL << RTC_10_MONTH_OFFSET)
 254:Generated_Source\PSoC4/RTC.h **** #define RTC_MONTH_MASK             (0x0000000FuL << RTC_MONTH_OFFSET)
 255:Generated_Source\PSoC4/RTC.h **** #define RTC_10_DAY_MASK            (0x00000003uL << RTC_10_DAY_OFFSET)
 256:Generated_Source\PSoC4/RTC.h **** #define RTC_DAY_MASK               (0x0000000FuL << RTC_DAY_OFFSET)
 257:Generated_Source\PSoC4/RTC.h **** #define RTC_1000_YEAR_MASK         (0x00000003uL << RTC_1000_YEAR_OFFSET)
 258:Generated_Source\PSoC4/RTC.h **** #define RTC_100_YEAR_MASK          (0x0000000FuL << RTC_100_YEAR_OFFSET)
 259:Generated_Source\PSoC4/RTC.h **** #define RTC_10_YEAR_MASK           (0x0000000FuL << RTC_10_YEAR_OFFSET)
 260:Generated_Source\PSoC4/RTC.h **** #define RTC_YEAR_MASK              (0x0000000FuL << RTC_YEAR_OFFSET)
 261:Generated_Source\PSoC4/RTC.h **** 
ARM GAS  C:\Users\Vitali\AppData\Local\Temp\cc2WPJTl.s 			page 6


 262:Generated_Source\PSoC4/RTC.h **** #define  RTC_MONTH_FULL_MASK       (RTC_10_MONTH_MASK  | RTC_MONTH_MASK)
 263:Generated_Source\PSoC4/RTC.h **** #define  RTC_DAY_FULL_MASK         (RTC_10_DAY_MASK    | RTC_DAY_MASK)
 264:Generated_Source\PSoC4/RTC.h **** #define  RTC_YEAR_FULL_MASK        (RTC_1000_YEAR_MASK | RTC_100_YEAR_MASK |\
 265:Generated_Source\PSoC4/RTC.h ****                                                  RTC_10_YEAR_MASK   | RTC_YEAR_MASK)
 266:Generated_Source\PSoC4/RTC.h **** 
 267:Generated_Source\PSoC4/RTC.h **** 
 268:Generated_Source\PSoC4/RTC.h **** /* Definition of time register fields */
 269:Generated_Source\PSoC4/RTC.h **** #define RTC_TIME_FORMAT_OFFSET     (23u)
 270:Generated_Source\PSoC4/RTC.h **** #define RTC_PERIOD_OF_DAY_OFFSET   (22u)
 271:Generated_Source\PSoC4/RTC.h **** #define RTC_10_HOURS_OFFSET        (20u)
 272:Generated_Source\PSoC4/RTC.h **** #define RTC_HOURS_OFFSET           (16u)
 273:Generated_Source\PSoC4/RTC.h **** #define RTC_10_MINUTES_OFFSET      (12u)
 274:Generated_Source\PSoC4/RTC.h **** #define RTC_MINUTES_OFFSET         (8u)
 275:Generated_Source\PSoC4/RTC.h **** #define RTC_10_SECONDS_OFFSET      (4u)
 276:Generated_Source\PSoC4/RTC.h **** #define RTC_SECONDS_OFFSET         (0u)
 277:Generated_Source\PSoC4/RTC.h **** 
 278:Generated_Source\PSoC4/RTC.h **** #define RTC_TIME_FORMAT_MASK       (0x00000001uL << RTC_TIME_FORMAT_OFFSET)
 279:Generated_Source\PSoC4/RTC.h **** #define RTC_PERIOD_OF_DAY_MASK     (0x00000001uL << RTC_PERIOD_OF_DAY_OFFSET)
 280:Generated_Source\PSoC4/RTC.h **** #define RTC_10_HOURS_MASK          (0x00000003uL << RTC_10_HOURS_OFFSET)
 281:Generated_Source\PSoC4/RTC.h **** #define RTC_HOURS_MASK             (0x0000000FuL << RTC_HOURS_OFFSET)
 282:Generated_Source\PSoC4/RTC.h **** #define RTC_10_MINUTES_MASK        (0x00000007uL << RTC_10_MINUTES_OFFSET)
 283:Generated_Source\PSoC4/RTC.h **** #define RTC_MINUTES_MASK           (0x0000000FuL << RTC_MINUTES_OFFSET)
 284:Generated_Source\PSoC4/RTC.h **** #define RTC_10_SECONDS_MASK        (0x00000007uL << RTC_10_SECONDS_OFFSET)
 285:Generated_Source\PSoC4/RTC.h **** #define RTC_SECONDS_MASK           (0x0000000FuL << RTC_SECONDS_OFFSET)
 286:Generated_Source\PSoC4/RTC.h **** 
 287:Generated_Source\PSoC4/RTC.h **** #define RTC_HOURS_FULL_MASK        (RTC_10_HOURS_MASK   | RTC_HOURS_MASK)
 288:Generated_Source\PSoC4/RTC.h **** #define RTC_MINUTES_FULL_MASK      (RTC_10_MINUTES_MASK | RTC_MINUTES_MASK)
 289:Generated_Source\PSoC4/RTC.h **** #define RTC_SECONDS_FULL_MASK      (RTC_10_SECONDS_MASK | RTC_SECONDS_MASK)
 290:Generated_Source\PSoC4/RTC.h **** 
 291:Generated_Source\PSoC4/RTC.h **** #define RTC_ALARM_SEC_MASK         (0x00000001uL)
 292:Generated_Source\PSoC4/RTC.h **** #define RTC_ALARM_MIN_MASK         (0x00000002uL)
 293:Generated_Source\PSoC4/RTC.h **** #define RTC_ALARM_HOUR_MASK        (0x00000004uL)
 294:Generated_Source\PSoC4/RTC.h **** #define RTC_ALARM_DAYOFWEEK_MASK   (0x00000008uL)
 295:Generated_Source\PSoC4/RTC.h **** #define RTC_ALARM_DAYOFMONTH_MASK  (0x00000010uL)
 296:Generated_Source\PSoC4/RTC.h **** #define RTC_ALARM_MONTH_MASK       (0x00000020uL)
 297:Generated_Source\PSoC4/RTC.h **** #define RTC_ALARM_YEAR_MASK        (0x00000040uL)
 298:Generated_Source\PSoC4/RTC.h **** 
 299:Generated_Source\PSoC4/RTC.h **** #define RTC_STATUS_DST_OFFSET      (1u)
 300:Generated_Source\PSoC4/RTC.h **** #define RTC_STATUS_ALARM_OFFSET    (2u)
 301:Generated_Source\PSoC4/RTC.h **** #define RTC_STATUS_LY_OFFSET       (3u)
 302:Generated_Source\PSoC4/RTC.h **** #define RTC_STATUS_AM_PM_OFFSET    (4u)
 303:Generated_Source\PSoC4/RTC.h **** 
 304:Generated_Source\PSoC4/RTC.h **** /* Definition of the RTC status values. */
 305:Generated_Source\PSoC4/RTC.h **** #define RTC_STATUS_DST             (1uL << RTC_STATUS_DST_OFFSET)
 306:Generated_Source\PSoC4/RTC.h **** #define RTC_STATUS_LY              (1uL << RTC_STATUS_LY_OFFSET)
 307:Generated_Source\PSoC4/RTC.h **** #define RTC_STATUS_AM_PM           (1uL << RTC_STATUS_AM_PM_OFFSET)
 308:Generated_Source\PSoC4/RTC.h **** 
 309:Generated_Source\PSoC4/RTC.h **** /* Number of bits per one BCD digit. */
 310:Generated_Source\PSoC4/RTC.h **** #define RTC_BCD_NUMBER_SIZE        (4u)
 311:Generated_Source\PSoC4/RTC.h **** #define RTC_BCD_ONE_DIGIT_MASK     (0x0000000FuL)
 312:Generated_Source\PSoC4/RTC.h **** 
 313:Generated_Source\PSoC4/RTC.h **** /***************************************
 314:Generated_Source\PSoC4/RTC.h **** *    Function Prototypes
 315:Generated_Source\PSoC4/RTC.h **** ***************************************/
 316:Generated_Source\PSoC4/RTC.h **** void   RTC_Start(void);
 317:Generated_Source\PSoC4/RTC.h **** void   RTC_Stop(void);
 318:Generated_Source\PSoC4/RTC.h **** void   RTC_Init(void);
ARM GAS  C:\Users\Vitali\AppData\Local\Temp\cc2WPJTl.s 			page 7


 319:Generated_Source\PSoC4/RTC.h **** void   RTC_SetUnixTime(uint64 unixTime);
 320:Generated_Source\PSoC4/RTC.h **** uint64 RTC_GetUnixTime(void);
 321:Generated_Source\PSoC4/RTC.h **** void   RTC_SetPeriod(uint32 ticks, uint32 refOneSecTicks);
 322:Generated_Source\PSoC4/RTC.h **** uint32 RTC_GetPeriod(void);
 323:Generated_Source\PSoC4/RTC.h **** uint32 RTC_GetRefOneSec(void);
 324:Generated_Source\PSoC4/RTC.h **** void   RTC_SetDateAndTime(uint32 inputTime, uint32 inputDate);
 325:Generated_Source\PSoC4/RTC.h **** void   RTC_GetDateAndTime(RTC_DATE_TIME* dateTime);
 326:Generated_Source\PSoC4/RTC.h **** uint32 RTC_GetTime(void);
 327:Generated_Source\PSoC4/RTC.h **** uint32 RTC_GetDate(void);
 328:Generated_Source\PSoC4/RTC.h **** void   RTC_SetAlarmDateAndTime(const RTC_DATE_TIME* alarmTime);
 329:Generated_Source\PSoC4/RTC.h **** void   RTC_GetAlarmDateAndTime(RTC_DATE_TIME* alarmTimeDate);
 330:Generated_Source\PSoC4/RTC.h **** void   RTC_SetAlarmMask(uint32 mask);
 331:Generated_Source\PSoC4/RTC.h **** uint32 RTC_GetAlarmMask(void);
 332:Generated_Source\PSoC4/RTC.h **** uint32 RTC_ReadStatus(void);
 333:Generated_Source\PSoC4/RTC.h **** uint32 RTC_GetAlarmStatus(void);
 334:Generated_Source\PSoC4/RTC.h **** void   RTC_ClearAlarmStatus(void);
 335:Generated_Source\PSoC4/RTC.h **** void   RTC_SetDSTStartTime(const RTC_DST_TIME* dstStartTime,
 336:Generated_Source\PSoC4/RTC.h ****                                               RTC_DST_DATETYPE_ENUM type);
 337:Generated_Source\PSoC4/RTC.h **** void   RTC_SetDSTStopTime(const RTC_DST_TIME* dstStopTime,
 338:Generated_Source\PSoC4/RTC.h ****                                              RTC_DST_DATETYPE_ENUM type);
 339:Generated_Source\PSoC4/RTC.h **** uint32 RTC_ConvertBCDToDec(uint32 bcdNum);
 340:Generated_Source\PSoC4/RTC.h **** uint32 RTC_ConvertDecToBCD(uint32 decNum);
 341:Generated_Source\PSoC4/RTC.h **** void   RTC_Update(void);
 342:Generated_Source\PSoC4/RTC.h **** void*  RTC_SetAlarmHandler(void (*CallbackFunction)(void));
 343:Generated_Source\PSoC4/RTC.h **** 
 344:Generated_Source\PSoC4/RTC.h **** static uint32 RTC_ConstructDate(uint32 month, uint32 day, uint32 year);
 345:Generated_Source\PSoC4/RTC.h **** static uint32 RTC_ConstructTime(uint32 timeFormat, uint32 stateAmPm, uint32 hour, uint32 min, uint3
 346:Generated_Source\PSoC4/RTC.h **** 
 347:Generated_Source\PSoC4/RTC.h **** static uint32 RTC_GetTimeFormat(uint32 inputTime);
 348:Generated_Source\PSoC4/RTC.h **** static uint32 RTC_SetTimeFormat(uint32 inputTime, uint32 timeFormat);
 349:Generated_Source\PSoC4/RTC.h **** 
 350:Generated_Source\PSoC4/RTC.h **** static uint32 RTC_LeapYear(uint32 year);
 351:Generated_Source\PSoC4/RTC.h **** static uint32 RTC_IsBitSet(uint32 var, uint32 mask);
 352:Generated_Source\PSoC4/RTC.h **** static uint32 RTC_GetSecond(uint32 inputTime);
 353:Generated_Source\PSoC4/RTC.h **** static uint32 RTC_GetMinutes(uint32 inputTime);
 354:Generated_Source\PSoC4/RTC.h **** static uint32 RTC_GetHours(uint32 inputTime);
 355:Generated_Source\PSoC4/RTC.h **** static uint32 RTC_GetAmPm(uint32 inputTime);
 356:Generated_Source\PSoC4/RTC.h **** static uint32 RTC_GetDay(uint32 date);
 357:Generated_Source\PSoC4/RTC.h **** static uint32 RTC_GetMonth(uint32 date);
 358:Generated_Source\PSoC4/RTC.h **** static uint32 RTC_GetYear(uint32 date);
 359:Generated_Source\PSoC4/RTC.h **** 
 360:Generated_Source\PSoC4/RTC.h **** static uint32 RTC_SetSecond(uint32 inputTime, uint32 inputSecond);
 361:Generated_Source\PSoC4/RTC.h **** static uint32 RTC_SetMinutes(uint32 inputTime, uint32 inputMinute);
 362:Generated_Source\PSoC4/RTC.h **** static uint32 RTC_SetHours(uint32 inputTime, uint32 inputHours);
 363:Generated_Source\PSoC4/RTC.h **** static uint32 RTC_SetAmPm(uint32 inputTime, uint32 periodOfDay);
 364:Generated_Source\PSoC4/RTC.h **** static uint32 RTC_SetDay(uint32 inputDate, uint32 inputDay);
 365:Generated_Source\PSoC4/RTC.h **** static uint32 RTC_SetMonth(uint32 inputDate, uint32 inputMonth);
 366:Generated_Source\PSoC4/RTC.h **** static uint32 RTC_SetYear(uint32 inputDate, uint32 inputYear);
 367:Generated_Source\PSoC4/RTC.h **** 
 368:Generated_Source\PSoC4/RTC.h **** uint64 RTC_ConstructUnixAlarmTime(const RTC_DATE_TIME* alarmTime, uint8 alarmCfgMask);
 369:Generated_Source\PSoC4/RTC.h **** uint64 RTC_GetDstUnixTime(const RTC_DST_TIME* dstTime);
 370:Generated_Source\PSoC4/RTC.h **** uint64 RTC_GetNexAlarmTime(uint64 curUnixTime, uint8 alarmCfgMask);
 371:Generated_Source\PSoC4/RTC.h **** 
 372:Generated_Source\PSoC4/RTC.h **** static uint32 RTC_GetNextMinSec(uint32 curVal);
 373:Generated_Source\PSoC4/RTC.h **** static uint32 RTC_GetNextHour(uint32 curVal);
 374:Generated_Source\PSoC4/RTC.h **** static uint32 RTC_GetNextDay(uint32 curYear, uint32 curMonth, uint32 curDay, uint32 alarmCfgMask);
 375:Generated_Source\PSoC4/RTC.h **** static uint32 RTC_GetNextMonth(uint32 curMonth);
ARM GAS  C:\Users\Vitali\AppData\Local\Temp\cc2WPJTl.s 			page 8


 376:Generated_Source\PSoC4/RTC.h **** static uint32 RTC_GetNextYear(uint32 curYear);
 377:Generated_Source\PSoC4/RTC.h **** static uint32 RTC_GetDayOfWeek(uint32 day, uint32 month, uint32 year);
 378:Generated_Source\PSoC4/RTC.h **** 
 379:Generated_Source\PSoC4/RTC.h **** uint32 RTC_DaysInMonth(uint32 month, uint32 year);
 380:Generated_Source\PSoC4/RTC.h **** uint32 RTC_DaysBeforeMonth(uint32 month, uint32 year);
 381:Generated_Source\PSoC4/RTC.h **** 
 382:Generated_Source\PSoC4/RTC.h **** void   RTC_UnixToDateTime(RTC_DATE_TIME* dateTime, uint64 unixTime, uint32 timeFormat);
 383:Generated_Source\PSoC4/RTC.h **** uint64 RTC_DateTimeToUnix(uint32 inputDate, uint32 inputTime);
 384:Generated_Source\PSoC4/RTC.h **** uint32 RTC_RelativeToFixed(uint32 dayOfWeek, uint32 weekOfMonth, uint32 month, uint32 year);
 385:Generated_Source\PSoC4/RTC.h **** 
 386:Generated_Source\PSoC4/RTC.h **** #if defined(CYDEV_RTC_SOURCE_WDT)
 387:Generated_Source\PSoC4/RTC.h ****     #if((0u != CYDEV_WDT_GENERATE_ISR) && (0u == RTC_INITIAL_UPDATE_MODE))
 388:Generated_Source\PSoC4/RTC.h ****         static void RTC_CySysRtcSetCallback(uint32 wdtNumber);
 389:Generated_Source\PSoC4/RTC.h ****         static void RTC_CySysRtcResetCallback(uint32 wdtNumber);
 390:Generated_Source\PSoC4/RTC.h ****     #endif /* ((0u != CYDEV_WDT_GENERATE_ISR) && (0u == RTC_INITIAL_UPDATE_MODE)) */
 391:Generated_Source\PSoC4/RTC.h **** #endif /* (CYDEV_RTC_SOURCE_WDT) */
 392:Generated_Source\PSoC4/RTC.h **** 
 393:Generated_Source\PSoC4/RTC.h **** /*******************************************************************************
 394:Generated_Source\PSoC4/RTC.h **** * Function Name: RTC_IsBitSet
 395:Generated_Source\PSoC4/RTC.h **** ********************************************************************************
 396:Generated_Source\PSoC4/RTC.h **** *
 397:Generated_Source\PSoC4/RTC.h **** * Summary:
 398:Generated_Source\PSoC4/RTC.h **** *  Checks the state of a bit passed through parameter.
 399:Generated_Source\PSoC4/RTC.h **** *
 400:Generated_Source\PSoC4/RTC.h **** * Parameters:
 401:Generated_Source\PSoC4/RTC.h **** *  var:    The variable to be checked.
 402:Generated_Source\PSoC4/RTC.h **** *  mask:   The mask for a bit to be checked.
 403:Generated_Source\PSoC4/RTC.h **** *
 404:Generated_Source\PSoC4/RTC.h **** * Return:
 405:Generated_Source\PSoC4/RTC.h **** *  0u - Bit is not set.
 406:Generated_Source\PSoC4/RTC.h **** *  1u - Bit is set.
 407:Generated_Source\PSoC4/RTC.h **** *
 408:Generated_Source\PSoC4/RTC.h **** *******************************************************************************/
 409:Generated_Source\PSoC4/RTC.h **** static CY_INLINE uint32 RTC_IsBitSet(uint32 var, uint32 mask)
 410:Generated_Source\PSoC4/RTC.h **** {
 411:Generated_Source\PSoC4/RTC.h ****     return ((mask == (var & mask)) ? 1Lu : 0Lu);
 412:Generated_Source\PSoC4/RTC.h **** }
 413:Generated_Source\PSoC4/RTC.h **** 
 414:Generated_Source\PSoC4/RTC.h **** 
 415:Generated_Source\PSoC4/RTC.h **** /*******************************************************************************
 416:Generated_Source\PSoC4/RTC.h **** * Function Name: RTC_LeapYear
 417:Generated_Source\PSoC4/RTC.h **** ********************************************************************************
 418:Generated_Source\PSoC4/RTC.h **** *
 419:Generated_Source\PSoC4/RTC.h **** * Summary:
 420:Generated_Source\PSoC4/RTC.h **** * Checks whether the year passed through the parameter is
 421:Generated_Source\PSoC4/RTC.h **** * leap or no.
 422:Generated_Source\PSoC4/RTC.h **** *
 423:Generated_Source\PSoC4/RTC.h **** * Parameters:
 424:Generated_Source\PSoC4/RTC.h **** *  year: The year to be checked.
 425:Generated_Source\PSoC4/RTC.h **** *
 426:Generated_Source\PSoC4/RTC.h **** *
 427:Generated_Source\PSoC4/RTC.h **** * Return:
 428:Generated_Source\PSoC4/RTC.h **** *  0u - The year is not leap.
 429:Generated_Source\PSoC4/RTC.h **** *  1u - The year is leap.
 430:Generated_Source\PSoC4/RTC.h **** *
 431:Generated_Source\PSoC4/RTC.h **** *******************************************************************************/
 432:Generated_Source\PSoC4/RTC.h **** static CY_INLINE uint32 RTC_LeapYear(uint32 year)
ARM GAS  C:\Users\Vitali\AppData\Local\Temp\cc2WPJTl.s 			page 9


 433:Generated_Source\PSoC4/RTC.h **** {
 434:Generated_Source\PSoC4/RTC.h ****     uint32 retVal;
 435:Generated_Source\PSoC4/RTC.h **** 
 436:Generated_Source\PSoC4/RTC.h ****     if(((0u == (year % 4Lu)) && (0u != (year % 100Lu))) || (0u == (year % 400Lu)))
 437:Generated_Source\PSoC4/RTC.h ****     {
 438:Generated_Source\PSoC4/RTC.h ****         retVal = 1uL;
 439:Generated_Source\PSoC4/RTC.h ****     }
 440:Generated_Source\PSoC4/RTC.h ****     else
 441:Generated_Source\PSoC4/RTC.h ****     {
 442:Generated_Source\PSoC4/RTC.h ****         retVal = 0uL;
 443:Generated_Source\PSoC4/RTC.h ****     }
 444:Generated_Source\PSoC4/RTC.h **** 
 445:Generated_Source\PSoC4/RTC.h ****     return(retVal);
 446:Generated_Source\PSoC4/RTC.h **** }
 447:Generated_Source\PSoC4/RTC.h **** 
 448:Generated_Source\PSoC4/RTC.h **** 
 449:Generated_Source\PSoC4/RTC.h **** /*******************************************************************************
 450:Generated_Source\PSoC4/RTC.h **** * Function Name: RTC_GetSecond
 451:Generated_Source\PSoC4/RTC.h **** ********************************************************************************
 452:Generated_Source\PSoC4/RTC.h **** *
 453:Generated_Source\PSoC4/RTC.h **** * Summary:
 454:Generated_Source\PSoC4/RTC.h **** *  Returns the seconds value from the time value that is passed as a/the parameter.
 455:Generated_Source\PSoC4/RTC.h **** *
 456:Generated_Source\PSoC4/RTC.h **** * Parameters:
 457:Generated_Source\PSoC4/RTC.h **** *  time: The time value.
 458:Generated_Source\PSoC4/RTC.h **** *
 459:Generated_Source\PSoC4/RTC.h **** * Return:
 460:Generated_Source\PSoC4/RTC.h **** *  The seconds value.
 461:Generated_Source\PSoC4/RTC.h **** *
 462:Generated_Source\PSoC4/RTC.h **** *******************************************************************************/
 463:Generated_Source\PSoC4/RTC.h **** static CY_INLINE uint32 RTC_GetSecond(uint32 inputTime)
 464:Generated_Source\PSoC4/RTC.h **** {
  25              		.loc 1 464 0
  26              		.cfi_startproc
  27              	.LVL0:
 465:Generated_Source\PSoC4/RTC.h ****     uint32 retVal;
 466:Generated_Source\PSoC4/RTC.h **** 
 467:Generated_Source\PSoC4/RTC.h ****     retVal  = ((inputTime & RTC_10_SECONDS_MASK) >> RTC_10_SECONDS_OFFSET) * 10u;
  28              		.loc 1 467 0
  29 0000 0A23     		mov	r3, #10
  30 0002 4206     		lsl	r2, r0, #25
  31 0004 520F     		lsr	r2, r2, #29
  32 0006 5A43     		mul	r2, r3
  33              	.LVL1:
 468:Generated_Source\PSoC4/RTC.h ****     retVal += (inputTime & RTC_SECONDS_MASK) >> RTC_SECONDS_OFFSET;
  34              		.loc 1 468 0
  35 0008 0533     		add	r3, r3, #5
  36 000a 1840     		and	r0, r3
  37              	.LVL2:
  38 000c 1018     		add	r0, r2, r0
 469:Generated_Source\PSoC4/RTC.h **** 
 470:Generated_Source\PSoC4/RTC.h ****     return (retVal);
 471:Generated_Source\PSoC4/RTC.h **** }
  39              		.loc 1 471 0
  40              		@ sp needed
  41 000e 7047     		bx	lr
  42              		.cfi_endproc
ARM GAS  C:\Users\Vitali\AppData\Local\Temp\cc2WPJTl.s 			page 10


  43              	.LFE2:
  44              		.size	RTC_GetSecond, .-RTC_GetSecond
  45              		.section	.text.RTC_GetMinutes,"ax",%progbits
  46              		.align	1
  47              		.code	16
  48              		.thumb_func
  49              		.type	RTC_GetMinutes, %function
  50              	RTC_GetMinutes:
  51              	.LFB3:
 472:Generated_Source\PSoC4/RTC.h **** 
 473:Generated_Source\PSoC4/RTC.h **** 
 474:Generated_Source\PSoC4/RTC.h **** /*******************************************************************************
 475:Generated_Source\PSoC4/RTC.h **** * Function Name: RTC_GetMinutes
 476:Generated_Source\PSoC4/RTC.h **** ********************************************************************************
 477:Generated_Source\PSoC4/RTC.h **** *
 478:Generated_Source\PSoC4/RTC.h **** * Summary:
 479:Generated_Source\PSoC4/RTC.h **** *  Returns the minutes value from the time value that is passed as a/the parameter.
 480:Generated_Source\PSoC4/RTC.h **** *
 481:Generated_Source\PSoC4/RTC.h **** * Parameters:
 482:Generated_Source\PSoC4/RTC.h **** *  time: The time value.
 483:Generated_Source\PSoC4/RTC.h **** *
 484:Generated_Source\PSoC4/RTC.h **** * Return:
 485:Generated_Source\PSoC4/RTC.h **** *  The minutes value.
 486:Generated_Source\PSoC4/RTC.h **** *
 487:Generated_Source\PSoC4/RTC.h **** *******************************************************************************/
 488:Generated_Source\PSoC4/RTC.h **** static CY_INLINE uint32 RTC_GetMinutes(uint32 inputTime)
 489:Generated_Source\PSoC4/RTC.h **** {
  52              		.loc 1 489 0
  53              		.cfi_startproc
  54              	.LVL3:
 490:Generated_Source\PSoC4/RTC.h ****     uint32 retVal;
 491:Generated_Source\PSoC4/RTC.h **** 
 492:Generated_Source\PSoC4/RTC.h ****     retVal  = ((inputTime & RTC_10_MINUTES_MASK) >> RTC_10_MINUTES_OFFSET) * 10u;
  55              		.loc 1 492 0
  56 0000 0A22     		mov	r2, #10
  57 0002 4304     		lsl	r3, r0, #17
  58 0004 5B0F     		lsr	r3, r3, #29
  59 0006 5343     		mul	r3, r2
  60              	.LVL4:
 493:Generated_Source\PSoC4/RTC.h ****     retVal += (inputTime & RTC_MINUTES_MASK) >> RTC_MINUTES_OFFSET;
  61              		.loc 1 493 0
  62 0008 0005     		lsl	r0, r0, #20
  63              	.LVL5:
  64 000a 000F     		lsr	r0, r0, #28
  65 000c 1818     		add	r0, r3, r0
 494:Generated_Source\PSoC4/RTC.h **** 
 495:Generated_Source\PSoC4/RTC.h ****     return (retVal);
 496:Generated_Source\PSoC4/RTC.h **** }
  66              		.loc 1 496 0
  67              		@ sp needed
  68 000e 7047     		bx	lr
  69              		.cfi_endproc
  70              	.LFE3:
  71              		.size	RTC_GetMinutes, .-RTC_GetMinutes
  72              		.section	.text.WaitPowerStab,"ax",%progbits
  73              		.align	1
  74              		.global	WaitPowerStab
ARM GAS  C:\Users\Vitali\AppData\Local\Temp\cc2WPJTl.s 			page 11


  75              		.code	16
  76              		.thumb_func
  77              		.type	WaitPowerStab, %function
  78              	WaitPowerStab:
  79              	.LFB62:
  80              		.file 2 ".\\main.c"
   1:.\main.c      **** /* ========================================
   2:.\main.c      ****  *
   3:.\main.c      ****  * Copyright YOUR COMPANY, THE YEAR
   4:.\main.c      ****  * All Rights Reserved
   5:.\main.c      ****  * UNPUBLISHED, LICENSED SOFTWARE.
   6:.\main.c      ****  *
   7:.\main.c      ****  * CONFIDENTIAL AND PROPRIETARY INFORMATION
   8:.\main.c      ****  * WHICH IS THE PROPERTY OF your company.
   9:.\main.c      ****  *
  10:.\main.c      ****  * ========================================
  11:.\main.c      **** */
  12:.\main.c      **** #include <project.h>
  13:.\main.c      **** #include "OPT3001.h"
  14:.\main.c      **** #include "WS0010.h"
  15:.\main.c      **** #include "TaskDispatcher.h"
  16:.\main.c      **** #include <string.h>
  17:.\main.c      **** #include <stdio.h>
  18:.\main.c      **** 
  19:.\main.c      **** typedef struct
  20:.\main.c      **** {
  21:.\main.c      ****     uint8 DisplayCursor;
  22:.\main.c      ****     uint32 Lux;
  23:.\main.c      ****     uint8 OPT_Status;
  24:.\main.c      ****     uint16 Max_Bright;
  25:.\main.c      ****     uint16 Min_Bright;
  26:.\main.c      **** 	uint8 BLE_Status;
  27:.\main.c      **** 	uint8 Lamp_Status;
  28:.\main.c      **** 	uint8 OS_Status;
  29:.\main.c      **** }MyStruct;
  30:.\main.c      **** volatile MyStruct GlobalStruct;
  31:.\main.c      **** 
  32:.\main.c      **** typedef struct
  33:.\main.c      **** {
  34:.\main.c      ****     uint32 Time;
  35:.\main.c      **** }TimeType;
  36:.\main.c      **** volatile TimeType TimeStruct;
  37:.\main.c      **** RTC_DATE_TIME AlarmTime;
  38:.\main.c      **** //volatile char Main_Display_Buf[4][21];
  39:.\main.c      **** 
  40:.\main.c      **** 
  41:.\main.c      **** 
  42:.\main.c      **** 
  43:.\main.c      **** void Check_Boot()
  44:.\main.c      **** {
  45:.\main.c      ****     if(Bootloader_En_Read() == 0)
  46:.\main.c      ****     {
  47:.\main.c      ****         Bootloadable_Load();
  48:.\main.c      ****     }
  49:.\main.c      **** }
  50:.\main.c      **** 
  51:.\main.c      **** void Check_OPT()
ARM GAS  C:\Users\Vitali\AppData\Local\Temp\cc2WPJTl.s 			page 12


  52:.\main.c      **** {
  53:.\main.c      ****     uint16 Manufacturer, Device;
  54:.\main.c      ****     uint8 Status;
  55:.\main.c      ****     
  56:.\main.c      ****     Status = I2C_ReadRegister(OPT3001_I2C_ADDRESS, REG_DEVICE_ID, &Device);
  57:.\main.c      ****     
  58:.\main.c      ****     if(Status == 0)
  59:.\main.c      ****     {
  60:.\main.c      ****         Add_To_DDR("Optic Error");
  61:.\main.c      ****         return;
  62:.\main.c      ****         I2C_I2C_MSTR_ERR_LB_NAK;
  63:.\main.c      ****         I2C_I2C_MSTR_ERR_ARB_LOST;
  64:.\main.c      ****     }
  65:.\main.c      ****     
  66:.\main.c      ****     Status = I2C_ReadRegister(OPT3001_I2C_ADDRESS, REG_MANUFACTURER_ID, &Manufacturer);
  67:.\main.c      ****     
  68:.\main.c      ****     if(Status == 0)
  69:.\main.c      ****     {
  70:.\main.c      ****         Add_To_DDR("Optic Error");
  71:.\main.c      ****         return;
  72:.\main.c      ****     }
  73:.\main.c      ****     
  74:.\main.c      ****     if((Manufacturer == 0x5449) && (Device == 0x3001))
  75:.\main.c      ****     {
  76:.\main.c      ****         Add_To_DDR("Optic OK");
  77:.\main.c      ****         Add_To_DDR("Device OPT3001 EN");
  78:.\main.c      ****         Print_DDR();
  79:.\main.c      ****         return;
  80:.\main.c      ****     }              
  81:.\main.c      ****     return;
  82:.\main.c      **** }
  83:.\main.c      **** 
  84:.\main.c      **** 
  85:.\main.c      **** void Start_Display()
  86:.\main.c      **** {
  87:.\main.c      ****     SetTimerTask(Check_OPT, 10);
  88:.\main.c      ****     LCD_WS0010Start();
  89:.\main.c      ****     Add_To_DDR("OS Start");
  90:.\main.c      ****     Print_DDR();
  91:.\main.c      **** }
  92:.\main.c      **** 
  93:.\main.c      **** void WaitPowerStab()
  94:.\main.c      **** {
  81              		.loc 2 94 0
  82              		.cfi_startproc
  95:.\main.c      ****    SetTimerTask(Start_Display, 1000);
  83              		.loc 2 95 0
  84 0000 FA21     		mov	r1, #250
  94:.\main.c      ****    SetTimerTask(Start_Display, 1000);
  85              		.loc 2 94 0
  86 0002 08B5     		push	{r3, lr}
  87              		.cfi_def_cfa_offset 8
  88              		.cfi_offset 3, -8
  89              		.cfi_offset 14, -4
  90              		.loc 2 95 0
  91 0004 0248     		ldr	r0, .L4
  92 0006 8900     		lsl	r1, r1, #2
ARM GAS  C:\Users\Vitali\AppData\Local\Temp\cc2WPJTl.s 			page 13


  93 0008 FFF7FEFF 		bl	SetTimerTask
  94              	.LVL6:
  96:.\main.c      **** }
  95              		.loc 2 96 0
  96              		@ sp needed
  97 000c 08BD     		pop	{r3, pc}
  98              	.L5:
  99 000e C046     		.align	2
 100              	.L4:
 101 0010 00000000 		.word	Start_Display
 102              		.cfi_endproc
 103              	.LFE62:
 104              		.size	WaitPowerStab, .-WaitPowerStab
 105              		.section	.text.Start_Display,"ax",%progbits
 106              		.align	1
 107              		.global	Start_Display
 108              		.code	16
 109              		.thumb_func
 110              		.type	Start_Display, %function
 111              	Start_Display:
 112              	.LFB61:
  86:.\main.c      ****     SetTimerTask(Check_OPT, 10);
 113              		.loc 2 86 0
 114              		.cfi_startproc
 115 0000 08B5     		push	{r3, lr}
 116              		.cfi_def_cfa_offset 8
 117              		.cfi_offset 3, -8
 118              		.cfi_offset 14, -4
  87:.\main.c      ****     LCD_WS0010Start();
 119              		.loc 2 87 0
 120 0002 0A21     		mov	r1, #10
 121 0004 0548     		ldr	r0, .L7
 122 0006 FFF7FEFF 		bl	SetTimerTask
 123              	.LVL7:
  88:.\main.c      ****     Add_To_DDR("OS Start");
 124              		.loc 2 88 0
 125 000a FFF7FEFF 		bl	LCD_WS0010Start
 126              	.LVL8:
  89:.\main.c      ****     Print_DDR();
 127              		.loc 2 89 0
 128 000e 0448     		ldr	r0, .L7+4
 129 0010 FFF7FEFF 		bl	Add_To_DDR
 130              	.LVL9:
  91:.\main.c      **** 
 131              		.loc 2 91 0
 132              		@ sp needed
  90:.\main.c      **** }
 133              		.loc 2 90 0
 134 0014 FFF7FEFF 		bl	Print_DDR
 135              	.LVL10:
  91:.\main.c      **** 
 136              		.loc 2 91 0
 137 0018 08BD     		pop	{r3, pc}
 138              	.L8:
 139 001a C046     		.align	2
 140              	.L7:
 141 001c 00000000 		.word	Check_OPT
ARM GAS  C:\Users\Vitali\AppData\Local\Temp\cc2WPJTl.s 			page 14


 142 0020 00000000 		.word	.LC2
 143              		.cfi_endproc
 144              	.LFE61:
 145              		.size	Start_Display, .-Start_Display
 146              		.section	.text.Display_Controll,"ax",%progbits
 147              		.align	1
 148              		.global	Display_Controll
 149              		.code	16
 150              		.thumb_func
 151              		.type	Display_Controll, %function
 152              	Display_Controll:
 153              	.LFB68:
  97:.\main.c      **** 
  98:.\main.c      **** void OPT_Get_Result()
  99:.\main.c      **** {
 100:.\main.c      ****     if(GlobalStruct.OPT_Status == 0)
 101:.\main.c      ****     {
 102:.\main.c      ****         if(OPT_StartConvert())
 103:.\main.c      ****         {
 104:.\main.c      ****             SetTimerTask(OPT_Get_Result, 1000);
 105:.\main.c      ****             GlobalStruct.OPT_Status = 1;
 106:.\main.c      ****         }
 107:.\main.c      ****         else
 108:.\main.c      ****         {
 109:.\main.c      ****             SetTimerTask(OPT_Get_Result, 300);
 110:.\main.c      ****             GlobalStruct.OPT_Status = 0;
 111:.\main.c      ****         }
 112:.\main.c      ****         
 113:.\main.c      ****     }
 114:.\main.c      ****     else if(GlobalStruct.OPT_Status == 1)
 115:.\main.c      ****     {
 116:.\main.c      ****         if(OPT_IsReady())
 117:.\main.c      ****         {
 118:.\main.c      ****             OPT_GetResultString(&GlobalStruct.Lux);
 119:.\main.c      ****             SetTimerTask(OPT_Get_Result, 2000);
 120:.\main.c      ****             GlobalStruct.OPT_Status = 0;
 121:.\main.c      ****         }
 122:.\main.c      ****         else
 123:.\main.c      ****         {
 124:.\main.c      ****             SetTimerTask(OPT_Get_Result, 800);
 125:.\main.c      ****         }
 126:.\main.c      ****         
 127:.\main.c      ****     }
 128:.\main.c      **** }
 129:.\main.c      **** 
 130:.\main.c      **** void Get_RealTimeString(char *TimeString)
 131:.\main.c      **** {
 132:.\main.c      **** 	char timeBuffer[9];
 133:.\main.c      **** 	uint8 scroll = 0;
 134:.\main.c      **** 	TimeStruct.Time = RTC_GetTime();
 135:.\main.c      ****     sprintf(timeBuffer, "%02lu:%02lu:%02lu", RTC_GetHours(TimeStruct.Time), RTC_GetMinutes(TimeStru
 136:.\main.c      **** 	for(scroll = 0; scroll < 9; scroll++)
 137:.\main.c      **** 	{
 138:.\main.c      **** 		TimeString[scroll] = timeBuffer[scroll];
 139:.\main.c      **** 	}
 140:.\main.c      **** }
 141:.\main.c      **** 
ARM GAS  C:\Users\Vitali\AppData\Local\Temp\cc2WPJTl.s 			page 15


 142:.\main.c      **** void Get_AlarmTimeString(char *TimeString)
 143:.\main.c      **** {
 144:.\main.c      **** 	char timeBuffer[9];
 145:.\main.c      **** 	volatile uint32 scroll, sec, min, hour;
 146:.\main.c      **** 	sec = 0u;
 147:.\main.c      **** 	min = 0u;
 148:.\main.c      **** 	hour = 0u;
 149:.\main.c      **** 	if(AlarmTime.status == 1)
 150:.\main.c      **** 		{
 151:.\main.c      **** 			RTC_GetAlarmDateAndTime(&AlarmTime);
 152:.\main.c      **** 			TimeStruct.Time = RTC_GetTime();
 153:.\main.c      **** 	
 154:.\main.c      **** 			min = RTC_GetMinutes(AlarmTime.time);
 155:.\main.c      **** 			hour = RTC_GetHours(AlarmTime.time);
 156:.\main.c      **** 	
 157:.\main.c      **** 			if(RTC_GetSecond(AlarmTime.time) < RTC_GetSecond(TimeStruct.Time))
 158:.\main.c      **** 				{		
 159:.\main.c      **** 					if(min)
 160:.\main.c      **** 						{
 161:.\main.c      **** 							min--;
 162:.\main.c      **** 							sec = 59 - (RTC_GetSecond(TimeStruct.Time) - RTC_GetSecond(AlarmTime.time));
 163:.\main.c      **** 						}
 164:.\main.c      **** 					else
 165:.\main.c      **** 						{		
 166:.\main.c      **** 							hour--;
 167:.\main.c      **** 							min = 59;
 168:.\main.c      **** 							sec = 59 - (RTC_GetSecond(TimeStruct.Time) - RTC_GetSecond(AlarmTime.time));			
 169:.\main.c      **** 						}			
 170:.\main.c      **** 				}
 171:.\main.c      **** 			else
 172:.\main.c      **** 				{
 173:.\main.c      **** 					sec = (RTC_GetSecond(AlarmTime.time) - RTC_GetSecond(TimeStruct.Time));
 174:.\main.c      **** 				}
 175:.\main.c      **** 			
 176:.\main.c      **** 			if(min < RTC_GetMinutes(TimeStruct.Time))
 177:.\main.c      **** 				{
 178:.\main.c      **** 					hour--;
 179:.\main.c      **** 					min = 59 - (RTC_GetMinutes(TimeStruct.Time) - min);
 180:.\main.c      **** 				}
 181:.\main.c      **** 			else
 182:.\main.c      **** 				{
 183:.\main.c      **** 					min = min - RTC_GetMinutes(TimeStruct.Time);
 184:.\main.c      **** 				}
 185:.\main.c      **** 				
 186:.\main.c      **** 			hour = hour - RTC_GetHours(TimeStruct.Time);
 187:.\main.c      **** 		}
 188:.\main.c      **** 	
 189:.\main.c      ****     sprintf(timeBuffer, "%02lu:%02lu:%02lu", hour, min, sec);
 190:.\main.c      **** 	for(scroll = 0; scroll < 9; scroll++)
 191:.\main.c      **** 		{
 192:.\main.c      **** 			TimeString[scroll] = timeBuffer[scroll];
 193:.\main.c      **** 		}
 194:.\main.c      **** }
 195:.\main.c      **** 
 196:.\main.c      **** void Main_Display_Print()
 197:.\main.c      **** {
 198:.\main.c      ****     char BLE_Status[20] = "BLE_Status: ";
ARM GAS  C:\Users\Vitali\AppData\Local\Temp\cc2WPJTl.s 			page 16


 199:.\main.c      ****     char Lamp_Status[20] = "UV Lamp: ";
 200:.\main.c      ****     char timeBuffer[9];
 201:.\main.c      **** 	char DisplayTimeBufer[20];
 202:.\main.c      ****     DisplayTimeBufer[0] = '\0';
 203:.\main.c      ****     const char ON[3] = "ON";
 204:.\main.c      ****     const char OFF[4] = "OFF";
 205:.\main.c      ****     const char Conected[9] = "Conected";
 206:.\main.c      ****     const char Error[6] = "Error";
 207:.\main.c      ****     
 208:.\main.c      **** 	Get_AlarmTimeString(timeBuffer);
 209:.\main.c      **** 	strncat(DisplayTimeBufer, timeBuffer, 8);
 210:.\main.c      **** 	strcat(DisplayTimeBufer, "  ");
 211:.\main.c      **** 	Get_RealTimeString(timeBuffer);
 212:.\main.c      **** 	strcat(DisplayTimeBufer, timeBuffer);
 213:.\main.c      **** 	
 214:.\main.c      **** 	switch(GlobalStruct.BLE_Status)
 215:.\main.c      **** 	{
 216:.\main.c      **** 		case 0:
 217:.\main.c      **** 			strcat(BLE_Status, OFF);
 218:.\main.c      **** 			break;
 219:.\main.c      **** 		case 1:
 220:.\main.c      **** 			strcat(BLE_Status, ON);
 221:.\main.c      **** 			break;
 222:.\main.c      **** 		case 3:
 223:.\main.c      **** 		    strcat(BLE_Status, Conected);
 224:.\main.c      **** 			break;
 225:.\main.c      **** 		case 4:
 226:.\main.c      **** 		    strcat(BLE_Status, Error);
 227:.\main.c      **** 			break;
 228:.\main.c      **** 		default:
 229:.\main.c      **** 			strcat(BLE_Status, Error);
 230:.\main.c      **** 			break;
 231:.\main.c      **** 	}
 232:.\main.c      **** 	
 233:.\main.c      **** 	switch(GlobalStruct.Lamp_Status)
 234:.\main.c      **** 	{
 235:.\main.c      **** 		case 0:
 236:.\main.c      **** 			strcat(Lamp_Status, OFF);
 237:.\main.c      **** 			break;
 238:.\main.c      **** 		case 1:
 239:.\main.c      **** 			strcat(Lamp_Status, ON);
 240:.\main.c      **** 			break;
 241:.\main.c      **** 		default:
 242:.\main.c      **** 			strcat(Lamp_Status, Error);
 243:.\main.c      **** 			break;
 244:.\main.c      **** 	}
 245:.\main.c      **** 	
 246:.\main.c      ****     Add_To_DDR(DisplayTimeBufer);
 247:.\main.c      ****     Add_To_DDR(OPT_Out_String);    
 248:.\main.c      ****     Add_To_DDR(BLE_Status);
 249:.\main.c      ****     Add_To_DDR(Lamp_Status);
 250:.\main.c      ****     Print_DDR();
 251:.\main.c      **** }
 252:.\main.c      **** 
 253:.\main.c      **** void ScreenSaver_Display()
 254:.\main.c      **** {
 255:.\main.c      **** 		char TimeSTR[9];
ARM GAS  C:\Users\Vitali\AppData\Local\Temp\cc2WPJTl.s 			page 17


 256:.\main.c      **** 		Get_RealTimeString(TimeSTR);
 257:.\main.c      ****         ScreenSaver(TimeSTR);
 258:.\main.c      **** }
 259:.\main.c      **** 
 260:.\main.c      **** void Display_Controll()
 261:.\main.c      **** {
 154              		.loc 2 261 0
 155              		.cfi_startproc
 156 0000 08B5     		push	{r3, lr}
 157              		.cfi_def_cfa_offset 8
 158              		.cfi_offset 3, -8
 159              		.cfi_offset 14, -4
 262:.\main.c      **** 	switch(GlobalStruct.OS_Status)
 160              		.loc 2 262 0
 161 0002 084B     		ldr	r3, .L15
 162 0004 1B7C     		ldrb	r3, [r3, #16]
 163 0006 DBB2     		uxtb	r3, r3
 164 0008 002B     		cmp	r3, #0
 165 000a 03D0     		beq	.L11
 166 000c 012B     		cmp	r3, #1
 167 000e 04D1     		bne	.L10
 263:.\main.c      **** 		{
 264:.\main.c      **** 			case 0:
 265:.\main.c      **** 				SetTask(ScreenSaver_Display);
 266:.\main.c      **** 				break;
 267:.\main.c      **** 			case 1:
 268:.\main.c      **** 				SetTask(Main_Display_Print);
 168              		.loc 2 268 0
 169 0010 0548     		ldr	r0, .L15+4
 170 0012 00E0     		b	.L13
 171              	.L11:
 265:.\main.c      **** 				break;
 172              		.loc 2 265 0
 173 0014 0548     		ldr	r0, .L15+8
 174              	.L13:
 175              		.loc 2 268 0
 176 0016 FFF7FEFF 		bl	SetTask
 177              	.LVL11:
 178              	.L10:
 269:.\main.c      **** 		}
 270:.\main.c      **** 	
 271:.\main.c      **** 	SetTimerTask(Display_Controll, 250);
 179              		.loc 2 271 0
 180 001a 0548     		ldr	r0, .L15+12
 181 001c FA21     		mov	r1, #250
 182 001e FFF7FEFF 		bl	SetTimerTask
 183              	.LVL12:
 272:.\main.c      **** }
 184              		.loc 2 272 0
 185              		@ sp needed
 186 0022 08BD     		pop	{r3, pc}
 187              	.L16:
 188              		.align	2
 189              	.L15:
 190 0024 00000000 		.word	GlobalStruct
 191 0028 00000000 		.word	Main_Display_Print
 192 002c 00000000 		.word	ScreenSaver_Display
ARM GAS  C:\Users\Vitali\AppData\Local\Temp\cc2WPJTl.s 			page 18


 193 0030 00000000 		.word	Display_Controll
 194              		.cfi_endproc
 195              	.LFE68:
 196              		.size	Display_Controll, .-Display_Controll
 197              		.global	__aeabi_uidiv
 198              		.global	__aeabi_i2d
 199              		.global	__aeabi_dmul
 200              		.global	__aeabi_dsub
 201              		.global	__aeabi_d2uiz
 202              		.section	.text.Brightles_PID_Controll,"ax",%progbits
 203              		.align	1
 204              		.global	Brightles_PID_Controll
 205              		.code	16
 206              		.thumb_func
 207              		.type	Brightles_PID_Controll, %function
 208              	Brightles_PID_Controll:
 209              	.LFB69:
 273:.\main.c      **** 
 274:.\main.c      **** void Brightles_PID_Controll()
 275:.\main.c      **** {
 210              		.loc 2 275 0
 211              		.cfi_startproc
 212 0000 37B5     		push	{r0, r1, r2, r4, r5, lr}
 213              		.cfi_def_cfa_offset 24
 214              		.cfi_offset 0, -24
 215              		.cfi_offset 1, -20
 216              		.cfi_offset 2, -16
 217              		.cfi_offset 4, -12
 218              		.cfi_offset 5, -8
 219              		.cfi_offset 14, -4
 276:.\main.c      ****     volatile uint8 Procent = 0;
 220              		.loc 2 276 0
 221 0002 6B46     		mov	r3, sp
 222 0004 9C1D     		add	r4, r3, #6
 223 0006 0023     		mov	r3, #0
 224 0008 6946     		mov	r1, sp
 225 000a 2370     		strb	r3, [r4]
 277:.\main.c      ****     volatile uint8 PWM;
 278:.\main.c      ****     if(GlobalStruct.Lux > 0)
 226              		.loc 2 278 0
 227 000c 174B     		ldr	r3, .L22
 228 000e CD1D     		add	r5, r1, #7
 229 0010 5A68     		ldr	r2, [r3, #4]
 230 0012 002A     		cmp	r2, #0
 231 0014 1DD0     		beq	.L18
 279:.\main.c      ****     {
 280:.\main.c      ****         Procent = GlobalStruct.Lux / 160;
 232              		.loc 2 280 0
 233 0016 5868     		ldr	r0, [r3, #4]
 234 0018 A021     		mov	r1, #160
 235 001a FFF7FEFF 		bl	__aeabi_uidiv
 236              	.LVL13:
 237 001e C0B2     		uxtb	r0, r0
 238 0020 2070     		strb	r0, [r4]
 281:.\main.c      ****         if(Procent > 100) Procent = 100;
 239              		.loc 2 281 0
 240 0022 2378     		ldrb	r3, [r4]
ARM GAS  C:\Users\Vitali\AppData\Local\Temp\cc2WPJTl.s 			page 19


 241 0024 642B     		cmp	r3, #100
 242 0026 01D9     		bls	.L19
 243              		.loc 2 281 0 is_stmt 0 discriminator 1
 244 0028 6423     		mov	r3, #100
 245 002a 2370     		strb	r3, [r4]
 246              	.L19:
 282:.\main.c      ****         PWM = (uint8)(68 - (0.68 * Procent));
 247              		.loc 2 282 0 is_stmt 1
 248 002c 2078     		ldrb	r0, [r4]
 249 002e C0B2     		uxtb	r0, r0
 250 0030 FFF7FEFF 		bl	__aeabi_i2d
 251              	.LVL14:
 252 0034 0E4A     		ldr	r2, .L22+4
 253 0036 0F4B     		ldr	r3, .L22+8
 254 0038 FFF7FEFF 		bl	__aeabi_dmul
 255              	.LVL15:
 256 003c 021C     		mov	r2, r0
 257 003e 0B1C     		mov	r3, r1
 258 0040 0020     		mov	r0, #0
 259 0042 0D49     		ldr	r1, .L22+12
 260 0044 FFF7FEFF 		bl	__aeabi_dsub
 261              	.LVL16:
 262 0048 FFF7FEFF 		bl	__aeabi_d2uiz
 263              	.LVL17:
 264 004c C0B2     		uxtb	r0, r0
 265 004e 2870     		strb	r0, [r5]
 266 0050 01E0     		b	.L21
 267              	.L18:
 283:.\main.c      ****         PWM_WriteCompare1(PWM);
 284:.\main.c      ****     }
 285:.\main.c      ****     else
 286:.\main.c      ****     {
 287:.\main.c      ****         PWM = 68;
 268              		.loc 2 287 0
 269 0052 4423     		mov	r3, #68
 270 0054 2B70     		strb	r3, [r5]
 271              	.L21:
 288:.\main.c      ****         PWM_WriteCompare1(PWM);
 272              		.loc 2 288 0
 273 0056 2878     		ldrb	r0, [r5]
 289:.\main.c      ****     }
 290:.\main.c      ****     SetTimerTask(Brightles_PID_Controll, 2000);
 291:.\main.c      **** }
 274              		.loc 2 291 0
 275              		@ sp needed
 288:.\main.c      ****         PWM_WriteCompare1(PWM);
 276              		.loc 2 288 0
 277 0058 C0B2     		uxtb	r0, r0
 278 005a FFF7FEFF 		bl	PWM_WriteCompare1
 279              	.LVL18:
 290:.\main.c      **** }
 280              		.loc 2 290 0
 281 005e FA21     		mov	r1, #250
 282 0060 0648     		ldr	r0, .L22+16
 283 0062 C900     		lsl	r1, r1, #3
 284 0064 FFF7FEFF 		bl	SetTimerTask
 285              	.LVL19:
ARM GAS  C:\Users\Vitali\AppData\Local\Temp\cc2WPJTl.s 			page 20


 286              		.loc 2 291 0
 287 0068 37BD     		pop	{r0, r1, r2, r4, r5, pc}
 288              	.L23:
 289 006a C046     		.align	2
 290              	.L22:
 291 006c 00000000 		.word	GlobalStruct
 292 0070 C3F5285C 		.word	1546188227
 293 0074 8FC2E53F 		.word	1072022159
 294 0078 00005140 		.word	1079050240
 295 007c 00000000 		.word	Brightles_PID_Controll
 296              		.cfi_endproc
 297              	.LFE69:
 298              		.size	Brightles_PID_Controll, .-Brightles_PID_Controll
 299              		.section	.text.Check_OPT,"ax",%progbits
 300              		.align	1
 301              		.global	Check_OPT
 302              		.code	16
 303              		.thumb_func
 304              		.type	Check_OPT, %function
 305              	Check_OPT:
 306              	.LFB60:
  52:.\main.c      ****     uint16 Manufacturer, Device;
 307              		.loc 2 52 0
 308              		.cfi_startproc
 309 0000 37B5     		push	{r0, r1, r2, r4, r5, lr}
 310              		.cfi_def_cfa_offset 24
 311              		.cfi_offset 0, -24
 312              		.cfi_offset 1, -20
 313              		.cfi_offset 2, -16
 314              		.cfi_offset 4, -12
 315              		.cfi_offset 5, -8
 316              		.cfi_offset 14, -4
  56:.\main.c      ****     
 317              		.loc 2 56 0
 318 0002 6B46     		mov	r3, sp
 319 0004 9C1D     		add	r4, r3, #6
 320 0006 4520     		mov	r0, #69
 321 0008 7F21     		mov	r1, #127
 322 000a 221C     		mov	r2, r4
 323 000c FFF7FEFF 		bl	I2C_ReadRegister
 324              	.LVL20:
  58:.\main.c      ****     {
 325              		.loc 2 58 0
 326 0010 0028     		cmp	r0, #0
 327 0012 03D1     		bne	.L25
 328              	.L27:
  60:.\main.c      ****         return;
 329              		.loc 2 60 0
 330 0014 0E48     		ldr	r0, .L31
 331              	.LVL21:
 332 0016 FFF7FEFF 		bl	Add_To_DDR
 333              	.LVL22:
  61:.\main.c      ****         I2C_I2C_MSTR_ERR_LB_NAK;
 334              		.loc 2 61 0
 335 001a 17E0     		b	.L24
 336              	.LVL23:
 337              	.L25:
ARM GAS  C:\Users\Vitali\AppData\Local\Temp\cc2WPJTl.s 			page 21


  66:.\main.c      ****     
 338              		.loc 2 66 0
 339 001c 01AD     		add	r5, sp, #4
 340 001e 4520     		mov	r0, #69
 341              	.LVL24:
 342 0020 7E21     		mov	r1, #126
 343 0022 2A1C     		mov	r2, r5
 344 0024 FFF7FEFF 		bl	I2C_ReadRegister
 345              	.LVL25:
  68:.\main.c      ****     {
 346              		.loc 2 68 0
 347 0028 0028     		cmp	r0, #0
 348 002a F3D0     		beq	.L27
  74:.\main.c      ****     {
 349              		.loc 2 74 0
 350 002c 2A88     		ldrh	r2, [r5]
 351 002e 094B     		ldr	r3, .L31+4
 352 0030 9A42     		cmp	r2, r3
 353 0032 0BD1     		bne	.L24
  74:.\main.c      ****     {
 354              		.loc 2 74 0 is_stmt 0 discriminator 1
 355 0034 2288     		ldrh	r2, [r4]
 356 0036 084B     		ldr	r3, .L31+8
 357 0038 9A42     		cmp	r2, r3
 358 003a 07D1     		bne	.L24
 359              	.LBB4:
 360              	.LBB5:
  76:.\main.c      ****         Add_To_DDR("Device OPT3001 EN");
 361              		.loc 2 76 0 is_stmt 1
 362 003c 0748     		ldr	r0, .L31+12
 363              	.LVL26:
 364 003e FFF7FEFF 		bl	Add_To_DDR
 365              	.LVL27:
  77:.\main.c      ****         Print_DDR();
 366              		.loc 2 77 0
 367 0042 0748     		ldr	r0, .L31+16
 368 0044 FFF7FEFF 		bl	Add_To_DDR
 369              	.LVL28:
  78:.\main.c      ****         return;
 370              		.loc 2 78 0
 371 0048 FFF7FEFF 		bl	Print_DDR
 372              	.LVL29:
 373              	.L24:
 374              	.LBE5:
 375              	.LBE4:
  82:.\main.c      **** 
 376              		.loc 2 82 0
 377              		@ sp needed
 378 004c 37BD     		pop	{r0, r1, r2, r4, r5, pc}
 379              	.L32:
 380 004e C046     		.align	2
 381              	.L31:
 382 0050 09000000 		.word	.LC10
 383 0054 49540000 		.word	21577
 384 0058 01300000 		.word	12289
 385 005c 15000000 		.word	.LC12
 386 0060 1E000000 		.word	.LC14
ARM GAS  C:\Users\Vitali\AppData\Local\Temp\cc2WPJTl.s 			page 22


 387              		.cfi_endproc
 388              	.LFE60:
 389              		.size	Check_OPT, .-Check_OPT
 390              		.section	.text.OPT_Get_Result,"ax",%progbits
 391              		.align	1
 392              		.global	OPT_Get_Result
 393              		.code	16
 394              		.thumb_func
 395              		.type	OPT_Get_Result, %function
 396              	OPT_Get_Result:
 397              	.LFB63:
  99:.\main.c      ****     if(GlobalStruct.OPT_Status == 0)
 398              		.loc 2 99 0
 399              		.cfi_startproc
 400 0000 38B5     		push	{r3, r4, r5, lr}
 401              		.cfi_def_cfa_offset 16
 402              		.cfi_offset 3, -16
 403              		.cfi_offset 4, -12
 404              		.cfi_offset 5, -8
 405              		.cfi_offset 14, -4
 100:.\main.c      ****     {
 406              		.loc 2 100 0
 407 0002 174C     		ldr	r4, .L39
 408 0004 237A     		ldrb	r3, [r4, #8]
 409 0006 002B     		cmp	r3, #0
 410 0008 10D1     		bne	.L34
 102:.\main.c      ****         {
 411              		.loc 2 102 0
 412 000a FFF7FEFF 		bl	OPT_StartConvert
 413              	.LVL30:
 414 000e 051E     		sub	r5, r0, #0
 415 0010 1448     		ldr	r0, .L39+4
 416 0012 05D0     		beq	.L35
 104:.\main.c      ****             GlobalStruct.OPT_Status = 1;
 417              		.loc 2 104 0
 418 0014 FA21     		mov	r1, #250
 419 0016 8900     		lsl	r1, r1, #2
 420 0018 FFF7FEFF 		bl	SetTimerTask
 421              	.LVL31:
 105:.\main.c      ****         }
 422              		.loc 2 105 0
 423 001c 0123     		mov	r3, #1
 424 001e 16E0     		b	.L38
 425              	.L35:
 109:.\main.c      ****             GlobalStruct.OPT_Status = 0;
 426              		.loc 2 109 0
 427 0020 9621     		mov	r1, #150
 428 0022 4900     		lsl	r1, r1, #1
 429 0024 FFF7FEFF 		bl	SetTimerTask
 430              	.LVL32:
 110:.\main.c      ****         }
 431              		.loc 2 110 0
 432 0028 2572     		strb	r5, [r4, #8]
 433 002a 17E0     		b	.L33
 434              	.L34:
 114:.\main.c      ****     {
 435              		.loc 2 114 0
ARM GAS  C:\Users\Vitali\AppData\Local\Temp\cc2WPJTl.s 			page 23


 436 002c 237A     		ldrb	r3, [r4, #8]
 437 002e 012B     		cmp	r3, #1
 438 0030 14D1     		bne	.L33
 116:.\main.c      ****         {
 439              		.loc 2 116 0
 440 0032 FFF7FEFF 		bl	OPT_IsReady
 441              	.LVL33:
 442 0036 0B4D     		ldr	r5, .L39+4
 443 0038 0028     		cmp	r0, #0
 444 003a 0AD0     		beq	.L37
 445              	.LBB8:
 446              	.LBB9:
 118:.\main.c      ****             SetTimerTask(OPT_Get_Result, 2000);
 447              		.loc 2 118 0
 448 003c 0A48     		ldr	r0, .L39+8
 449 003e FFF7FEFF 		bl	OPT_GetResultString
 450              	.LVL34:
 119:.\main.c      ****             GlobalStruct.OPT_Status = 0;
 451              		.loc 2 119 0
 452 0042 FA21     		mov	r1, #250
 453 0044 281C     		mov	r0, r5
 454 0046 C900     		lsl	r1, r1, #3
 455 0048 FFF7FEFF 		bl	SetTimerTask
 456              	.LVL35:
 120:.\main.c      ****         }
 457              		.loc 2 120 0
 458 004c 0023     		mov	r3, #0
 459              	.L38:
 460 004e 2372     		strb	r3, [r4, #8]
 461 0050 04E0     		b	.L33
 462              	.L37:
 463              	.LBE9:
 464              	.LBE8:
 124:.\main.c      ****         }
 465              		.loc 2 124 0
 466 0052 C821     		mov	r1, #200
 467 0054 281C     		mov	r0, r5
 468 0056 8900     		lsl	r1, r1, #2
 469 0058 FFF7FEFF 		bl	SetTimerTask
 470              	.LVL36:
 471              	.L33:
 128:.\main.c      **** 
 472              		.loc 2 128 0
 473              		@ sp needed
 474 005c 38BD     		pop	{r3, r4, r5, pc}
 475              	.L40:
 476 005e C046     		.align	2
 477              	.L39:
 478 0060 00000000 		.word	GlobalStruct
 479 0064 00000000 		.word	OPT_Get_Result
 480 0068 04000000 		.word	GlobalStruct+4
 481              		.cfi_endproc
 482              	.LFE63:
 483              		.size	OPT_Get_Result, .-OPT_Get_Result
 484              		.section	.text.Check_Boot,"ax",%progbits
 485              		.align	1
 486              		.global	Check_Boot
ARM GAS  C:\Users\Vitali\AppData\Local\Temp\cc2WPJTl.s 			page 24


 487              		.code	16
 488              		.thumb_func
 489              		.type	Check_Boot, %function
 490              	Check_Boot:
 491              	.LFB59:
  44:.\main.c      ****     if(Bootloader_En_Read() == 0)
 492              		.loc 2 44 0
 493              		.cfi_startproc
 494 0000 08B5     		push	{r3, lr}
 495              		.cfi_def_cfa_offset 8
 496              		.cfi_offset 3, -8
 497              		.cfi_offset 14, -4
  45:.\main.c      ****     {
 498              		.loc 2 45 0
 499 0002 FFF7FEFF 		bl	Bootloader_En_Read
 500              	.LVL37:
 501 0006 0028     		cmp	r0, #0
 502 0008 01D1     		bne	.L41
 503              	.LBB10:
  47:.\main.c      ****     }
 504              		.loc 2 47 0
 505 000a FFF7FEFF 		bl	Bootloadable_Load
 506              	.LVL38:
 507              	.L41:
 508              	.LBE10:
  49:.\main.c      **** 
 509              		.loc 2 49 0
 510              		@ sp needed
 511 000e 08BD     		pop	{r3, pc}
 512              		.cfi_endproc
 513              	.LFE59:
 514              		.size	Check_Boot, .-Check_Boot
 515              		.section	.text.Get_RealTimeString,"ax",%progbits
 516              		.align	1
 517              		.global	Get_RealTimeString
 518              		.code	16
 519              		.thumb_func
 520              		.type	Get_RealTimeString, %function
 521              	Get_RealTimeString:
 522              	.LFB64:
 131:.\main.c      **** 	char timeBuffer[9];
 523              		.loc 2 131 0
 524              		.cfi_startproc
 525              	.LVL39:
 526 0000 F0B5     		push	{r4, r5, r6, r7, lr}
 527              		.cfi_def_cfa_offset 20
 528              		.cfi_offset 4, -20
 529              		.cfi_offset 5, -16
 530              		.cfi_offset 6, -12
 531              		.cfi_offset 7, -8
 532              		.cfi_offset 14, -4
 533 0002 87B0     		sub	sp, sp, #28
 534              		.cfi_def_cfa_offset 48
 131:.\main.c      **** 	char timeBuffer[9];
 535              		.loc 2 131 0
 536 0004 061C     		mov	r6, r0
 134:.\main.c      ****     sprintf(timeBuffer, "%02lu:%02lu:%02lu", RTC_GetHours(TimeStruct.Time), RTC_GetMinutes(TimeStru
ARM GAS  C:\Users\Vitali\AppData\Local\Temp\cc2WPJTl.s 			page 25


 537              		.loc 2 134 0
 538 0006 FFF7FEFF 		bl	RTC_GetTime
 539              	.LVL40:
 540              	.LBB13:
 541              	.LBB14:
 497:Generated_Source\PSoC4/RTC.h **** 
 498:Generated_Source\PSoC4/RTC.h **** 
 499:Generated_Source\PSoC4/RTC.h **** /*******************************************************************************
 500:Generated_Source\PSoC4/RTC.h **** * Function Name: RTC_GetHours
 501:Generated_Source\PSoC4/RTC.h **** ********************************************************************************
 502:Generated_Source\PSoC4/RTC.h **** *
 503:Generated_Source\PSoC4/RTC.h **** * Summary:
 504:Generated_Source\PSoC4/RTC.h **** *  Returns the hours value from the time value that is passed as a/the parameter.
 505:Generated_Source\PSoC4/RTC.h **** *
 506:Generated_Source\PSoC4/RTC.h **** * Parameters:
 507:Generated_Source\PSoC4/RTC.h **** *  time: The time value.
 508:Generated_Source\PSoC4/RTC.h **** *
 509:Generated_Source\PSoC4/RTC.h **** * Return:
 510:Generated_Source\PSoC4/RTC.h **** *  Th ehours value.
 511:Generated_Source\PSoC4/RTC.h **** *
 512:Generated_Source\PSoC4/RTC.h **** *******************************************************************************/
 513:Generated_Source\PSoC4/RTC.h **** static CY_INLINE uint32 RTC_GetHours(uint32 inputTime)
 514:Generated_Source\PSoC4/RTC.h **** {
 515:Generated_Source\PSoC4/RTC.h ****     uint32 retVal;
 516:Generated_Source\PSoC4/RTC.h **** 
 517:Generated_Source\PSoC4/RTC.h ****     retVal  = ((inputTime & RTC_10_HOURS_MASK) >> RTC_10_HOURS_OFFSET) * 10u;
 542              		.loc 1 517 0
 543 000a 0A22     		mov	r2, #10
 544              	.LBE14:
 545              	.LBE13:
 134:.\main.c      ****     sprintf(timeBuffer, "%02lu:%02lu:%02lu", RTC_GetHours(TimeStruct.Time), RTC_GetMinutes(TimeStru
 546              		.loc 2 134 0
 547 000c 0F4D     		ldr	r5, .L45
 548 000e 2860     		str	r0, [r5]
 135:.\main.c      **** 	for(scroll = 0; scroll < 9; scroll++)
 549              		.loc 2 135 0
 550 0010 2B68     		ldr	r3, [r5]
 551              	.LVL41:
 552 0012 2868     		ldr	r0, [r5]
 553              	.LBB16:
 554              	.LBB15:
 555              		.loc 1 517 0
 556 0014 9C02     		lsl	r4, r3, #10
 557 0016 A40F     		lsr	r4, r4, #30
 558 0018 5443     		mul	r4, r2
 559              	.LVL42:
 518:Generated_Source\PSoC4/RTC.h ****     retVal += (inputTime & RTC_HOURS_MASK) >> RTC_HOURS_OFFSET;
 560              		.loc 1 518 0
 561 001a 1B03     		lsl	r3, r3, #12
 562              	.LVL43:
 563 001c 1B0F     		lsr	r3, r3, #28
 564 001e E418     		add	r4, r4, r3
 565              	.LVL44:
 566              	.LBE15:
 567              	.LBE16:
 135:.\main.c      **** 	for(scroll = 0; scroll < 9; scroll++)
 568              		.loc 2 135 0
ARM GAS  C:\Users\Vitali\AppData\Local\Temp\cc2WPJTl.s 			page 26


 569 0020 FFF7FEFF 		bl	RTC_GetMinutes
 570              	.LVL45:
 571 0024 071C     		mov	r7, r0
 572 0026 2868     		ldr	r0, [r5]
 573 0028 FFF7FEFF 		bl	RTC_GetSecond
 574              	.LVL46:
 575 002c 03AD     		add	r5, sp, #12
 576 002e 0090     		str	r0, [sp]
 577 0030 3B1C     		mov	r3, r7
 578 0032 281C     		mov	r0, r5
 579 0034 0649     		ldr	r1, .L45+4
 580 0036 221C     		mov	r2, r4
 581 0038 FFF7FEFF 		bl	sprintf
 582              	.LVL47:
 583 003c 0023     		mov	r3, #0
 584              	.LVL48:
 585              	.L44:
 138:.\main.c      **** 	}
 586              		.loc 2 138 0 discriminator 3
 587 003e EA5C     		ldrb	r2, [r5, r3]
 588 0040 F254     		strb	r2, [r6, r3]
 589              	.LVL49:
 590 0042 0133     		add	r3, r3, #1
 591              	.LVL50:
 136:.\main.c      **** 	{
 592              		.loc 2 136 0 discriminator 3
 593 0044 092B     		cmp	r3, #9
 594 0046 FAD1     		bne	.L44
 140:.\main.c      **** 
 595              		.loc 2 140 0
 596 0048 07B0     		add	sp, sp, #28
 597              		@ sp needed
 598              	.LVL51:
 599              	.LVL52:
 600 004a F0BD     		pop	{r4, r5, r6, r7, pc}
 601              	.L46:
 602              		.align	2
 603              	.L45:
 604 004c 00000000 		.word	TimeStruct
 605 0050 30000000 		.word	.LC22
 606              		.cfi_endproc
 607              	.LFE64:
 608              		.size	Get_RealTimeString, .-Get_RealTimeString
 609              		.section	.text.ScreenSaver_Display,"ax",%progbits
 610              		.align	1
 611              		.global	ScreenSaver_Display
 612              		.code	16
 613              		.thumb_func
 614              		.type	ScreenSaver_Display, %function
 615              	ScreenSaver_Display:
 616              	.LFB67:
 254:.\main.c      **** 		char TimeSTR[9];
 617              		.loc 2 254 0
 618              		.cfi_startproc
 619 0000 1FB5     		push	{r0, r1, r2, r3, r4, lr}
 620              		.cfi_def_cfa_offset 24
 621              		.cfi_offset 0, -24
ARM GAS  C:\Users\Vitali\AppData\Local\Temp\cc2WPJTl.s 			page 27


 622              		.cfi_offset 1, -20
 623              		.cfi_offset 2, -16
 624              		.cfi_offset 3, -12
 625              		.cfi_offset 4, -8
 626              		.cfi_offset 14, -4
 256:.\main.c      ****         ScreenSaver(TimeSTR);
 627              		.loc 2 256 0
 628 0002 01A8     		add	r0, sp, #4
 629 0004 FFF7FEFF 		bl	Get_RealTimeString
 630              	.LVL53:
 257:.\main.c      **** }
 631              		.loc 2 257 0
 632 0008 01A8     		add	r0, sp, #4
 633 000a FFF7FEFF 		bl	ScreenSaver
 634              	.LVL54:
 258:.\main.c      **** 
 635              		.loc 2 258 0
 636 000e 05B0     		add	sp, sp, #20
 637              		@ sp needed
 638 0010 00BD     		pop	{pc}
 639              		.cfi_endproc
 640              	.LFE67:
 641              		.size	ScreenSaver_Display, .-ScreenSaver_Display
 642              		.section	.text.Get_AlarmTimeString,"ax",%progbits
 643              		.align	1
 644              		.global	Get_AlarmTimeString
 645              		.code	16
 646              		.thumb_func
 647              		.type	Get_AlarmTimeString, %function
 648              	Get_AlarmTimeString:
 649              	.LFB65:
 143:.\main.c      **** 	char timeBuffer[9];
 650              		.loc 2 143 0
 651              		.cfi_startproc
 652              	.LVL55:
 146:.\main.c      **** 	min = 0u;
 653              		.loc 2 146 0
 654 0000 0023     		mov	r3, #0
 143:.\main.c      **** 	char timeBuffer[9];
 655              		.loc 2 143 0
 656 0002 70B5     		push	{r4, r5, r6, lr}
 657              		.cfi_def_cfa_offset 16
 658              		.cfi_offset 4, -16
 659              		.cfi_offset 5, -12
 660              		.cfi_offset 6, -8
 661              		.cfi_offset 14, -4
 149:.\main.c      **** 		{
 662              		.loc 2 149 0
 663 0004 384E     		ldr	r6, .L60
 143:.\main.c      **** 	char timeBuffer[9];
 664              		.loc 2 143 0
 665 0006 8AB0     		sub	sp, sp, #40
 666              		.cfi_def_cfa_offset 56
 146:.\main.c      **** 	min = 0u;
 667              		.loc 2 146 0
 668 0008 0493     		str	r3, [sp, #16]
 147:.\main.c      **** 	hour = 0u;
ARM GAS  C:\Users\Vitali\AppData\Local\Temp\cc2WPJTl.s 			page 28


 669              		.loc 2 147 0
 670 000a 0593     		str	r3, [sp, #20]
 148:.\main.c      **** 	if(AlarmTime.status == 1)
 671              		.loc 2 148 0
 672 000c 0693     		str	r3, [sp, #24]
 149:.\main.c      **** 		{
 673              		.loc 2 149 0
 674 000e F368     		ldr	r3, [r6, #12]
 143:.\main.c      **** 	char timeBuffer[9];
 675              		.loc 2 143 0
 676 0010 051C     		mov	r5, r0
 149:.\main.c      **** 		{
 677              		.loc 2 149 0
 678 0012 012B     		cmp	r3, #1
 679 0014 50D1     		bne	.L49
 151:.\main.c      **** 			TimeStruct.Time = RTC_GetTime();
 680              		.loc 2 151 0
 681 0016 301C     		mov	r0, r6
 682              	.LVL56:
 683 0018 FFF7FEFF 		bl	RTC_GetAlarmDateAndTime
 684              	.LVL57:
 152:.\main.c      **** 	
 685              		.loc 2 152 0
 686 001c FFF7FEFF 		bl	RTC_GetTime
 687              	.LVL58:
 154:.\main.c      **** 			hour = RTC_GetHours(AlarmTime.time);
 688              		.loc 2 154 0
 689 0020 3668     		ldr	r6, [r6]
 152:.\main.c      **** 	
 690              		.loc 2 152 0
 691 0022 324C     		ldr	r4, .L60+4
 692 0024 2060     		str	r0, [r4]
 154:.\main.c      **** 			hour = RTC_GetHours(AlarmTime.time);
 693              		.loc 2 154 0
 694 0026 301C     		mov	r0, r6
 695 0028 FFF7FEFF 		bl	RTC_GetMinutes
 696              	.LVL59:
 697              	.LBB21:
 698              	.LBB22:
 517:Generated_Source\PSoC4/RTC.h ****     retVal += (inputTime & RTC_HOURS_MASK) >> RTC_HOURS_OFFSET;
 699              		.loc 1 517 0
 700 002c 0A22     		mov	r2, #10
 701 002e B302     		lsl	r3, r6, #10
 702 0030 9B0F     		lsr	r3, r3, #30
 703 0032 5A43     		mul	r2, r3
 704 0034 111C     		mov	r1, r2
 705              		.loc 1 518 0
 706 0036 3303     		lsl	r3, r6, #12
 707 0038 1A0F     		lsr	r2, r3, #28
 708              	.LBE22:
 709              	.LBE21:
 154:.\main.c      **** 			hour = RTC_GetHours(AlarmTime.time);
 710              		.loc 2 154 0
 711 003a 0590     		str	r0, [sp, #20]
 712              	.LVL60:
 713              	.LBB24:
 714              	.LBB23:
ARM GAS  C:\Users\Vitali\AppData\Local\Temp\cc2WPJTl.s 			page 29


 715              		.loc 1 518 0
 716 003c 8B18     		add	r3, r1, r2
 717              	.LVL61:
 718              	.LBE23:
 719              	.LBE24:
 157:.\main.c      **** 				{		
 720              		.loc 2 157 0
 721 003e 301C     		mov	r0, r6
 155:.\main.c      **** 	
 722              		.loc 2 155 0
 723 0040 0693     		str	r3, [sp, #24]
 157:.\main.c      **** 				{		
 724              		.loc 2 157 0
 725 0042 FFF7FEFF 		bl	RTC_GetSecond
 726              	.LVL62:
 727 0046 061C     		mov	r6, r0
 728              	.LVL63:
 729 0048 2068     		ldr	r0, [r4]
 730 004a FFF7FEFF 		bl	RTC_GetSecond
 731              	.LVL64:
 732 004e 8642     		cmp	r6, r0
 733 0050 0BD2     		bcs	.L50
 159:.\main.c      **** 						{
 734              		.loc 2 159 0
 735 0052 059B     		ldr	r3, [sp, #20]
 736 0054 3B36     		add	r6, r6, #59
 737 0056 002B     		cmp	r3, #0
 738 0058 02D0     		beq	.L51
 161:.\main.c      **** 							sec = 59 - (RTC_GetSecond(TimeStruct.Time) - RTC_GetSecond(AlarmTime.time));
 739              		.loc 2 161 0
 740 005a 059B     		ldr	r3, [sp, #20]
 741 005c 013B     		sub	r3, r3, #1
 742 005e 03E0     		b	.L58
 743              	.L51:
 166:.\main.c      **** 							min = 59;
 744              		.loc 2 166 0
 745 0060 069B     		ldr	r3, [sp, #24]
 746 0062 013B     		sub	r3, r3, #1
 747 0064 0693     		str	r3, [sp, #24]
 748              	.LVL65:
 167:.\main.c      **** 							sec = 59 - (RTC_GetSecond(TimeStruct.Time) - RTC_GetSecond(AlarmTime.time));			
 749              		.loc 2 167 0
 750 0066 3B23     		mov	r3, #59
 751              	.L58:
 752 0068 0593     		str	r3, [sp, #20]
 753              	.L50:
 173:.\main.c      **** 				}
 754              		.loc 2 173 0
 755 006a 2068     		ldr	r0, [r4]
 756 006c FFF7FEFF 		bl	RTC_GetSecond
 757              	.LVL66:
 758 0070 361A     		sub	r6, r6, r0
 759 0072 0496     		str	r6, [sp, #16]
 176:.\main.c      **** 				{
 760              		.loc 2 176 0
 761 0074 059E     		ldr	r6, [sp, #20]
 762 0076 2068     		ldr	r0, [r4]
ARM GAS  C:\Users\Vitali\AppData\Local\Temp\cc2WPJTl.s 			page 30


 763 0078 FFF7FEFF 		bl	RTC_GetMinutes
 764              	.LVL67:
 765 007c 8642     		cmp	r6, r0
 766 007e 0AD2     		bcs	.L53
 178:.\main.c      **** 					min = 59 - (RTC_GetMinutes(TimeStruct.Time) - min);
 767              		.loc 2 178 0
 768 0080 069B     		ldr	r3, [sp, #24]
 769 0082 013B     		sub	r3, r3, #1
 770 0084 0693     		str	r3, [sp, #24]
 179:.\main.c      **** 				}
 771              		.loc 2 179 0
 772 0086 059E     		ldr	r6, [sp, #20]
 773 0088 2068     		ldr	r0, [r4]
 774 008a FFF7FEFF 		bl	RTC_GetMinutes
 775              	.LVL68:
 776 008e 3B36     		add	r6, r6, #59
 777 0090 301A     		sub	r0, r6, r0
 778 0092 0590     		str	r0, [sp, #20]
 779 0094 05E0     		b	.L54
 780              	.L53:
 183:.\main.c      **** 				}
 781              		.loc 2 183 0
 782 0096 059E     		ldr	r6, [sp, #20]
 783 0098 2068     		ldr	r0, [r4]
 784 009a FFF7FEFF 		bl	RTC_GetMinutes
 785              	.LVL69:
 786 009e 361A     		sub	r6, r6, r0
 787 00a0 0596     		str	r6, [sp, #20]
 788              	.L54:
 186:.\main.c      **** 		}
 789              		.loc 2 186 0
 790 00a2 0699     		ldr	r1, [sp, #24]
 791 00a4 2368     		ldr	r3, [r4]
 792              	.LVL70:
 793              	.LBB25:
 794              	.LBB26:
 795              		.loc 1 518 0
 796 00a6 1A03     		lsl	r2, r3, #12
 797 00a8 120F     		lsr	r2, r2, #28
 798 00aa 8A1A     		sub	r2, r1, r2
 517:Generated_Source\PSoC4/RTC.h ****     retVal += (inputTime & RTC_HOURS_MASK) >> RTC_HOURS_OFFSET;
 799              		.loc 1 517 0
 800 00ac 0A21     		mov	r1, #10
 801 00ae 9B02     		lsl	r3, r3, #10
 802              	.LVL71:
 803 00b0 9B0F     		lsr	r3, r3, #30
 804 00b2 4B43     		mul	r3, r1
 805              	.LBE26:
 806              	.LBE25:
 186:.\main.c      **** 		}
 807              		.loc 2 186 0
 808 00b4 D31A     		sub	r3, r2, r3
 809 00b6 0693     		str	r3, [sp, #24]
 810              	.L49:
 189:.\main.c      **** 	for(scroll = 0; scroll < 9; scroll++)
 811              		.loc 2 189 0
 812 00b8 069A     		ldr	r2, [sp, #24]
ARM GAS  C:\Users\Vitali\AppData\Local\Temp\cc2WPJTl.s 			page 31


 813 00ba 059B     		ldr	r3, [sp, #20]
 814 00bc 0499     		ldr	r1, [sp, #16]
 815 00be 07AC     		add	r4, sp, #28
 816 00c0 0091     		str	r1, [sp]
 817 00c2 201C     		mov	r0, r4
 818 00c4 0A49     		ldr	r1, .L60+8
 819 00c6 FFF7FEFF 		bl	sprintf
 820              	.LVL72:
 190:.\main.c      **** 		{
 821              		.loc 2 190 0
 822 00ca 0023     		mov	r3, #0
 823              	.L57:
 190:.\main.c      **** 		{
 824              		.loc 2 190 0 is_stmt 0 discriminator 3
 825 00cc 0393     		str	r3, [sp, #12]
 826 00ce 039B     		ldr	r3, [sp, #12]
 827 00d0 082B     		cmp	r3, #8
 828 00d2 06D8     		bhi	.L59
 192:.\main.c      **** 		}
 829              		.loc 2 192 0 is_stmt 1 discriminator 3
 830 00d4 039B     		ldr	r3, [sp, #12]
 831 00d6 039A     		ldr	r2, [sp, #12]
 832 00d8 A25C     		ldrb	r2, [r4, r2]
 833 00da EA54     		strb	r2, [r5, r3]
 190:.\main.c      **** 		{
 834              		.loc 2 190 0 discriminator 3
 835 00dc 039B     		ldr	r3, [sp, #12]
 836 00de 0133     		add	r3, r3, #1
 837 00e0 F4E7     		b	.L57
 838              	.L59:
 194:.\main.c      **** 
 839              		.loc 2 194 0
 840 00e2 0AB0     		add	sp, sp, #40
 841              		@ sp needed
 842              	.LVL73:
 843 00e4 70BD     		pop	{r4, r5, r6, pc}
 844              	.L61:
 845 00e6 C046     		.align	2
 846              	.L60:
 847 00e8 00000000 		.word	AlarmTime
 848 00ec 00000000 		.word	TimeStruct
 849 00f0 30000000 		.word	.LC22
 850              		.cfi_endproc
 851              	.LFE65:
 852              		.size	Get_AlarmTimeString, .-Get_AlarmTimeString
 853              		.section	.text.Main_Display_Print,"ax",%progbits
 854              		.align	1
 855              		.global	Main_Display_Print
 856              		.code	16
 857              		.thumb_func
 858              		.type	Main_Display_Print, %function
 859              	Main_Display_Print:
 860              	.LFB66:
 197:.\main.c      ****     char BLE_Status[20] = "BLE_Status: ";
 861              		.loc 2 197 0
 862              		.cfi_startproc
 863 0000 30B5     		push	{r4, r5, lr}
ARM GAS  C:\Users\Vitali\AppData\Local\Temp\cc2WPJTl.s 			page 32


 864              		.cfi_def_cfa_offset 12
 865              		.cfi_offset 4, -12
 866              		.cfi_offset 5, -8
 867              		.cfi_offset 14, -4
 198:.\main.c      ****     char Lamp_Status[20] = "UV Lamp: ";
 868              		.loc 2 198 0
 869 0002 3C4C     		ldr	r4, .L78
 197:.\main.c      ****     char BLE_Status[20] = "BLE_Status: ";
 870              		.loc 2 197 0
 871 0004 9BB0     		sub	sp, sp, #108
 872              		.cfi_def_cfa_offset 120
 198:.\main.c      ****     char Lamp_Status[20] = "UV Lamp: ";
 873              		.loc 2 198 0
 874 0006 211C     		mov	r1, r4
 875 0008 0D22     		mov	r2, #13
 876 000a 0BA8     		add	r0, sp, #44
 877 000c FFF7FEFF 		bl	memcpy
 878              	.LVL74:
 879 0010 3920     		mov	r0, #57
 880 0012 0021     		mov	r1, #0
 881 0014 0722     		mov	r2, #7
 882 0016 6844     		add	r0, r0, sp
 883 0018 FFF7FEFF 		bl	memset
 884              	.LVL75:
 199:.\main.c      ****     char timeBuffer[9];
 885              		.loc 2 199 0
 886 001c 211C     		mov	r1, r4
 887 001e 0A22     		mov	r2, #10
 888 0020 1431     		add	r1, r1, #20
 889 0022 10A8     		add	r0, sp, #64
 890 0024 FFF7FEFF 		bl	memcpy
 891              	.LVL76:
 892 0028 4A20     		mov	r0, #74
 893 002a 0021     		mov	r1, #0
 894 002c 0A22     		mov	r2, #10
 895 002e 6844     		add	r0, r0, sp
 896 0030 FFF7FEFF 		bl	memset
 897              	.LVL77:
 202:.\main.c      ****     const char ON[3] = "ON";
 898              		.loc 2 202 0
 899 0034 0023     		mov	r3, #0
 900 0036 15AC     		add	r4, sp, #84
 203:.\main.c      ****     const char OFF[4] = "OFF";
 901              		.loc 2 203 0
 902 0038 2F49     		ldr	r1, .L78+4
 903 003a 0322     		mov	r2, #3
 904 003c 01A8     		add	r0, sp, #4
 202:.\main.c      ****     const char ON[3] = "ON";
 905              		.loc 2 202 0
 906 003e 2370     		strb	r3, [r4]
 203:.\main.c      ****     const char OFF[4] = "OFF";
 907              		.loc 2 203 0
 908 0040 FFF7FEFF 		bl	memcpy
 909              	.LVL78:
 204:.\main.c      ****     const char Conected[9] = "Conected";
 910              		.loc 2 204 0
 911 0044 2D4B     		ldr	r3, .L78+8
ARM GAS  C:\Users\Vitali\AppData\Local\Temp\cc2WPJTl.s 			page 33


 205:.\main.c      ****     const char Error[6] = "Error";
 912              		.loc 2 205 0
 913 0046 2E49     		ldr	r1, .L78+12
 914 0048 0922     		mov	r2, #9
 915 004a 08A8     		add	r0, sp, #32
 204:.\main.c      ****     const char Conected[9] = "Conected";
 916              		.loc 2 204 0
 917 004c 0293     		str	r3, [sp, #8]
 205:.\main.c      ****     const char Error[6] = "Error";
 918              		.loc 2 205 0
 919 004e FFF7FEFF 		bl	memcpy
 920              	.LVL79:
 206:.\main.c      ****     
 921              		.loc 2 206 0
 922 0052 2C49     		ldr	r1, .L78+16
 923 0054 0622     		mov	r2, #6
 924 0056 03A8     		add	r0, sp, #12
 925 0058 FFF7FEFF 		bl	memcpy
 926              	.LVL80:
 208:.\main.c      **** 	strncat(DisplayTimeBufer, timeBuffer, 8);
 927              		.loc 2 208 0
 928 005c 05A8     		add	r0, sp, #20
 929 005e FFF7FEFF 		bl	Get_AlarmTimeString
 930              	.LVL81:
 209:.\main.c      **** 	strcat(DisplayTimeBufer, "  ");
 931              		.loc 2 209 0
 932 0062 0822     		mov	r2, #8
 933 0064 05A9     		add	r1, sp, #20
 934 0066 201C     		mov	r0, r4
 935 0068 FFF7FEFF 		bl	strncat
 936              	.LVL82:
 210:.\main.c      **** 	Get_RealTimeString(timeBuffer);
 937              		.loc 2 210 0
 938 006c 2649     		ldr	r1, .L78+20
 939 006e 201C     		mov	r0, r4
 940 0070 FFF7FEFF 		bl	strcat
 941              	.LVL83:
 211:.\main.c      **** 	strcat(DisplayTimeBufer, timeBuffer);
 942              		.loc 2 211 0
 943 0074 05A8     		add	r0, sp, #20
 944 0076 FFF7FEFF 		bl	Get_RealTimeString
 945              	.LVL84:
 212:.\main.c      **** 	
 946              		.loc 2 212 0
 947 007a 201C     		mov	r0, r4
 948 007c 05A9     		add	r1, sp, #20
 949 007e FFF7FEFF 		bl	strcat
 950              	.LVL85:
 214:.\main.c      **** 	{
 951              		.loc 2 214 0
 952 0082 224B     		ldr	r3, .L78+24
 953 0084 987B     		ldrb	r0, [r3, #14]
 954 0086 1D1C     		mov	r5, r3
 955 0088 C0B2     		uxtb	r0, r0
 956 008a 0428     		cmp	r0, #4
 957 008c 0DD8     		bhi	.L63
 958 008e FFF7FEFF 		bl	__gnu_thumb1_case_uqi
ARM GAS  C:\Users\Vitali\AppData\Local\Temp\cc2WPJTl.s 			page 34


 959              	.L65:
 960 0092 03       		.byte	(.L64-.L65)/2
 961 0093 06       		.byte	(.L66-.L65)/2
 962 0094 0C       		.byte	(.L63-.L65)/2
 963 0095 09       		.byte	(.L67-.L65)/2
 964 0096 0C       		.byte	(.L63-.L65)/2
 965 0097 00       		.p2align 1
 966              	.L64:
 217:.\main.c      **** 			break;
 967              		.loc 2 217 0
 968 0098 0BA8     		add	r0, sp, #44
 969 009a 02A9     		add	r1, sp, #8
 970 009c 07E0     		b	.L75
 971              	.L66:
 220:.\main.c      **** 			break;
 972              		.loc 2 220 0
 973 009e 0BA8     		add	r0, sp, #44
 974 00a0 01A9     		add	r1, sp, #4
 975 00a2 04E0     		b	.L75
 976              	.L67:
 223:.\main.c      **** 			break;
 977              		.loc 2 223 0
 978 00a4 0BA8     		add	r0, sp, #44
 979 00a6 08A9     		add	r1, sp, #32
 980 00a8 01E0     		b	.L75
 981              	.L63:
 229:.\main.c      **** 			break;
 982              		.loc 2 229 0
 983 00aa 0BA8     		add	r0, sp, #44
 984 00ac 03A9     		add	r1, sp, #12
 985              	.L75:
 986 00ae FFF7FEFF 		bl	strcat
 987              	.LVL86:
 233:.\main.c      **** 	{
 988              		.loc 2 233 0
 989 00b2 EB7B     		ldrb	r3, [r5, #15]
 990 00b4 DBB2     		uxtb	r3, r3
 991 00b6 002B     		cmp	r3, #0
 992 00b8 04D0     		beq	.L71
 993 00ba 012B     		cmp	r3, #1
 994 00bc 05D1     		bne	.L77
 239:.\main.c      **** 			break;
 995              		.loc 2 239 0
 996 00be 10A8     		add	r0, sp, #64
 997 00c0 01A9     		add	r1, sp, #4
 998 00c2 04E0     		b	.L76
 999              	.L71:
 236:.\main.c      **** 			break;
 1000              		.loc 2 236 0
 1001 00c4 10A8     		add	r0, sp, #64
 1002 00c6 02A9     		add	r1, sp, #8
 1003 00c8 01E0     		b	.L76
 1004              	.L77:
 242:.\main.c      **** 			break;
 1005              		.loc 2 242 0
 1006 00ca 10A8     		add	r0, sp, #64
 1007 00cc 03A9     		add	r1, sp, #12
ARM GAS  C:\Users\Vitali\AppData\Local\Temp\cc2WPJTl.s 			page 35


 1008              	.L76:
 1009 00ce FFF7FEFF 		bl	strcat
 1010              	.LVL87:
 246:.\main.c      ****     Add_To_DDR(OPT_Out_String);    
 1011              		.loc 2 246 0
 1012 00d2 201C     		mov	r0, r4
 1013 00d4 FFF7FEFF 		bl	Add_To_DDR
 1014              	.LVL88:
 247:.\main.c      ****     Add_To_DDR(BLE_Status);
 1015              		.loc 2 247 0
 1016 00d8 0D48     		ldr	r0, .L78+28
 1017 00da FFF7FEFF 		bl	Add_To_DDR
 1018              	.LVL89:
 248:.\main.c      ****     Add_To_DDR(Lamp_Status);
 1019              		.loc 2 248 0
 1020 00de 0BA8     		add	r0, sp, #44
 1021 00e0 FFF7FEFF 		bl	Add_To_DDR
 1022              	.LVL90:
 249:.\main.c      ****     Print_DDR();
 1023              		.loc 2 249 0
 1024 00e4 10A8     		add	r0, sp, #64
 1025 00e6 FFF7FEFF 		bl	Add_To_DDR
 1026              	.LVL91:
 250:.\main.c      **** }
 1027              		.loc 2 250 0
 1028 00ea FFF7FEFF 		bl	Print_DDR
 1029              	.LVL92:
 251:.\main.c      **** 
 1030              		.loc 2 251 0
 1031 00ee 1BB0     		add	sp, sp, #108
 1032              		@ sp needed
 1033 00f0 30BD     		pop	{r4, r5, pc}
 1034              	.L79:
 1035 00f2 C046     		.align	2
 1036              	.L78:
 1037 00f4 00000000 		.word	.LANCHOR0
 1038 00f8 45000000 		.word	.LC30
 1039 00fc 4F464600 		.word	4605519
 1040 0100 48000000 		.word	.LC32
 1041 0104 51000000 		.word	.LC34
 1042 0108 42000000 		.word	.LC36
 1043 010c 00000000 		.word	GlobalStruct
 1044 0110 00000000 		.word	OPT_Out_String
 1045              		.cfi_endproc
 1046              	.LFE66:
 1047              		.size	Main_Display_Print, .-Main_Display_Print
 1048              		.section	.text.BLE_Status,"ax",%progbits
 1049              		.align	1
 1050              		.global	BLE_Status
 1051              		.code	16
 1052              		.thumb_func
 1053              		.type	BLE_Status, %function
 1054              	BLE_Status:
 1055              	.LFB70:
 292:.\main.c      **** 
 293:.\main.c      **** void BLE_Status()
 294:.\main.c      **** {
ARM GAS  C:\Users\Vitali\AppData\Local\Temp\cc2WPJTl.s 			page 36


 1056              		.loc 2 294 0
 1057              		.cfi_startproc
 1058 0000 30B5     		push	{r4, r5, lr}
 1059              		.cfi_def_cfa_offset 12
 1060              		.cfi_offset 4, -12
 1061              		.cfi_offset 5, -8
 1062              		.cfi_offset 14, -4
 295:.\main.c      ****     char Comand[10] = "AT";
 1063              		.loc 2 295 0
 1064 0002 134B     		ldr	r3, .L92
 294:.\main.c      ****     char Comand[10] = "AT";
 1065              		.loc 2 294 0
 1066 0004 85B0     		sub	sp, sp, #20
 1067              		.cfi_def_cfa_offset 32
 1068              		.loc 2 295 0
 1069 0006 0193     		str	r3, [sp, #4]
 1070 0008 0023     		mov	r3, #0
 1071 000a 01AC     		add	r4, sp, #4
 296:.\main.c      ****     uint16 Inc = 0;
 297:.\main.c      ****     UART_UartPutString(Comand);
 1072              		.loc 2 297 0
 1073 000c 201C     		mov	r0, r4
 295:.\main.c      ****     uint16 Inc = 0;
 1074              		.loc 2 295 0
 1075 000e 6360     		str	r3, [r4, #4]
 1076 0010 2381     		strh	r3, [r4, #8]
 1077              	.LVL93:
 1078              		.loc 2 297 0
 1079 0012 FFF7FEFF 		bl	UART_UartPutString
 1080              	.LVL94:
 298:.\main.c      ****     while(UART_SpiUartGetRxBufferSize() == 0)
 1081              		.loc 2 298 0
 1082 0016 0F4D     		ldr	r5, .L92+4
 1083              	.LVL95:
 1084              	.L81:
 1085 0018 FFF7FEFF 		bl	UART_SpiUartGetRxBufferSize
 1086              	.LVL96:
 1087 001c 0028     		cmp	r0, #0
 1088 001e 04D1     		bne	.L90
 1089              	.LVL97:
 1090 0020 013D     		sub	r5, r5, #1
 1091              	.LVL98:
 1092 0022 ADB2     		uxth	r5, r5
 299:.\main.c      ****     {
 300:.\main.c      ****         Inc++;
 301:.\main.c      ****         if(Inc>1000) return;
 1093              		.loc 2 301 0
 1094 0024 002D     		cmp	r5, #0
 1095 0026 F7D1     		bne	.L81
 1096 0028 0FE0     		b	.L80
 1097              	.LVL99:
 1098              	.L90:
 1099 002a 0025     		mov	r5, #0
 1100              	.LVL100:
 1101              	.L84:
 302:.\main.c      ****     }
 303:.\main.c      ****     Inc = 0;
ARM GAS  C:\Users\Vitali\AppData\Local\Temp\cc2WPJTl.s 			page 37


 304:.\main.c      ****     while(UART_SpiUartGetRxBufferSize() > 0)
 1102              		.loc 2 304 0
 1103 002c FFF7FEFF 		bl	UART_SpiUartGetRxBufferSize
 1104              	.LVL101:
 1105 0030 0028     		cmp	r0, #0
 1106 0032 05D0     		beq	.L91
 305:.\main.c      ****     {
 306:.\main.c      ****         Comand[Inc] = (char)UART_SpiUartReadRxData();
 1107              		.loc 2 306 0
 1108 0034 FFF7FEFF 		bl	UART_SpiUartReadRxData
 1109              	.LVL102:
 1110 0038 6055     		strb	r0, [r4, r5]
 307:.\main.c      ****         Inc++;
 1111              		.loc 2 307 0
 1112 003a 0135     		add	r5, r5, #1
 1113              	.LVL103:
 1114 003c ADB2     		uxth	r5, r5
 1115              	.LVL104:
 1116 003e F5E7     		b	.L84
 1117              	.L91:
 308:.\main.c      ****     }
 309:.\main.c      ****     Add_To_DDR(Comand);
 1118              		.loc 2 309 0
 1119 0040 201C     		mov	r0, r4
 1120 0042 FFF7FEFF 		bl	Add_To_DDR
 1121              	.LVL105:
 310:.\main.c      ****     Print_DDR();
 1122              		.loc 2 310 0
 1123 0046 FFF7FEFF 		bl	Print_DDR
 1124              	.LVL106:
 1125              	.L80:
 311:.\main.c      **** }
 1126              		.loc 2 311 0
 1127 004a 05B0     		add	sp, sp, #20
 1128              		@ sp needed
 1129 004c 30BD     		pop	{r4, r5, pc}
 1130              	.L93:
 1131 004e C046     		.align	2
 1132              	.L92:
 1133 0050 41540000 		.word	21569
 1134 0054 E9030000 		.word	1001
 1135              		.cfi_endproc
 1136              	.LFE70:
 1137              		.size	BLE_Status, .-BLE_Status
 1138              		.section	.text.Initial,"ax",%progbits
 1139              		.align	1
 1140              		.global	Initial
 1141              		.code	16
 1142              		.thumb_func
 1143              		.type	Initial, %function
 1144              	Initial:
 1145              	.LFB71:
 312:.\main.c      **** 
 313:.\main.c      **** void Initial()
 314:.\main.c      **** {
 1146              		.loc 2 314 0
 1147              		.cfi_startproc
ARM GAS  C:\Users\Vitali\AppData\Local\Temp\cc2WPJTl.s 			page 38


 1148 0000 08B5     		push	{r3, lr}
 1149              		.cfi_def_cfa_offset 8
 1150              		.cfi_offset 3, -8
 1151              		.cfi_offset 14, -4
 315:.\main.c      **** 	CyGlobalIntEnable;
 1152              		.loc 2 315 0
 1153              	@ 315 ".\main.c" 1
 1154 0002 62B6     		CPSIE   i
 1155              	@ 0 "" 2
 316:.\main.c      ****     //Check_Boot();
 317:.\main.c      ****     Timer_RTOS_Start();
 1156              		.loc 2 317 0
 1157              		.code	16
 1158 0004 FFF7FEFF 		bl	Timer_RTOS_Start
 1159              	.LVL107:
 318:.\main.c      ****     PWM_Start();
 1160              		.loc 2 318 0
 1161 0008 FFF7FEFF 		bl	PWM_Start
 1162              	.LVL108:
 319:.\main.c      ****     I2C_Start();
 1163              		.loc 2 319 0
 1164 000c FFF7FEFF 		bl	I2C_Start
 1165              	.LVL109:
 320:.\main.c      ****     UART_Start();
 1166              		.loc 2 320 0
 1167 0010 FFF7FEFF 		bl	UART_Start
 1168              	.LVL110:
 321:.\main.c      ****     RTC_Start();
 1169              		.loc 2 321 0
 1170 0014 FFF7FEFF 		bl	RTC_Start
 1171              	.LVL111:
 322:.\main.c      ****     RTC_SetPeriod(1,1000);
 1172              		.loc 2 322 0
 1173 0018 FA21     		mov	r1, #250
 1174 001a 0120     		mov	r0, #1
 1175 001c 8900     		lsl	r1, r1, #2
 1176 001e FFF7FEFF 		bl	RTC_SetPeriod
 1177              	.LVL112:
 323:.\main.c      ****     RTOS_Start();
 1178              		.loc 2 323 0
 1179 0022 FFF7FEFF 		bl	RTOS_Start
 1180              	.LVL113:
 324:.\main.c      ****     SetTask(Brightles_PID_Controll);
 1181              		.loc 2 324 0
 1182 0026 0A48     		ldr	r0, .L95
 1183 0028 FFF7FEFF 		bl	SetTask
 1184              	.LVL114:
 325:.\main.c      ****     LCD_WS0010Start();
 1185              		.loc 2 325 0
 1186 002c FFF7FEFF 		bl	LCD_WS0010Start
 1187              	.LVL115:
 326:.\main.c      ****     SetTask(WaitPowerStab);
 1188              		.loc 2 326 0
 1189 0030 0848     		ldr	r0, .L95+4
 1190 0032 FFF7FEFF 		bl	SetTask
 1191              	.LVL116:
 327:.\main.c      ****     SetTimerTask(OPT_Get_Result, 1300);
ARM GAS  C:\Users\Vitali\AppData\Local\Temp\cc2WPJTl.s 			page 39


 1192              		.loc 2 327 0
 1193 0036 0848     		ldr	r0, .L95+8
 1194 0038 0849     		ldr	r1, .L95+12
 1195 003a FFF7FEFF 		bl	SetTimerTask
 1196              	.LVL117:
 328:.\main.c      ****     //BLE_Status();
 329:.\main.c      ****     GlobalStruct.OS_Status = 0;
 330:.\main.c      ****     SetTimerTask(Display_Controll, 2000);
 1197              		.loc 2 330 0
 1198 003e FA21     		mov	r1, #250
 329:.\main.c      ****     SetTimerTask(Display_Controll, 2000);
 1199              		.loc 2 329 0
 1200 0040 0022     		mov	r2, #0
 1201 0042 074B     		ldr	r3, .L95+16
 1202              		.loc 2 330 0
 1203 0044 0748     		ldr	r0, .L95+20
 1204 0046 C900     		lsl	r1, r1, #3
 329:.\main.c      ****     SetTimerTask(Display_Controll, 2000);
 1205              		.loc 2 329 0
 1206 0048 1A74     		strb	r2, [r3, #16]
 331:.\main.c      **** }
 1207              		.loc 2 331 0
 1208              		@ sp needed
 330:.\main.c      **** }
 1209              		.loc 2 330 0
 1210 004a FFF7FEFF 		bl	SetTimerTask
 1211              	.LVL118:
 1212              		.loc 2 331 0
 1213 004e 08BD     		pop	{r3, pc}
 1214              	.L96:
 1215              		.align	2
 1216              	.L95:
 1217 0050 00000000 		.word	Brightles_PID_Controll
 1218 0054 00000000 		.word	WaitPowerStab
 1219 0058 00000000 		.word	OPT_Get_Result
 1220 005c 14050000 		.word	1300
 1221 0060 00000000 		.word	GlobalStruct
 1222 0064 00000000 		.word	Display_Controll
 1223              		.cfi_endproc
 1224              	.LFE71:
 1225              		.size	Initial, .-Initial
 1226              		.section	.text.startup.main,"ax",%progbits
 1227              		.align	1
 1228              		.global	main
 1229              		.code	16
 1230              		.thumb_func
 1231              		.type	main, %function
 1232              	main:
 1233              	.LFB72:
 332:.\main.c      **** 
 333:.\main.c      **** 
 334:.\main.c      **** int main()
 335:.\main.c      **** {
 1234              		.loc 2 335 0
 1235              		.cfi_startproc
 1236 0000 08B5     		push	{r3, lr}
 1237              		.cfi_def_cfa_offset 8
ARM GAS  C:\Users\Vitali\AppData\Local\Temp\cc2WPJTl.s 			page 40


 1238              		.cfi_offset 3, -8
 1239              		.cfi_offset 14, -4
 336:.\main.c      **** 	Initial();
 1240              		.loc 2 336 0
 1241 0002 FFF7FEFF 		bl	Initial
 1242              	.LVL119:
 1243              	.L98:
 337:.\main.c      ****     for(;;)
 338:.\main.c      ****     {
 339:.\main.c      ****         TaskManager();
 1244              		.loc 2 339 0 discriminator 1
 1245 0006 FFF7FEFF 		bl	TaskManager
 1246              	.LVL120:
 340:.\main.c      ****     }
 1247              		.loc 2 340 0 discriminator 1
 1248 000a FCE7     		b	.L98
 1249              		.cfi_endproc
 1250              	.LFE72:
 1251              		.size	main, .-main
 1252              		.comm	AlarmTime,16,4
 1253              		.comm	TimeStruct,4,4
 1254              		.comm	GlobalStruct,20,4
 1255              		.comm	System_Timer,40,4
 1256              		.comm	System_Timer_Flag,5,1
 1257              		.comm	Frame_Tail,1,1
 1258              		.comm	FrameDDR,80,1
 1259              		.comm	OPT_Out_String,25,1
 1260              		.section	.rodata
 1261              		.set	.LANCHOR0,. + 0
 1262              	.LC27:
 1263 0000 424C455F 		.ascii	"BLE_Status: \000"
 1263      53746174 
 1263      75733A20 
 1263      00
 1264 000d 00000000 		.space	7
 1264      000000
 1265              	.LC29:
 1266 0014 5556204C 		.ascii	"UV Lamp: \000"
 1266      616D703A 
 1266      2000
 1267 001e 00000000 		.space	10
 1267      00000000 
 1267      0000
 1268              		.section	.rodata.str1.1,"aMS",%progbits,1
 1269              	.LC2:
 1270 0000 4F532053 		.ascii	"OS Start\000"
 1270      74617274 
 1270      00
 1271              	.LC10:
 1272 0009 4F707469 		.ascii	"Optic Error\000"
 1272      63204572 
 1272      726F7200 
 1273              	.LC12:
 1274 0015 4F707469 		.ascii	"Optic OK\000"
 1274      63204F4B 
 1274      00
 1275              	.LC14:
ARM GAS  C:\Users\Vitali\AppData\Local\Temp\cc2WPJTl.s 			page 41


 1276 001e 44657669 		.ascii	"Device OPT3001 EN\000"
 1276      6365204F 
 1276      50543330 
 1276      30312045 
 1276      4E00
 1277              	.LC22:
 1278 0030 2530326C 		.ascii	"%02lu:%02lu:%02lu\000"
 1278      753A2530 
 1278      326C753A 
 1278      2530326C 
 1278      7500
 1279              	.LC36:
 1280 0042 202000   		.ascii	"  \000"
 1281              	.LC30:
 1282 0045 4F4E00   		.ascii	"ON\000"
 1283              	.LC32:
 1284 0048 436F6E65 		.ascii	"Conected\000"
 1284      63746564 
 1284      00
 1285              	.LC34:
 1286 0051 4572726F 		.ascii	"Error\000"
 1286      7200
 1287              		.bss
 1288              		.align	2
 1289              		.type	MainTimer, %object
 1290              		.size	MainTimer, 168
 1291              	MainTimer:
 1292 0000 00000000 		.space	168
 1292      00000000 
 1292      00000000 
 1292      00000000 
 1292      00000000 
 1293              		.type	TaskQueue, %object
 1294              		.size	TaskQueue, 44
 1295              	TaskQueue:
 1296 00a8 00000000 		.space	44
 1296      00000000 
 1296      00000000 
 1296      00000000 
 1296      00000000 
 1297              		.text
 1298              	.Letext0:
 1299              		.file 3 "Generated_Source\\PSoC4/cytypes.h"
 1300              		.file 4 "c:\\program files (x86)\\cypress\\psoc creator\\3.3\\psoc creator\\import\\gnu\\arm\\4.9.
 1301              		.file 5 ".\\SysClock.h"
 1302              		.file 6 ".\\TaskDispatcher.h"
 1303              		.file 7 ".\\OPT3001.h"
 1304              		.file 8 ".\\WS0010.h"
 1305              		.file 9 "Generated_Source\\PSoC4/PWM.h"
 1306              		.file 10 "Generated_Source\\PSoC4/Bootloader_En.h"
 1307              		.file 11 "c:\\program files (x86)\\cypress\\psoc creator\\3.3\\psoc creator\\import\\gnu\\arm\\4.9
 1308              		.file 12 "c:\\program files (x86)\\cypress\\psoc creator\\3.3\\psoc creator\\import\\gnu\\arm\\4.9
 1309              		.file 13 "Generated_Source\\PSoC4/UART_SPI_UART.h"
 1310              		.file 14 "Generated_Source\\PSoC4/Timer_RTOS.h"
 1311              		.file 15 "Generated_Source\\PSoC4/I2C.h"
 1312              		.file 16 "Generated_Source\\PSoC4/UART.h"