ARM GAS  C:\DOCUME~1\Remixvit\LOCALS~1\Temp\cclovw0X.s 			page 1


   1              		.cpu cortex-m0
   2              		.fpu softvfp
   3              		.eabi_attribute 20, 1
   4              		.eabi_attribute 21, 1
   5              		.eabi_attribute 23, 3
   6              		.eabi_attribute 24, 1
   7              		.eabi_attribute 25, 1
   8              		.eabi_attribute 26, 1
   9              		.eabi_attribute 30, 4
  10              		.eabi_attribute 34, 0
  11              		.eabi_attribute 18, 4
  12              		.code	16
  13              		.file	"OPT3001.c"
  14              		.text
  15              	.Ltext0:
  16              		.cfi_sections	.debug_frame
  17              		.section	.text.I2C_ReadRegister,"ax",%progbits
  18              		.align	1
  19              		.global	I2C_ReadRegister
  20              		.code	16
  21              		.thumb_func
  22              		.type	I2C_ReadRegister, %function
  23              	I2C_ReadRegister:
  24              	.LFB60:
  25              		.file 1 ".\\OPT3001.c"
   1:.\OPT3001.c   **** /* ========================================
   2:.\OPT3001.c   ****  *
   3:.\OPT3001.c   ****  * Copyright YOUR COMPANY, THE YEAR
   4:.\OPT3001.c   ****  * All Rights Reserved
   5:.\OPT3001.c   ****  * UNPUBLISHED, LICENSED SOFTWARE.
   6:.\OPT3001.c   ****  *
   7:.\OPT3001.c   ****  * CONFIDENTIAL AND PROPRIETARY INFORMATION
   8:.\OPT3001.c   ****  * WHICH IS THE PROPERTY OF your company.
   9:.\OPT3001.c   ****  *
  10:.\OPT3001.c   ****  * ========================================
  11:.\OPT3001.c   **** */
  12:.\OPT3001.c   **** #include <OPT3001.h>
  13:.\OPT3001.c   **** 
  14:.\OPT3001.c   **** uint8 OPT_IsReady(void)
  15:.\OPT3001.c   **** {
  16:.\OPT3001.c   ****     uint16 Val;
  17:.\OPT3001.c   ****     if(I2C_ReadRegister(OPT3001_I2C_ADDRESS, REG_CONFIGURATION, &Val))
  18:.\OPT3001.c   ****     {
  19:.\OPT3001.c   ****         if(Val & CONFIG_CRF)
  20:.\OPT3001.c   ****         {
  21:.\OPT3001.c   ****             return 1;
  22:.\OPT3001.c   ****         }
  23:.\OPT3001.c   ****         else
  24:.\OPT3001.c   ****         {
  25:.\OPT3001.c   ****             return 0;
  26:.\OPT3001.c   ****         }
  27:.\OPT3001.c   ****     }
  28:.\OPT3001.c   ****     return 0;
  29:.\OPT3001.c   **** }
  30:.\OPT3001.c   **** void OPT_Enable(uint8 enable);
  31:.\OPT3001.c   **** 
  32:.\OPT3001.c   **** uint8 I2C_ReadRegister(uint8 ADR, uint8 Reg, uint16 *RetValue)
ARM GAS  C:\DOCUME~1\Remixvit\LOCALS~1\Temp\cclovw0X.s 			page 2


  33:.\OPT3001.c   **** {
  26              		.loc 1 33 0
  27              		.cfi_startproc
  28              	.LVL0:
  29 0000 F0B5     		push	{r4, r5, r6, r7, lr}
  30              		.cfi_def_cfa_offset 20
  31              		.cfi_offset 4, -20
  32              		.cfi_offset 5, -16
  33              		.cfi_offset 6, -12
  34              		.cfi_offset 7, -8
  35              		.cfi_offset 14, -4
  36 0002 85B0     		sub	sp, sp, #20
  37              		.cfi_def_cfa_offset 40
  34:.\OPT3001.c   ****     /*Read 16bit Register in i2c slave adress*/
  35:.\OPT3001.c   ****     uint8 Status;
  36:.\OPT3001.c   ****     volatile uint8 Buf[2];
  37:.\OPT3001.c   ****     volatile uint8 Iter = 0;
  38              		.loc 1 37 0
  39 0004 02AB     		add	r3, sp, #8
  40 0006 DD1C     		add	r5, r3, #3
  33:.\OPT3001.c   ****     /*Read 16bit Register in i2c slave adress*/
  41              		.loc 1 33 0
  42 0008 061C     		mov	r6, r0
  43 000a 0F1C     		mov	r7, r1
  44              		.loc 1 37 0
  45 000c 0023     		mov	r3, #0
  33:.\OPT3001.c   ****     /*Read 16bit Register in i2c slave adress*/
  46              		.loc 1 33 0
  47 000e 0192     		str	r2, [sp, #4]
  48              	.LVL1:
  49              	.L9:
  38:.\OPT3001.c   ****     while((Status !=0) && (Iter < 10))
  39:.\OPT3001.c   ****     {
  40:.\OPT3001.c   ****         Status = I2C_I2CMasterSendStart(ADR, I2C_I2C_WRITE_XFER_MODE);
  41:.\OPT3001.c   ****         Iter++;
  50              		.loc 1 41 0
  51 0010 2B70     		strb	r3, [r5]
  52              	.LVL2:
  38:.\OPT3001.c   ****     while((Status !=0) && (Iter < 10))
  53              		.loc 1 38 0
  54 0012 002C     		cmp	r4, #0
  55 0014 0DD0     		beq	.L3
  38:.\OPT3001.c   ****     while((Status !=0) && (Iter < 10))
  56              		.loc 1 38 0 is_stmt 0 discriminator 1
  57 0016 2B78     		ldrb	r3, [r5]
  58 0018 092B     		cmp	r3, #9
  59 001a 08D8     		bhi	.L7
  40:.\OPT3001.c   ****         Iter++;
  60              		.loc 1 40 0 is_stmt 1
  61 001c 301C     		mov	r0, r6
  62 001e 0021     		mov	r1, #0
  63 0020 FFF7FEFF 		bl	I2C_I2CMasterSendStart
  64              	.LVL3:
  65              		.loc 1 41 0
  66 0024 2B78     		ldrb	r3, [r5]
  40:.\OPT3001.c   ****         Iter++;
  67              		.loc 1 40 0
ARM GAS  C:\DOCUME~1\Remixvit\LOCALS~1\Temp\cclovw0X.s 			page 3


  68 0026 C4B2     		uxtb	r4, r0
  69              	.LVL4:
  70              		.loc 1 41 0
  71 0028 0133     		add	r3, r3, #1
  72 002a DBB2     		uxtb	r3, r3
  73 002c F0E7     		b	.L9
  74              	.LVL5:
  75              	.L7:
  42:.\OPT3001.c   ****     }    
  43:.\OPT3001.c   ****     if(Status == I2C_I2C_MSTR_NO_ERROR)
  44:.\OPT3001.c   ****     {
  45:.\OPT3001.c   ****         I2C_I2CMasterWriteByte(Reg);
  46:.\OPT3001.c   ****         Status = I2C_I2CMasterSendRestart(ADR,I2C_I2C_READ_XFER_MODE);
  47:.\OPT3001.c   ****         if(Status == I2C_I2C_MSTR_NO_ERROR)
  48:.\OPT3001.c   ****             {
  49:.\OPT3001.c   ****                 Buf[0] = I2C_I2CMasterReadByte(I2C_I2C_ACK_DATA);
  50:.\OPT3001.c   ****                 Buf[1] = I2C_I2CMasterReadByte(I2C_I2C_NAK_DATA);
  51:.\OPT3001.c   ****                 (*RetValue) = (Buf[0]<<8) | Buf[1];
  52:.\OPT3001.c   ****                 I2C_I2CMasterSendStop();
  53:.\OPT3001.c   ****                 return 1;
  54:.\OPT3001.c   ****             }
  55:.\OPT3001.c   ****             else
  56:.\OPT3001.c   ****             {
  57:.\OPT3001.c   ****                 return 0;
  58:.\OPT3001.c   ****             }
  59:.\OPT3001.c   ****     }
  60:.\OPT3001.c   ****     else
  61:.\OPT3001.c   ****     {
  62:.\OPT3001.c   ****         return 0;
  76              		.loc 1 62 0
  77 002e 0020     		mov	r0, #0
  78 0030 1DE0     		b	.L8
  79              	.LVL6:
  80              	.L3:
  45:.\OPT3001.c   ****         Status = I2C_I2CMasterSendRestart(ADR,I2C_I2C_READ_XFER_MODE);
  81              		.loc 1 45 0
  82 0032 381C     		mov	r0, r7
  83 0034 FFF7FEFF 		bl	I2C_I2CMasterWriteByte
  84              	.LVL7:
  46:.\OPT3001.c   ****         if(Status == I2C_I2C_MSTR_NO_ERROR)
  85              		.loc 1 46 0
  86 0038 301C     		mov	r0, r6
  87 003a 0121     		mov	r1, #1
  88 003c FFF7FEFF 		bl	I2C_I2CMasterSendRestart
  89              	.LVL8:
  47:.\OPT3001.c   ****             {
  90              		.loc 1 47 0
  91 0040 C0B2     		uxtb	r0, r0
  92 0042 0028     		cmp	r0, #0
  93 0044 F3D1     		bne	.L7
  94              	.LVL9:
  95              	.LBB4:
  96              	.LBB5:
  49:.\OPT3001.c   ****                 Buf[1] = I2C_I2CMasterReadByte(I2C_I2C_NAK_DATA);
  97              		.loc 1 49 0
  98 0046 201C     		mov	r0, r4
  99              	.LVL10:
ARM GAS  C:\DOCUME~1\Remixvit\LOCALS~1\Temp\cclovw0X.s 			page 4


 100 0048 FFF7FEFF 		bl	I2C_I2CMasterReadByte
 101              	.LVL11:
 102 004c 03AC     		add	r4, sp, #12
 103 004e C0B2     		uxtb	r0, r0
 104 0050 2070     		strb	r0, [r4]
  50:.\OPT3001.c   ****                 (*RetValue) = (Buf[0]<<8) | Buf[1];
 105              		.loc 1 50 0
 106 0052 0120     		mov	r0, #1
 107 0054 FFF7FEFF 		bl	I2C_I2CMasterReadByte
 108              	.LVL12:
 109 0058 C0B2     		uxtb	r0, r0
 110 005a 6070     		strb	r0, [r4, #1]
  51:.\OPT3001.c   ****                 I2C_I2CMasterSendStop();
 111              		.loc 1 51 0
 112 005c 2378     		ldrb	r3, [r4]
 113 005e 6278     		ldrb	r2, [r4, #1]
 114 0060 1B02     		lsl	r3, r3, #8
 115 0062 1343     		orr	r3, r2
 116 0064 019A     		ldr	r2, [sp, #4]
 117 0066 1380     		strh	r3, [r2]
  52:.\OPT3001.c   ****                 return 1;
 118              		.loc 1 52 0
 119 0068 FFF7FEFF 		bl	I2C_I2CMasterSendStop
 120              	.LVL13:
 121 006c 0120     		mov	r0, #1
 122              	.LVL14:
 123              	.L8:
 124              	.LBE5:
 125              	.LBE4:
  63:.\OPT3001.c   ****     }
  64:.\OPT3001.c   **** }
 126              		.loc 1 64 0
 127 006e 05B0     		add	sp, sp, #20
 128              		@ sp needed
 129 0070 F0BD     		pop	{r4, r5, r6, r7, pc}
 130              		.cfi_endproc
 131              	.LFE60:
 132              		.size	I2C_ReadRegister, .-I2C_ReadRegister
 133              		.section	.text.OPT_IsReady,"ax",%progbits
 134              		.align	1
 135              		.global	OPT_IsReady
 136              		.code	16
 137              		.thumb_func
 138              		.type	OPT_IsReady, %function
 139              	OPT_IsReady:
 140              	.LFB59:
  15:.\OPT3001.c   ****     uint16 Val;
 141              		.loc 1 15 0
 142              		.cfi_startproc
 143 0000 13B5     		push	{r0, r1, r4, lr}
 144              		.cfi_def_cfa_offset 16
 145              		.cfi_offset 0, -16
 146              		.cfi_offset 1, -12
 147              		.cfi_offset 4, -8
 148              		.cfi_offset 14, -4
  17:.\OPT3001.c   ****     {
 149              		.loc 1 17 0
ARM GAS  C:\DOCUME~1\Remixvit\LOCALS~1\Temp\cclovw0X.s 			page 5


 150 0002 6B46     		mov	r3, sp
 151 0004 9C1D     		add	r4, r3, #6
 152 0006 4520     		mov	r0, #69
 153 0008 0121     		mov	r1, #1
 154 000a 221C     		mov	r2, r4
 155 000c FFF7FEFF 		bl	I2C_ReadRegister
 156              	.LVL15:
 157 0010 0028     		cmp	r0, #0
 158 0012 01D0     		beq	.L12
  19:.\OPT3001.c   ****         {
 159              		.loc 1 19 0
 160 0014 2088     		ldrh	r0, [r4]
  21:.\OPT3001.c   ****         }
 161              		.loc 1 21 0
 162 0016 C00B     		lsr	r0, r0, #15
 163              	.L12:
  29:.\OPT3001.c   **** void OPT_Enable(uint8 enable);
 164              		.loc 1 29 0
 165              		@ sp needed
 166 0018 16BD     		pop	{r1, r2, r4, pc}
 167              		.cfi_endproc
 168              	.LFE59:
 169              		.size	OPT_IsReady, .-OPT_IsReady
 170              		.section	.text.I2C_WriteRegister,"ax",%progbits
 171              		.align	1
 172              		.global	I2C_WriteRegister
 173              		.code	16
 174              		.thumb_func
 175              		.type	I2C_WriteRegister, %function
 176              	I2C_WriteRegister:
 177              	.LFB61:
  65:.\OPT3001.c   **** 
  66:.\OPT3001.c   **** uint8 I2C_WriteRegister(uint8 ADR, uint8 Reg, uint16 *RetValue)
  67:.\OPT3001.c   **** {
 178              		.loc 1 67 0
 179              		.cfi_startproc
 180              	.LVL16:
 181 0000 F0B5     		push	{r4, r5, r6, r7, lr}
 182              		.cfi_def_cfa_offset 20
 183              		.cfi_offset 4, -20
 184              		.cfi_offset 5, -16
 185              		.cfi_offset 6, -12
 186              		.cfi_offset 7, -8
 187              		.cfi_offset 14, -4
 188 0002 85B0     		sub	sp, sp, #20
 189              		.cfi_def_cfa_offset 40
  68:.\OPT3001.c   ****     /*Read 16bit Register in i2c slave adress*/
  69:.\OPT3001.c   ****     volatile uint8 Status = 1;
 190              		.loc 1 69 0
 191 0004 02AB     		add	r3, sp, #8
 192 0006 9C1C     		add	r4, r3, #2
 193 0008 0123     		mov	r3, #1
 194 000a 2370     		strb	r3, [r4]
  70:.\OPT3001.c   ****     volatile uint8 Buf[2];
  71:.\OPT3001.c   ****     volatile uint8 Iter = 0;
 195              		.loc 1 71 0
 196 000c 02AB     		add	r3, sp, #8
ARM GAS  C:\DOCUME~1\Remixvit\LOCALS~1\Temp\cclovw0X.s 			page 6


 197 000e DD1C     		add	r5, r3, #3
  67:.\OPT3001.c   ****     /*Read 16bit Register in i2c slave adress*/
 198              		.loc 1 67 0
 199 0010 071C     		mov	r7, r0
 200 0012 0E1C     		mov	r6, r1
 201              		.loc 1 71 0
 202 0014 0023     		mov	r3, #0
  67:.\OPT3001.c   ****     /*Read 16bit Register in i2c slave adress*/
 203              		.loc 1 67 0
 204 0016 0192     		str	r2, [sp, #4]
 205              	.LVL17:
 206              	.L23:
  72:.\OPT3001.c   ****     while((Status !=0) && (Iter < 10))
  73:.\OPT3001.c   ****     {
  74:.\OPT3001.c   ****         Status = I2C_I2CMasterSendStart(ADR,I2C_I2C_WRITE_XFER_MODE);
  75:.\OPT3001.c   ****         Iter++;
 207              		.loc 1 75 0
 208 0018 2B70     		strb	r3, [r5]
  72:.\OPT3001.c   ****     while((Status !=0) && (Iter < 10))
 209              		.loc 1 72 0
 210 001a 2378     		ldrb	r3, [r4]
 211 001c 002B     		cmp	r3, #0
 212 001e 0CD0     		beq	.L18
  72:.\OPT3001.c   ****     while((Status !=0) && (Iter < 10))
 213              		.loc 1 72 0 is_stmt 0 discriminator 1
 214 0020 2B78     		ldrb	r3, [r5]
 215 0022 092B     		cmp	r3, #9
 216 0024 09D8     		bhi	.L18
  74:.\OPT3001.c   ****         Iter++;
 217              		.loc 1 74 0 is_stmt 1
 218 0026 381C     		mov	r0, r7
 219 0028 0021     		mov	r1, #0
 220 002a FFF7FEFF 		bl	I2C_I2CMasterSendStart
 221              	.LVL18:
 222 002e C0B2     		uxtb	r0, r0
 223 0030 2070     		strb	r0, [r4]
 224              		.loc 1 75 0
 225 0032 2B78     		ldrb	r3, [r5]
 226 0034 0133     		add	r3, r3, #1
 227 0036 DBB2     		uxtb	r3, r3
 228 0038 EEE7     		b	.L23
 229              	.L18:
  76:.\OPT3001.c   ****     }    
  77:.\OPT3001.c   **** 
  78:.\OPT3001.c   ****     Buf[0] = ((*RetValue)>>8);
 230              		.loc 1 78 0
 231 003a 019B     		ldr	r3, [sp, #4]
 232 003c 03AD     		add	r5, sp, #12
 233 003e 1B88     		ldrh	r3, [r3]
  79:.\OPT3001.c   ****     Buf[1] = (uint8)(*RetValue);
  80:.\OPT3001.c   ****     I2C_I2CMasterWriteByte(Reg);
 234              		.loc 1 80 0
 235 0040 301C     		mov	r0, r6
  78:.\OPT3001.c   ****     Buf[1] = (uint8)(*RetValue);
 236              		.loc 1 78 0
 237 0042 1A0A     		lsr	r2, r3, #8
  79:.\OPT3001.c   ****     Buf[1] = (uint8)(*RetValue);
ARM GAS  C:\DOCUME~1\Remixvit\LOCALS~1\Temp\cclovw0X.s 			page 7


 238              		.loc 1 79 0
 239 0044 DBB2     		uxtb	r3, r3
  78:.\OPT3001.c   ****     Buf[1] = (uint8)(*RetValue);
 240              		.loc 1 78 0
 241 0046 2A70     		strb	r2, [r5]
  79:.\OPT3001.c   ****     Buf[1] = (uint8)(*RetValue);
 242              		.loc 1 79 0
 243 0048 6B70     		strb	r3, [r5, #1]
 244              		.loc 1 80 0
 245 004a FFF7FEFF 		bl	I2C_I2CMasterWriteByte
 246              	.LVL19:
  81:.\OPT3001.c   ****     I2C_I2CMasterWriteByte(Buf[0]);
 247              		.loc 1 81 0
 248 004e 2878     		ldrb	r0, [r5]
 249 0050 C0B2     		uxtb	r0, r0
 250 0052 FFF7FEFF 		bl	I2C_I2CMasterWriteByte
 251              	.LVL20:
  82:.\OPT3001.c   ****     I2C_I2CMasterWriteByte(Buf[1]);
 252              		.loc 1 82 0
 253 0056 6878     		ldrb	r0, [r5, #1]
 254 0058 C0B2     		uxtb	r0, r0
 255 005a FFF7FEFF 		bl	I2C_I2CMasterWriteByte
 256              	.LVL21:
  83:.\OPT3001.c   ****     Status = I2C_I2CMasterSendStop();
 257              		.loc 1 83 0
 258 005e FFF7FEFF 		bl	I2C_I2CMasterSendStop
 259              	.LVL22:
 260 0062 C0B2     		uxtb	r0, r0
 261 0064 2070     		strb	r0, [r4]
  84:.\OPT3001.c   ****     
  85:.\OPT3001.c   ****     if(Status == 0)
 262              		.loc 1 85 0
 263 0066 2078     		ldrb	r0, [r4]
 264 0068 4342     		neg	r3, r0
 265 006a 5841     		adc	r0, r0, r3
 266 006c C0B2     		uxtb	r0, r0
  86:.\OPT3001.c   ****     {
  87:.\OPT3001.c   ****         return 1;
  88:.\OPT3001.c   ****     }
  89:.\OPT3001.c   ****     else
  90:.\OPT3001.c   ****     {
  91:.\OPT3001.c   ****         return 0;
  92:.\OPT3001.c   ****     }
  93:.\OPT3001.c   **** }
 267              		.loc 1 93 0
 268 006e 05B0     		add	sp, sp, #20
 269              		@ sp needed
 270 0070 F0BD     		pop	{r4, r5, r6, r7, pc}
 271              		.cfi_endproc
 272              	.LFE61:
 273              		.size	I2C_WriteRegister, .-I2C_WriteRegister
 274              		.section	.text.OPT_ReadResult,"ax",%progbits
 275              		.align	1
 276              		.global	OPT_ReadResult
 277              		.code	16
 278              		.thumb_func
 279              		.type	OPT_ReadResult, %function
ARM GAS  C:\DOCUME~1\Remixvit\LOCALS~1\Temp\cclovw0X.s 			page 8


 280              	OPT_ReadResult:
 281              	.LFB62:
  94:.\OPT3001.c   **** 
  95:.\OPT3001.c   **** uint8 OPT_ReadResult(uint32 *Result)
  96:.\OPT3001.c   **** {
 282              		.loc 1 96 0
 283              		.cfi_startproc
 284              	.LVL23:
 285 0000 73B5     		push	{r0, r1, r4, r5, r6, lr}
 286              		.cfi_def_cfa_offset 24
 287              		.cfi_offset 0, -24
 288              		.cfi_offset 1, -20
 289              		.cfi_offset 4, -16
 290              		.cfi_offset 5, -12
 291              		.cfi_offset 6, -8
 292              		.cfi_offset 14, -4
 293              		.loc 1 96 0
 294 0002 041C     		mov	r4, r0
  97:.\OPT3001.c   ****   uint16_t exponent;
  98:.\OPT3001.c   ****   uint16 raw;
  99:.\OPT3001.c   ****   uint8 success;
 100:.\OPT3001.c   ****     
 101:.\OPT3001.c   ****   if(OPT_IsReady() != 1)
 295              		.loc 1 101 0
 296 0004 FFF7FEFF 		bl	OPT_IsReady
 297              	.LVL24:
 298 0008 051E     		sub	r5, r0, #0
 299 000a 012D     		cmp	r5, #1
 300 000c 34D1     		bne	.L42
 301              	.LVL25:
 302              	.LBB8:
 303              	.LBB9:
 102:.\OPT3001.c   ****   {
 103:.\OPT3001.c   ****     return 0;
 104:.\OPT3001.c   ****   }
 105:.\OPT3001.c   **** 
 106:.\OPT3001.c   ****   success = I2C_ReadRegister(OPT3001_I2C_ADDRESS, REG_CONFIGURATION, &raw);
 304              		.loc 1 106 0
 305 000e 6B46     		mov	r3, sp
 306 0010 9E1D     		add	r6, r3, #6
 307 0012 4520     		mov	r0, #69
 308 0014 291C     		mov	r1, r5
 309 0016 321C     		mov	r2, r6
 310 0018 FFF7FEFF 		bl	I2C_ReadRegister
 311              	.LVL26:
 107:.\OPT3001.c   **** 
 108:.\OPT3001.c   ****   if(success)
 312              		.loc 1 108 0
 313 001c 0028     		cmp	r0, #0
 314 001e 2BD0     		beq	.L42
 109:.\OPT3001.c   ****   {
 110:.\OPT3001.c   ****     success = I2C_ReadRegister(OPT3001_I2C_ADDRESS, REG_RESULT, &raw);
 315              		.loc 1 110 0
 316 0020 4520     		mov	r0, #69
 317              	.LVL27:
 318 0022 0021     		mov	r1, #0
 319 0024 321C     		mov	r2, r6
ARM GAS  C:\DOCUME~1\Remixvit\LOCALS~1\Temp\cclovw0X.s 			page 9


 320 0026 FFF7FEFF 		bl	I2C_ReadRegister
 321              	.LVL28:
 111:.\OPT3001.c   ****   }
 112:.\OPT3001.c   **** 
 113:.\OPT3001.c   ****   if(success) 
 322              		.loc 1 113 0
 323 002a 0028     		cmp	r0, #0
 324 002c 24D0     		beq	.L42
 114:.\OPT3001.c   ****   {
 115:.\OPT3001.c   ****     /*Convert to LUX*/
 116:.\OPT3001.c   **** 	//extract result & exponent data from raw readings
 117:.\OPT3001.c   ****     (*Result) = raw&0x0FFF;
 325              		.loc 1 117 0
 326 002e 3088     		ldrh	r0, [r6]
 327              	.LVL29:
 328 0030 0305     		lsl	r3, r0, #20
 329 0032 1B0D     		lsr	r3, r3, #20
 330              	.LVL30:
 118:.\OPT3001.c   **** 	exponent = (raw>>12)&0x000F;
 119:.\OPT3001.c   ****     
 120:.\OPT3001.c   ****     //convert raw readings to LUX
 121:.\OPT3001.c   ****     switch(exponent){
 331              		.loc 1 121 0
 332 0034 000B     		lsr	r0, r0, #12
 333              	.LVL31:
 334 0036 0B28     		cmp	r0, #11
 335 0038 1CD8     		bhi	.L46
 336 003a FFF7FEFF 		bl	__gnu_thumb1_case_uqi
 337              	.L31:
 338 003e 06       		.byte	(.L30-.L31)/2
 339 003f 08       		.byte	(.L32-.L31)/2
 340 0040 0A       		.byte	(.L33-.L31)/2
 341 0041 0C       		.byte	(.L34-.L31)/2
 342 0042 0E       		.byte	(.L35-.L31)/2
 343 0043 10       		.byte	(.L36-.L31)/2
 344 0044 1B       		.byte	(.L46-.L31)/2
 345 0045 12       		.byte	(.L37-.L31)/2
 346 0046 14       		.byte	(.L38-.L31)/2
 347 0047 16       		.byte	(.L39-.L31)/2
 348 0048 18       		.byte	(.L40-.L31)/2
 349 0049 1A       		.byte	(.L41-.L31)/2
 350              		.p2align 1
 351              	.L30:
 122:.\OPT3001.c   **** 		case 0: //*0.015625
 123:.\OPT3001.c   **** 			(*Result) = (*Result)>>6;
 352              		.loc 1 123 0
 353 004a 9B09     		lsr	r3, r3, #6
 354 004c 12E0     		b	.L46
 355              	.L32:
 124:.\OPT3001.c   **** 			break;
 125:.\OPT3001.c   **** 		case 1: //*0.03125
 126:.\OPT3001.c   **** 			(*Result) = (*Result)>>5;
 356              		.loc 1 126 0
 357 004e 5B09     		lsr	r3, r3, #5
 358 0050 10E0     		b	.L46
 359              	.L33:
 127:.\OPT3001.c   **** 			break;
ARM GAS  C:\DOCUME~1\Remixvit\LOCALS~1\Temp\cclovw0X.s 			page 10


 128:.\OPT3001.c   **** 		case 2: //*0.0625
 129:.\OPT3001.c   **** 			(*Result) = (*Result)>>4;
 360              		.loc 1 129 0
 361 0052 1B09     		lsr	r3, r3, #4
 362 0054 0EE0     		b	.L46
 363              	.L34:
 130:.\OPT3001.c   **** 			break;
 131:.\OPT3001.c   **** 		case 3: //*0.125
 132:.\OPT3001.c   **** 			(*Result) = (*Result)>>3;
 364              		.loc 1 132 0
 365 0056 DB08     		lsr	r3, r3, #3
 366 0058 0CE0     		b	.L46
 367              	.L35:
 133:.\OPT3001.c   **** 			break;
 134:.\OPT3001.c   **** 		case 4: //*0.25
 135:.\OPT3001.c   **** 			(*Result) = (*Result)>>2;
 368              		.loc 1 135 0
 369 005a 9B08     		lsr	r3, r3, #2
 370 005c 0AE0     		b	.L46
 371              	.L36:
 136:.\OPT3001.c   **** 			break;
 137:.\OPT3001.c   **** 		case 5: //*0.5
 138:.\OPT3001.c   **** 			(*Result) = (*Result)>>1;
 372              		.loc 1 138 0
 373 005e 5B08     		lsr	r3, r3, #1
 374 0060 08E0     		b	.L46
 375              	.L37:
 139:.\OPT3001.c   **** 			break;
 140:.\OPT3001.c   **** 		case 6:
 141:.\OPT3001.c   **** 			(*Result) = (*Result);
 142:.\OPT3001.c   **** 			break;
 143:.\OPT3001.c   **** 		case 7: //*2
 144:.\OPT3001.c   **** 			(*Result) = (*Result)<<1;
 376              		.loc 1 144 0
 377 0062 5B00     		lsl	r3, r3, #1
 378 0064 06E0     		b	.L46
 379              	.L38:
 145:.\OPT3001.c   **** 			break;
 146:.\OPT3001.c   **** 		case 8: //*4
 147:.\OPT3001.c   **** 			(*Result) = (*Result)<<2;
 380              		.loc 1 147 0
 381 0066 9B00     		lsl	r3, r3, #2
 382 0068 04E0     		b	.L46
 383              	.L39:
 148:.\OPT3001.c   **** 			break;
 149:.\OPT3001.c   **** 		case 9: //*8
 150:.\OPT3001.c   **** 			(*Result) = (*Result)<<3;
 384              		.loc 1 150 0
 385 006a DB00     		lsl	r3, r3, #3
 386 006c 02E0     		b	.L46
 387              	.L40:
 151:.\OPT3001.c   **** 			break;
 152:.\OPT3001.c   **** 		case 10: //*16
 153:.\OPT3001.c   **** 			(*Result) = (*Result)<<4;
 388              		.loc 1 153 0
 389 006e 1B01     		lsl	r3, r3, #4
 390 0070 00E0     		b	.L46
ARM GAS  C:\DOCUME~1\Remixvit\LOCALS~1\Temp\cclovw0X.s 			page 11


 391              	.L41:
 154:.\OPT3001.c   **** 			break;
 155:.\OPT3001.c   **** 		case 11: //*32
 156:.\OPT3001.c   **** 			(*Result) = (*Result)<<5;
 392              		.loc 1 156 0
 393 0072 5B01     		lsl	r3, r3, #5
 394              	.L46:
 395 0074 2360     		str	r3, [r4]
 396 0076 00E0     		b	.L25
 397              	.LVL32:
 398              	.L42:
 399              	.LBE9:
 400              	.LBE8:
 103:.\OPT3001.c   ****   }
 401              		.loc 1 103 0
 402 0078 0025     		mov	r5, #0
 403              	.L25:
 157:.\OPT3001.c   **** 			break;
 158:.\OPT3001.c   **** 	}
 159:.\OPT3001.c   ****     return 1;
 160:.\OPT3001.c   ****     
 161:.\OPT3001.c   ****   } 
 162:.\OPT3001.c   ****   else 
 163:.\OPT3001.c   ****   {
 164:.\OPT3001.c   ****     return 0;
 165:.\OPT3001.c   ****   }
 166:.\OPT3001.c   **** 
 167:.\OPT3001.c   ****   return 0;
 168:.\OPT3001.c   **** }
 404              		.loc 1 168 0
 405 007a 281C     		mov	r0, r5
 406              		@ sp needed
 407              	.LVL33:
 408 007c 76BD     		pop	{r1, r2, r4, r5, r6, pc}
 409              		.cfi_endproc
 410              	.LFE62:
 411              		.size	OPT_ReadResult, .-OPT_ReadResult
 412              		.section	.text.OPT_StartConvert,"ax",%progbits
 413              		.align	1
 414              		.global	OPT_StartConvert
 415              		.code	16
 416              		.thumb_func
 417              		.type	OPT_StartConvert, %function
 418              	OPT_StartConvert:
 419              	.LFB63:
 169:.\OPT3001.c   **** 
 170:.\OPT3001.c   **** uint8 OPT_StartConvert()
 171:.\OPT3001.c   **** {
 420              		.loc 1 171 0
 421              		.cfi_startproc
 422 0000 13B5     		push	{r0, r1, r4, lr}
 423              		.cfi_def_cfa_offset 16
 424              		.cfi_offset 0, -16
 425              		.cfi_offset 1, -12
 426              		.cfi_offset 4, -8
 427              		.cfi_offset 14, -4
 172:.\OPT3001.c   ****     uint16 Buf;
ARM GAS  C:\DOCUME~1\Remixvit\LOCALS~1\Temp\cclovw0X.s 			page 12


 173:.\OPT3001.c   ****     if(I2C_ReadRegister(OPT3001_I2C_ADDRESS, REG_CONFIGURATION, &Buf))
 428              		.loc 1 173 0
 429 0002 6B46     		mov	r3, sp
 430 0004 9C1D     		add	r4, r3, #6
 431 0006 4520     		mov	r0, #69
 432 0008 0121     		mov	r1, #1
 433 000a 221C     		mov	r2, r4
 434 000c FFF7FEFF 		bl	I2C_ReadRegister
 435              	.LVL34:
 436 0010 0028     		cmp	r0, #0
 437 0012 0CD0     		beq	.L48
 174:.\OPT3001.c   ****     {
 175:.\OPT3001.c   ****         Buf |= (1<<9);
 438              		.loc 1 175 0
 439 0014 8022     		mov	r2, #128
 440 0016 2388     		ldrh	r3, [r4]
 441 0018 9200     		lsl	r2, r2, #2
 442 001a 1343     		orr	r3, r2
 176:.\OPT3001.c   ****         if(I2C_WriteRegister(OPT3001_I2C_ADDRESS, REG_CONFIGURATION, &Buf))
 443              		.loc 1 176 0
 444 001c 4520     		mov	r0, #69
 445 001e 0121     		mov	r1, #1
 446 0020 221C     		mov	r2, r4
 175:.\OPT3001.c   ****         if(I2C_WriteRegister(OPT3001_I2C_ADDRESS, REG_CONFIGURATION, &Buf))
 447              		.loc 1 175 0
 448 0022 2380     		strh	r3, [r4]
 449              		.loc 1 176 0
 450 0024 FFF7FEFF 		bl	I2C_WriteRegister
 451              	.LVL35:
 452 0028 431E     		sub	r3, r0, #1
 453 002a 9841     		sbc	r0, r0, r3
 177:.\OPT3001.c   ****         {
 178:.\OPT3001.c   ****             return 1;
 454              		.loc 1 178 0
 455 002c C0B2     		uxtb	r0, r0
 456              	.L48:
 179:.\OPT3001.c   ****         }
 180:.\OPT3001.c   ****     }
 181:.\OPT3001.c   ****     return 0;
 182:.\OPT3001.c   **** }
 457              		.loc 1 182 0
 458              		@ sp needed
 459 002e 16BD     		pop	{r1, r2, r4, pc}
 460              		.cfi_endproc
 461              	.LFE63:
 462              		.size	OPT_StartConvert, .-OPT_StartConvert
 463              		.section	.text.OPT_GetResultString,"ax",%progbits
 464              		.align	1
 465              		.global	OPT_GetResultString
 466              		.code	16
 467              		.thumb_func
 468              		.type	OPT_GetResultString, %function
 469              	OPT_GetResultString:
 470              	.LFB64:
 183:.\OPT3001.c   **** 
 184:.\OPT3001.c   **** char *OPT_GetResultString(volatile uint32 *Lux)
 185:.\OPT3001.c   **** {
ARM GAS  C:\DOCUME~1\Remixvit\LOCALS~1\Temp\cclovw0X.s 			page 13


 471              		.loc 1 185 0
 472              		.cfi_startproc
 473              	.LVL36:
 474 0000 F0B5     		push	{r4, r5, r6, r7, lr}
 475              		.cfi_def_cfa_offset 20
 476              		.cfi_offset 4, -20
 477              		.cfi_offset 5, -16
 478              		.cfi_offset 6, -12
 479              		.cfi_offset 7, -8
 480              		.cfi_offset 14, -4
 186:.\OPT3001.c   ****     uint32 Result;
 187:.\OPT3001.c   ****     uint8 *St;
 188:.\OPT3001.c   ****     char Current;
 189:.\OPT3001.c   ****     volatile uint8 Scroll = 0;
 481              		.loc 1 189 0
 482 0002 0027     		mov	r7, #0
 185:.\OPT3001.c   ****     uint32 Result;
 483              		.loc 1 185 0
 484 0004 95B0     		sub	sp, sp, #84
 485              		.cfi_def_cfa_offset 104
 486              		.loc 1 189 0
 487 0006 02AB     		add	r3, sp, #8
 190:.\OPT3001.c   ****     volatile uint8 Buf[15];
 191:.\OPT3001.c   ****     Buf[14] = (char)'\0';
 192:.\OPT3001.c   ****     char Out_Str[25] = "Brightness: ";
 488              		.loc 1 192 0
 489 0008 0DAE     		add	r6, sp, #52
 189:.\OPT3001.c   ****     volatile uint8 Buf[15];
 490              		.loc 1 189 0
 491 000a DC1C     		add	r4, r3, #3
 185:.\OPT3001.c   ****     uint32 Result;
 492              		.loc 1 185 0
 493 000c 0190     		str	r0, [sp, #4]
 494              		.loc 1 192 0
 495 000e 3549     		ldr	r1, .L67
 496 0010 0D22     		mov	r2, #13
 191:.\OPT3001.c   ****     char Out_Str[25] = "Brightness: ";
 497              		.loc 1 191 0
 498 0012 05AD     		add	r5, sp, #20
 499              		.loc 1 192 0
 500 0014 301C     		mov	r0, r6
 501              	.LVL37:
 189:.\OPT3001.c   ****     volatile uint8 Buf[15];
 502              		.loc 1 189 0
 503 0016 2770     		strb	r7, [r4]
 191:.\OPT3001.c   ****     char Out_Str[25] = "Brightness: ";
 504              		.loc 1 191 0
 505 0018 AF73     		strb	r7, [r5, #14]
 506              		.loc 1 192 0
 507 001a FFF7FEFF 		bl	memcpy
 508              	.LVL38:
 509 001e 3920     		mov	r0, #57
 510 0020 02AB     		add	r3, sp, #8
 511 0022 C018     		add	r0, r0, r3
 512 0024 391C     		mov	r1, r7
 513 0026 0C22     		mov	r2, #12
 514 0028 FFF7FEFF 		bl	memset
ARM GAS  C:\DOCUME~1\Remixvit\LOCALS~1\Temp\cclovw0X.s 			page 14


 515              	.LVL39:
 193:.\OPT3001.c   ****     const char Lux_Str[3] = "Lx";
 194:.\OPT3001.c   ****     const char Error_Str[15] = "OPT Error Read";
 516              		.loc 1 194 0
 517 002c 09AF     		add	r7, sp, #36
 193:.\OPT3001.c   ****     const char Lux_Str[3] = "Lx";
 518              		.loc 1 193 0
 519 002e 2E49     		ldr	r1, .L67+4
 520 0030 0322     		mov	r2, #3
 521 0032 03A8     		add	r0, sp, #12
 522 0034 FFF7FEFF 		bl	memcpy
 523              	.LVL40:
 524              		.loc 1 194 0
 525 0038 381C     		mov	r0, r7
 526 003a 2C49     		ldr	r1, .L67+8
 527 003c 0F22     		mov	r2, #15
 528 003e FFF7FEFF 		bl	memcpy
 529              	.LVL41:
 195:.\OPT3001.c   ****     
 196:.\OPT3001.c   ****     if(OPT_ReadResult(&Result))
 530              		.loc 1 196 0
 531 0042 04A8     		add	r0, sp, #16
 532 0044 FFF7FEFF 		bl	OPT_ReadResult
 533              	.LVL42:
 534 0048 0028     		cmp	r0, #0
 535 004a 3AD0     		beq	.L53
 197:.\OPT3001.c   ****     {
 198:.\OPT3001.c   ****         (*Lux) = Result;
 536              		.loc 1 198 0
 537 004c 019B     		ldr	r3, [sp, #4]
 538 004e 049A     		ldr	r2, [sp, #16]
 539 0050 1A60     		str	r2, [r3]
 199:.\OPT3001.c   ****         BCD_Ulong(Result);
 540              		.loc 1 199 0
 541 0052 101C     		mov	r0, r2
 542 0054 FFF7FEFF 		bl	BCD_Ulong
 543              	.LVL43:
 200:.\OPT3001.c   ****         
 201:.\OPT3001.c   ****         St = BCD_GetPointerBuf();
 544              		.loc 1 201 0
 545 0058 FFF7FEFF 		bl	BCD_GetPointerBuf
 546              	.LVL44:
 202:.\OPT3001.c   ****         Current = *St;
 547              		.loc 1 202 0
 548 005c 0378     		ldrb	r3, [r0]
 549              	.LVL45:
 550              	.L54:
 203:.\OPT3001.c   ****         
 204:.\OPT3001.c   ****             while(Current != (char)'\0')
 551              		.loc 1 204 0
 552 005e 002B     		cmp	r3, #0
 553 0060 0BD0     		beq	.L64
 205:.\OPT3001.c   ****             {
 206:.\OPT3001.c   ****                 Buf[Scroll] = St[Scroll];
 554              		.loc 1 206 0
 555 0062 2378     		ldrb	r3, [r4]
 556              	.LVL46:
ARM GAS  C:\DOCUME~1\Remixvit\LOCALS~1\Temp\cclovw0X.s 			page 15


 557 0064 2278     		ldrb	r2, [r4]
 558 0066 DBB2     		uxtb	r3, r3
 559 0068 825C     		ldrb	r2, [r0, r2]
 560 006a EA54     		strb	r2, [r5, r3]
 207:.\OPT3001.c   ****                 Scroll++;
 561              		.loc 1 207 0
 562 006c 2378     		ldrb	r3, [r4]
 563 006e 0133     		add	r3, r3, #1
 564 0070 DBB2     		uxtb	r3, r3
 565 0072 2370     		strb	r3, [r4]
 208:.\OPT3001.c   ****                 Current = St[Scroll];
 566              		.loc 1 208 0
 567 0074 2378     		ldrb	r3, [r4]
 568 0076 C35C     		ldrb	r3, [r0, r3]
 569              	.LVL47:
 570 0078 F1E7     		b	.L54
 571              	.LVL48:
 572              	.L64:
 209:.\OPT3001.c   ****             }
 210:.\OPT3001.c   ****         
 211:.\OPT3001.c   ****         Scroll = 0;
 212:.\OPT3001.c   ****         Current = Buf[Scroll];
 213:.\OPT3001.c   ****         
 214:.\OPT3001.c   ****             while(Current == (char)' ')
 215:.\OPT3001.c   ****             {
 216:.\OPT3001.c   ****                 Scroll++;
 573              		.loc 1 216 0
 574 007a 2370     		strb	r3, [r4]
 217:.\OPT3001.c   ****                 Current = Buf[Scroll];
 575              		.loc 1 217 0
 576 007c 2378     		ldrb	r3, [r4]
 577 007e DBB2     		uxtb	r3, r3
 578 0080 EB5C     		ldrb	r3, [r5, r3]
 579 0082 DBB2     		uxtb	r3, r3
 580              	.LVL49:
 214:.\OPT3001.c   ****             {
 581              		.loc 1 214 0
 582 0084 202B     		cmp	r3, #32
 583 0086 03D1     		bne	.L66
 216:.\OPT3001.c   ****                 Current = Buf[Scroll];
 584              		.loc 1 216 0
 585 0088 2378     		ldrb	r3, [r4]
 586              	.LVL50:
 587 008a 0133     		add	r3, r3, #1
 588 008c DBB2     		uxtb	r3, r3
 589 008e F4E7     		b	.L64
 590              	.LVL51:
 591              	.L66:
 218:.\OPT3001.c   ****             }
 219:.\OPT3001.c   ****         
 220:.\OPT3001.c   ****         strncat(Out_Str, &Buf[Scroll],7);
 592              		.loc 1 220 0
 593 0090 2178     		ldrb	r1, [r4]
 594 0092 0722     		mov	r2, #7
 595 0094 6918     		add	r1, r5, r1
 596 0096 301C     		mov	r0, r6
 597              	.LVL52:
ARM GAS  C:\DOCUME~1\Remixvit\LOCALS~1\Temp\cclovw0X.s 			page 16


 598 0098 FFF7FEFF 		bl	strncat
 599              	.LVL53:
 221:.\OPT3001.c   ****         strncat(Out_Str, Lux_Str,3);
 600              		.loc 1 221 0
 601 009c 301C     		mov	r0, r6
 602 009e 03A9     		add	r1, sp, #12
 603 00a0 0322     		mov	r2, #3
 604 00a2 FFF7FEFF 		bl	strncat
 605              	.LVL54:
 222:.\OPT3001.c   ****         for(Scroll = 0;Scroll < 25;Scroll++)
 606              		.loc 1 222 0
 607 00a6 0023     		mov	r3, #0
 608              	.L65:
 609              		.loc 1 222 0 is_stmt 0 discriminator 3
 610 00a8 2370     		strb	r3, [r4]
 611 00aa 2378     		ldrb	r3, [r4]
 612 00ac 182B     		cmp	r3, #24
 613 00ae 16D8     		bhi	.L63
 223:.\OPT3001.c   ****         {
 224:.\OPT3001.c   ****             OPT_Out_String[Scroll] = Out_Str[Scroll];
 614              		.loc 1 224 0 is_stmt 1 discriminator 3
 615 00b0 2378     		ldrb	r3, [r4]
 616 00b2 2278     		ldrb	r2, [r4]
 617 00b4 B15C     		ldrb	r1, [r6, r2]
 618 00b6 0E4A     		ldr	r2, .L67+12
 619 00b8 D154     		strb	r1, [r2, r3]
 222:.\OPT3001.c   ****         for(Scroll = 0;Scroll < 25;Scroll++)
 620              		.loc 1 222 0 discriminator 3
 621 00ba 2378     		ldrb	r3, [r4]
 622 00bc 0133     		add	r3, r3, #1
 623 00be DBB2     		uxtb	r3, r3
 624 00c0 F2E7     		b	.L65
 625              	.L53:
 225:.\OPT3001.c   ****         }
 226:.\OPT3001.c   ****         
 227:.\OPT3001.c   ****     }
 228:.\OPT3001.c   ****     else
 229:.\OPT3001.c   ****     {
 230:.\OPT3001.c   ****         for(Scroll = 0;Scroll < 25;Scroll++)
 626              		.loc 1 230 0
 627 00c2 2070     		strb	r0, [r4]
 628              	.L60:
 629              		.loc 1 230 0 is_stmt 0 discriminator 1
 630 00c4 2378     		ldrb	r3, [r4]
 631 00c6 182B     		cmp	r3, #24
 632 00c8 09D8     		bhi	.L63
 231:.\OPT3001.c   ****         {
 232:.\OPT3001.c   ****             OPT_Out_String[Scroll] = Error_Str[Scroll];
 633              		.loc 1 232 0 is_stmt 1 discriminator 3
 634 00ca 2378     		ldrb	r3, [r4]
 635 00cc 2278     		ldrb	r2, [r4]
 636 00ce B95C     		ldrb	r1, [r7, r2]
 637 00d0 074A     		ldr	r2, .L67+12
 638 00d2 D154     		strb	r1, [r2, r3]
 230:.\OPT3001.c   ****         {
 639              		.loc 1 230 0 discriminator 3
 640 00d4 2378     		ldrb	r3, [r4]
ARM GAS  C:\DOCUME~1\Remixvit\LOCALS~1\Temp\cclovw0X.s 			page 17


 641 00d6 0133     		add	r3, r3, #1
 642 00d8 DBB2     		uxtb	r3, r3
 643 00da 2370     		strb	r3, [r4]
 644 00dc F2E7     		b	.L60
 645              	.L63:
 233:.\OPT3001.c   ****         }
 234:.\OPT3001.c   ****     }
 235:.\OPT3001.c   ****     return OPT_Out_String;
 236:.\OPT3001.c   ****     
 237:.\OPT3001.c   **** }
 646              		.loc 1 237 0
 647 00de 0448     		ldr	r0, .L67+12
 648 00e0 15B0     		add	sp, sp, #84
 649              		@ sp needed
 650 00e2 F0BD     		pop	{r4, r5, r6, r7, pc}
 651              	.L68:
 652              		.align	2
 653              	.L67:
 654 00e4 00000000 		.word	.LANCHOR0
 655 00e8 00000000 		.word	.LC2
 656 00ec 03000000 		.word	.LC4
 657 00f0 00000000 		.word	OPT_Out_String
 658              		.cfi_endproc
 659              	.LFE64:
 660              		.size	OPT_GetResultString, .-OPT_GetResultString
 661              		.comm	OPT_Out_String,25,1
 662              		.section	.rodata
 663              		.set	.LANCHOR0,. + 0
 664              	.LC0:
 665 0000 42726967 		.ascii	"Brightness: \000"
 665      68746E65 
 665      73733A20 
 665      00
 666 000d 00000000 		.space	12
 666      00000000 
 666      00000000 
 667              		.section	.rodata.str1.1,"aMS",%progbits,1
 668              	.LC2:
 669 0000 4C7800   		.ascii	"Lx\000"
 670              	.LC4:
 671 0003 4F505420 		.ascii	"OPT Error Read\000"
 671      4572726F 
 671      72205265 
 671      616400
 672              		.text
 673              	.Letext0:
 674              		.file 2 "c:\\program files\\cypress\\psoc creator\\3.3\\psoc creator\\import\\gnu\\arm\\4.9.3\\arm
 675              		.file 3 "c:\\program files\\cypress\\psoc creator\\3.3\\psoc creator\\import\\gnu\\arm\\4.9.3\\arm
 676              		.file 4 "Generated_Source\\PSoC4/cytypes.h"
 677              		.file 5 "c:\\program files\\cypress\\psoc creator\\3.3\\psoc creator\\import\\gnu\\arm\\4.9.3\\lib
 678              		.file 6 "Generated_Source\\PSoC4/I2C_I2C.h"
 679              		.file 7 "./bcd.h"
 680              		.file 8 "c:\\program files\\cypress\\psoc creator\\3.3\\psoc creator\\import\\gnu\\arm\\4.9.3\\arm
 681              		.file 9 "./OPT3001.h"