ARM GAS  C:\Users\Vitali\AppData\Local\Temp\ccfEoTAg.s 			page 1


   1              		.cpu cortex-m0
   2              		.fpu softvfp
   3              		.eabi_attribute 20, 1
   4              		.eabi_attribute 21, 1
   5              		.eabi_attribute 23, 3
   6              		.eabi_attribute 24, 1
   7              		.eabi_attribute 25, 1
   8              		.eabi_attribute 26, 1
   9              		.eabi_attribute 30, 4
  10              		.eabi_attribute 34, 0
  11              		.eabi_attribute 18, 4
  12              		.code	16
  13              		.file	"PWM.c"
  14              		.text
  15              	.Ltext0:
  16              		.cfi_sections	.debug_frame
  17              		.section	.text.PWM_Enable,"ax",%progbits
  18              		.align	1
  19              		.global	PWM_Enable
  20              		.code	16
  21              		.thumb_func
  22              		.type	PWM_Enable, %function
  23              	PWM_Enable:
  24              	.LFB2:
  25              		.file 1 ".\\Generated_Source\\PSoC4\\PWM.c"
   1:.\Generated_Source\PSoC4/PWM.c **** /*******************************************************************************
   2:.\Generated_Source\PSoC4/PWM.c **** * File Name: PWM.c
   3:.\Generated_Source\PSoC4/PWM.c **** * Version 3.30
   4:.\Generated_Source\PSoC4/PWM.c **** *
   5:.\Generated_Source\PSoC4/PWM.c **** * Description:
   6:.\Generated_Source\PSoC4/PWM.c **** *  The PWM User Module consist of an 8 or 16-bit counter with two 8 or 16-bit
   7:.\Generated_Source\PSoC4/PWM.c **** *  comparitors. Each instance of this user module is capable of generating
   8:.\Generated_Source\PSoC4/PWM.c **** *  two PWM outputs with the same period. The pulse width is selectable between
   9:.\Generated_Source\PSoC4/PWM.c **** *  1 and 255/65535. The period is selectable between 2 and 255/65536 clocks.
  10:.\Generated_Source\PSoC4/PWM.c **** *  The compare value output may be configured to be active when the present
  11:.\Generated_Source\PSoC4/PWM.c **** *  counter is less than or less than/equal to the compare value.
  12:.\Generated_Source\PSoC4/PWM.c **** *  A terminal count output is also provided. It generates a pulse one clock
  13:.\Generated_Source\PSoC4/PWM.c **** *  width wide when the counter is equal to zero.
  14:.\Generated_Source\PSoC4/PWM.c **** *
  15:.\Generated_Source\PSoC4/PWM.c **** * Note:
  16:.\Generated_Source\PSoC4/PWM.c **** *
  17:.\Generated_Source\PSoC4/PWM.c **** *******************************************************************************
  18:.\Generated_Source\PSoC4/PWM.c **** * Copyright 2008-2014, Cypress Semiconductor Corporation.  All rights reserved.
  19:.\Generated_Source\PSoC4/PWM.c **** * You may use this file only in accordance with the license, terms, conditions,
  20:.\Generated_Source\PSoC4/PWM.c **** * disclaimers, and limitations in the end user license agreement accompanying
  21:.\Generated_Source\PSoC4/PWM.c **** * the software package with which this file was provided.
  22:.\Generated_Source\PSoC4/PWM.c **** ********************************************************************************/
  23:.\Generated_Source\PSoC4/PWM.c **** 
  24:.\Generated_Source\PSoC4/PWM.c **** #include "PWM.h"
  25:.\Generated_Source\PSoC4/PWM.c **** 
  26:.\Generated_Source\PSoC4/PWM.c **** /* Error message for removed <resource> through optimization */
  27:.\Generated_Source\PSoC4/PWM.c **** #ifdef PWM_PWMUDB_genblk1_ctrlreg__REMOVED
  28:.\Generated_Source\PSoC4/PWM.c ****     #error PWM_v3_30 detected with a constant 0 for the enable or \
  29:.\Generated_Source\PSoC4/PWM.c ****          constant 1 for reset. This will prevent the component from operating.
  30:.\Generated_Source\PSoC4/PWM.c **** #endif /* PWM_PWMUDB_genblk1_ctrlreg__REMOVED */
  31:.\Generated_Source\PSoC4/PWM.c **** 
  32:.\Generated_Source\PSoC4/PWM.c **** uint8 PWM_initVar = 0u;
ARM GAS  C:\Users\Vitali\AppData\Local\Temp\ccfEoTAg.s 			page 2


  33:.\Generated_Source\PSoC4/PWM.c **** 
  34:.\Generated_Source\PSoC4/PWM.c **** 
  35:.\Generated_Source\PSoC4/PWM.c **** /*******************************************************************************
  36:.\Generated_Source\PSoC4/PWM.c **** * Function Name: PWM_Start
  37:.\Generated_Source\PSoC4/PWM.c **** ********************************************************************************
  38:.\Generated_Source\PSoC4/PWM.c **** *
  39:.\Generated_Source\PSoC4/PWM.c **** * Summary:
  40:.\Generated_Source\PSoC4/PWM.c **** *  The start function initializes the pwm with the default values, the
  41:.\Generated_Source\PSoC4/PWM.c **** *  enables the counter to begin counting.  It does not enable interrupts,
  42:.\Generated_Source\PSoC4/PWM.c **** *  the EnableInt command should be called if interrupt generation is required.
  43:.\Generated_Source\PSoC4/PWM.c **** *
  44:.\Generated_Source\PSoC4/PWM.c **** * Parameters:
  45:.\Generated_Source\PSoC4/PWM.c **** *  None
  46:.\Generated_Source\PSoC4/PWM.c **** *
  47:.\Generated_Source\PSoC4/PWM.c **** * Return:
  48:.\Generated_Source\PSoC4/PWM.c **** *  None
  49:.\Generated_Source\PSoC4/PWM.c **** *
  50:.\Generated_Source\PSoC4/PWM.c **** * Global variables:
  51:.\Generated_Source\PSoC4/PWM.c **** *  PWM_initVar: Is modified when this function is called for the
  52:.\Generated_Source\PSoC4/PWM.c **** *   first time. Is used to ensure that initialization happens only once.
  53:.\Generated_Source\PSoC4/PWM.c **** *
  54:.\Generated_Source\PSoC4/PWM.c **** *******************************************************************************/
  55:.\Generated_Source\PSoC4/PWM.c **** void PWM_Start(void) 
  56:.\Generated_Source\PSoC4/PWM.c **** {
  57:.\Generated_Source\PSoC4/PWM.c ****     /* If not Initialized then initialize all required hardware and software */
  58:.\Generated_Source\PSoC4/PWM.c ****     if(PWM_initVar == 0u)
  59:.\Generated_Source\PSoC4/PWM.c ****     {
  60:.\Generated_Source\PSoC4/PWM.c ****         PWM_Init();
  61:.\Generated_Source\PSoC4/PWM.c ****         PWM_initVar = 1u;
  62:.\Generated_Source\PSoC4/PWM.c ****     }
  63:.\Generated_Source\PSoC4/PWM.c ****     PWM_Enable();
  64:.\Generated_Source\PSoC4/PWM.c **** 
  65:.\Generated_Source\PSoC4/PWM.c **** }
  66:.\Generated_Source\PSoC4/PWM.c **** 
  67:.\Generated_Source\PSoC4/PWM.c **** 
  68:.\Generated_Source\PSoC4/PWM.c **** /*******************************************************************************
  69:.\Generated_Source\PSoC4/PWM.c **** * Function Name: PWM_Init
  70:.\Generated_Source\PSoC4/PWM.c **** ********************************************************************************
  71:.\Generated_Source\PSoC4/PWM.c **** *
  72:.\Generated_Source\PSoC4/PWM.c **** * Summary:
  73:.\Generated_Source\PSoC4/PWM.c **** *  Initialize component's parameters to the parameters set by user in the
  74:.\Generated_Source\PSoC4/PWM.c **** *  customizer of the component placed onto schematic. Usually called in
  75:.\Generated_Source\PSoC4/PWM.c **** *  PWM_Start().
  76:.\Generated_Source\PSoC4/PWM.c **** *
  77:.\Generated_Source\PSoC4/PWM.c **** * Parameters:
  78:.\Generated_Source\PSoC4/PWM.c **** *  None
  79:.\Generated_Source\PSoC4/PWM.c **** *
  80:.\Generated_Source\PSoC4/PWM.c **** * Return:
  81:.\Generated_Source\PSoC4/PWM.c **** *  None
  82:.\Generated_Source\PSoC4/PWM.c **** *
  83:.\Generated_Source\PSoC4/PWM.c **** *******************************************************************************/
  84:.\Generated_Source\PSoC4/PWM.c **** void PWM_Init(void) 
  85:.\Generated_Source\PSoC4/PWM.c **** {
  86:.\Generated_Source\PSoC4/PWM.c ****     #if (PWM_UsingFixedFunction || PWM_UseControl)
  87:.\Generated_Source\PSoC4/PWM.c ****         uint8 ctrl;
  88:.\Generated_Source\PSoC4/PWM.c ****     #endif /* (PWM_UsingFixedFunction || PWM_UseControl) */
  89:.\Generated_Source\PSoC4/PWM.c **** 
ARM GAS  C:\Users\Vitali\AppData\Local\Temp\ccfEoTAg.s 			page 3


  90:.\Generated_Source\PSoC4/PWM.c ****     #if(!PWM_UsingFixedFunction)
  91:.\Generated_Source\PSoC4/PWM.c ****         #if(PWM_UseStatus)
  92:.\Generated_Source\PSoC4/PWM.c ****             /* Interrupt State Backup for Critical Region*/
  93:.\Generated_Source\PSoC4/PWM.c ****             uint8 PWM_interruptState;
  94:.\Generated_Source\PSoC4/PWM.c ****         #endif /* (PWM_UseStatus) */
  95:.\Generated_Source\PSoC4/PWM.c ****     #endif /* (!PWM_UsingFixedFunction) */
  96:.\Generated_Source\PSoC4/PWM.c **** 
  97:.\Generated_Source\PSoC4/PWM.c ****     #if (PWM_UsingFixedFunction)
  98:.\Generated_Source\PSoC4/PWM.c ****         /* You are allowed to write the compare value (FF only) */
  99:.\Generated_Source\PSoC4/PWM.c ****         PWM_CONTROL |= PWM_CFG0_MODE;
 100:.\Generated_Source\PSoC4/PWM.c ****         #if (PWM_DeadBand2_4)
 101:.\Generated_Source\PSoC4/PWM.c ****             PWM_CONTROL |= PWM_CFG0_DB;
 102:.\Generated_Source\PSoC4/PWM.c ****         #endif /* (PWM_DeadBand2_4) */
 103:.\Generated_Source\PSoC4/PWM.c **** 
 104:.\Generated_Source\PSoC4/PWM.c ****         ctrl = PWM_CONTROL3 & ((uint8 )(~PWM_CTRL_CMPMODE1_MASK));
 105:.\Generated_Source\PSoC4/PWM.c ****         PWM_CONTROL3 = ctrl | PWM_DEFAULT_COMPARE1_MODE;
 106:.\Generated_Source\PSoC4/PWM.c **** 
 107:.\Generated_Source\PSoC4/PWM.c ****          /* Clear and Set SYNCTC and SYNCCMP bits of RT1 register */
 108:.\Generated_Source\PSoC4/PWM.c ****         PWM_RT1 &= ((uint8)(~PWM_RT1_MASK));
 109:.\Generated_Source\PSoC4/PWM.c ****         PWM_RT1 |= PWM_SYNC;
 110:.\Generated_Source\PSoC4/PWM.c **** 
 111:.\Generated_Source\PSoC4/PWM.c ****         /*Enable DSI Sync all all inputs of the PWM*/
 112:.\Generated_Source\PSoC4/PWM.c ****         PWM_RT1 &= ((uint8)(~PWM_SYNCDSI_MASK));
 113:.\Generated_Source\PSoC4/PWM.c ****         PWM_RT1 |= PWM_SYNCDSI_EN;
 114:.\Generated_Source\PSoC4/PWM.c **** 
 115:.\Generated_Source\PSoC4/PWM.c ****     #elif (PWM_UseControl)
 116:.\Generated_Source\PSoC4/PWM.c ****         /* Set the default compare mode defined in the parameter */
 117:.\Generated_Source\PSoC4/PWM.c ****         ctrl = PWM_CONTROL & ((uint8)(~PWM_CTRL_CMPMODE2_MASK)) &
 118:.\Generated_Source\PSoC4/PWM.c ****                 ((uint8)(~PWM_CTRL_CMPMODE1_MASK));
 119:.\Generated_Source\PSoC4/PWM.c ****         PWM_CONTROL = ctrl | PWM_DEFAULT_COMPARE2_MODE |
 120:.\Generated_Source\PSoC4/PWM.c ****                                    PWM_DEFAULT_COMPARE1_MODE;
 121:.\Generated_Source\PSoC4/PWM.c ****     #endif /* (PWM_UsingFixedFunction) */
 122:.\Generated_Source\PSoC4/PWM.c **** 
 123:.\Generated_Source\PSoC4/PWM.c ****     #if (!PWM_UsingFixedFunction)
 124:.\Generated_Source\PSoC4/PWM.c ****         #if (PWM_Resolution == 8)
 125:.\Generated_Source\PSoC4/PWM.c ****             /* Set FIFO 0 to 1 byte register for period*/
 126:.\Generated_Source\PSoC4/PWM.c ****             PWM_AUX_CONTROLDP0 |= (PWM_AUX_CTRL_FIFO0_CLR);
 127:.\Generated_Source\PSoC4/PWM.c ****         #else /* (PWM_Resolution == 16)*/
 128:.\Generated_Source\PSoC4/PWM.c ****             /* Set FIFO 0 to 1 byte register for period */
 129:.\Generated_Source\PSoC4/PWM.c ****             PWM_AUX_CONTROLDP0 |= (PWM_AUX_CTRL_FIFO0_CLR);
 130:.\Generated_Source\PSoC4/PWM.c ****             PWM_AUX_CONTROLDP1 |= (PWM_AUX_CTRL_FIFO0_CLR);
 131:.\Generated_Source\PSoC4/PWM.c ****         #endif /* (PWM_Resolution == 8) */
 132:.\Generated_Source\PSoC4/PWM.c **** 
 133:.\Generated_Source\PSoC4/PWM.c ****         PWM_WriteCounter(PWM_INIT_PERIOD_VALUE);
 134:.\Generated_Source\PSoC4/PWM.c ****     #endif /* (!PWM_UsingFixedFunction) */
 135:.\Generated_Source\PSoC4/PWM.c **** 
 136:.\Generated_Source\PSoC4/PWM.c ****     PWM_WritePeriod(PWM_INIT_PERIOD_VALUE);
 137:.\Generated_Source\PSoC4/PWM.c **** 
 138:.\Generated_Source\PSoC4/PWM.c ****         #if (PWM_UseOneCompareMode)
 139:.\Generated_Source\PSoC4/PWM.c ****             PWM_WriteCompare(PWM_INIT_COMPARE_VALUE1);
 140:.\Generated_Source\PSoC4/PWM.c ****         #else
 141:.\Generated_Source\PSoC4/PWM.c ****             PWM_WriteCompare1(PWM_INIT_COMPARE_VALUE1);
 142:.\Generated_Source\PSoC4/PWM.c ****             PWM_WriteCompare2(PWM_INIT_COMPARE_VALUE2);
 143:.\Generated_Source\PSoC4/PWM.c ****         #endif /* (PWM_UseOneCompareMode) */
 144:.\Generated_Source\PSoC4/PWM.c **** 
 145:.\Generated_Source\PSoC4/PWM.c ****         #if (PWM_KillModeMinTime)
 146:.\Generated_Source\PSoC4/PWM.c ****             PWM_WriteKillTime(PWM_MinimumKillTime);
ARM GAS  C:\Users\Vitali\AppData\Local\Temp\ccfEoTAg.s 			page 4


 147:.\Generated_Source\PSoC4/PWM.c ****         #endif /* (PWM_KillModeMinTime) */
 148:.\Generated_Source\PSoC4/PWM.c **** 
 149:.\Generated_Source\PSoC4/PWM.c ****         #if (PWM_DeadBandUsed)
 150:.\Generated_Source\PSoC4/PWM.c ****             PWM_WriteDeadTime(PWM_INIT_DEAD_TIME);
 151:.\Generated_Source\PSoC4/PWM.c ****         #endif /* (PWM_DeadBandUsed) */
 152:.\Generated_Source\PSoC4/PWM.c **** 
 153:.\Generated_Source\PSoC4/PWM.c ****     #if (PWM_UseStatus || PWM_UsingFixedFunction)
 154:.\Generated_Source\PSoC4/PWM.c ****         PWM_SetInterruptMode(PWM_INIT_INTERRUPTS_MODE);
 155:.\Generated_Source\PSoC4/PWM.c ****     #endif /* (PWM_UseStatus || PWM_UsingFixedFunction) */
 156:.\Generated_Source\PSoC4/PWM.c **** 
 157:.\Generated_Source\PSoC4/PWM.c ****     #if (PWM_UsingFixedFunction)
 158:.\Generated_Source\PSoC4/PWM.c ****         /* Globally Enable the Fixed Function Block chosen */
 159:.\Generated_Source\PSoC4/PWM.c ****         PWM_GLOBAL_ENABLE |= PWM_BLOCK_EN_MASK;
 160:.\Generated_Source\PSoC4/PWM.c ****         /* Set the Interrupt source to come from the status register */
 161:.\Generated_Source\PSoC4/PWM.c ****         PWM_CONTROL2 |= PWM_CTRL2_IRQ_SEL;
 162:.\Generated_Source\PSoC4/PWM.c ****     #else
 163:.\Generated_Source\PSoC4/PWM.c ****         #if(PWM_UseStatus)
 164:.\Generated_Source\PSoC4/PWM.c **** 
 165:.\Generated_Source\PSoC4/PWM.c ****             /* CyEnterCriticalRegion and CyExitCriticalRegion are used to mark following region cri
 166:.\Generated_Source\PSoC4/PWM.c ****             /* Enter Critical Region*/
 167:.\Generated_Source\PSoC4/PWM.c ****             PWM_interruptState = CyEnterCriticalSection();
 168:.\Generated_Source\PSoC4/PWM.c ****             /* Use the interrupt output of the status register for IRQ output */
 169:.\Generated_Source\PSoC4/PWM.c ****             PWM_STATUS_AUX_CTRL |= PWM_STATUS_ACTL_INT_EN_MASK;
 170:.\Generated_Source\PSoC4/PWM.c **** 
 171:.\Generated_Source\PSoC4/PWM.c ****              /* Exit Critical Region*/
 172:.\Generated_Source\PSoC4/PWM.c ****             CyExitCriticalSection(PWM_interruptState);
 173:.\Generated_Source\PSoC4/PWM.c **** 
 174:.\Generated_Source\PSoC4/PWM.c ****             /* Clear the FIFO to enable the PWM_STATUS_FIFOFULL
 175:.\Generated_Source\PSoC4/PWM.c ****                    bit to be set on FIFO full. */
 176:.\Generated_Source\PSoC4/PWM.c ****             PWM_ClearFIFO();
 177:.\Generated_Source\PSoC4/PWM.c ****         #endif /* (PWM_UseStatus) */
 178:.\Generated_Source\PSoC4/PWM.c ****     #endif /* (PWM_UsingFixedFunction) */
 179:.\Generated_Source\PSoC4/PWM.c **** }
 180:.\Generated_Source\PSoC4/PWM.c **** 
 181:.\Generated_Source\PSoC4/PWM.c **** 
 182:.\Generated_Source\PSoC4/PWM.c **** /*******************************************************************************
 183:.\Generated_Source\PSoC4/PWM.c **** * Function Name: PWM_Enable
 184:.\Generated_Source\PSoC4/PWM.c **** ********************************************************************************
 185:.\Generated_Source\PSoC4/PWM.c **** *
 186:.\Generated_Source\PSoC4/PWM.c **** * Summary:
 187:.\Generated_Source\PSoC4/PWM.c **** *  Enables the PWM block operation
 188:.\Generated_Source\PSoC4/PWM.c **** *
 189:.\Generated_Source\PSoC4/PWM.c **** * Parameters:
 190:.\Generated_Source\PSoC4/PWM.c **** *  None
 191:.\Generated_Source\PSoC4/PWM.c **** *
 192:.\Generated_Source\PSoC4/PWM.c **** * Return:
 193:.\Generated_Source\PSoC4/PWM.c **** *  None
 194:.\Generated_Source\PSoC4/PWM.c **** *
 195:.\Generated_Source\PSoC4/PWM.c **** * Side Effects:
 196:.\Generated_Source\PSoC4/PWM.c **** *  This works only if software enable mode is chosen
 197:.\Generated_Source\PSoC4/PWM.c **** *
 198:.\Generated_Source\PSoC4/PWM.c **** *******************************************************************************/
 199:.\Generated_Source\PSoC4/PWM.c **** void PWM_Enable(void) 
 200:.\Generated_Source\PSoC4/PWM.c **** {
  26              		.loc 1 200 0
  27              		.cfi_startproc
 201:.\Generated_Source\PSoC4/PWM.c ****     /* Globally Enable the Fixed Function Block chosen */
ARM GAS  C:\Users\Vitali\AppData\Local\Temp\ccfEoTAg.s 			page 5


 202:.\Generated_Source\PSoC4/PWM.c ****     #if (PWM_UsingFixedFunction)
 203:.\Generated_Source\PSoC4/PWM.c ****         PWM_GLOBAL_ENABLE |= PWM_BLOCK_EN_MASK;
 204:.\Generated_Source\PSoC4/PWM.c ****         PWM_GLOBAL_STBY_ENABLE |= PWM_BLOCK_STBY_EN_MASK;
 205:.\Generated_Source\PSoC4/PWM.c ****     #endif /* (PWM_UsingFixedFunction) */
 206:.\Generated_Source\PSoC4/PWM.c **** 
 207:.\Generated_Source\PSoC4/PWM.c ****     /* Enable the PWM from the control register  */
 208:.\Generated_Source\PSoC4/PWM.c ****     #if (PWM_UseControl || PWM_UsingFixedFunction)
 209:.\Generated_Source\PSoC4/PWM.c ****         PWM_CONTROL |= PWM_CTRL_ENABLE;
  28              		.loc 1 209 0
  29 0000 8023     		mov	r3, #128
  30 0002 024A     		ldr	r2, .L2
 210:.\Generated_Source\PSoC4/PWM.c ****     #endif /* (PWM_UseControl || PWM_UsingFixedFunction) */
 211:.\Generated_Source\PSoC4/PWM.c **** }
  31              		.loc 1 211 0
  32              		@ sp needed
 209:.\Generated_Source\PSoC4/PWM.c ****     #endif /* (PWM_UseControl || PWM_UsingFixedFunction) */
  33              		.loc 1 209 0
  34 0004 1178     		ldrb	r1, [r2]
  35 0006 0B43     		orr	r3, r1
  36 0008 1370     		strb	r3, [r2]
  37              		.loc 1 211 0
  38 000a 7047     		bx	lr
  39              	.L3:
  40              		.align	2
  41              	.L2:
  42 000c 72000F40 		.word	1074724978
  43              		.cfi_endproc
  44              	.LFE2:
  45              		.size	PWM_Enable, .-PWM_Enable
  46              		.section	.text.PWM_Stop,"ax",%progbits
  47              		.align	1
  48              		.global	PWM_Stop
  49              		.code	16
  50              		.thumb_func
  51              		.type	PWM_Stop, %function
  52              	PWM_Stop:
  53              	.LFB3:
 212:.\Generated_Source\PSoC4/PWM.c **** 
 213:.\Generated_Source\PSoC4/PWM.c **** 
 214:.\Generated_Source\PSoC4/PWM.c **** /*******************************************************************************
 215:.\Generated_Source\PSoC4/PWM.c **** * Function Name: PWM_Stop
 216:.\Generated_Source\PSoC4/PWM.c **** ********************************************************************************
 217:.\Generated_Source\PSoC4/PWM.c **** *
 218:.\Generated_Source\PSoC4/PWM.c **** * Summary:
 219:.\Generated_Source\PSoC4/PWM.c **** *  The stop function halts the PWM, but does not change any modes or disable
 220:.\Generated_Source\PSoC4/PWM.c **** *  interrupts.
 221:.\Generated_Source\PSoC4/PWM.c **** *
 222:.\Generated_Source\PSoC4/PWM.c **** * Parameters:
 223:.\Generated_Source\PSoC4/PWM.c **** *  None
 224:.\Generated_Source\PSoC4/PWM.c **** *
 225:.\Generated_Source\PSoC4/PWM.c **** * Return:
 226:.\Generated_Source\PSoC4/PWM.c **** *  None
 227:.\Generated_Source\PSoC4/PWM.c **** *
 228:.\Generated_Source\PSoC4/PWM.c **** * Side Effects:
 229:.\Generated_Source\PSoC4/PWM.c **** *  If the Enable mode is set to Hardware only then this function
 230:.\Generated_Source\PSoC4/PWM.c **** *  has no effect on the operation of the PWM
 231:.\Generated_Source\PSoC4/PWM.c **** *
ARM GAS  C:\Users\Vitali\AppData\Local\Temp\ccfEoTAg.s 			page 6


 232:.\Generated_Source\PSoC4/PWM.c **** *******************************************************************************/
 233:.\Generated_Source\PSoC4/PWM.c **** void PWM_Stop(void) 
 234:.\Generated_Source\PSoC4/PWM.c **** {
  54              		.loc 1 234 0
  55              		.cfi_startproc
 235:.\Generated_Source\PSoC4/PWM.c ****     #if (PWM_UseControl || PWM_UsingFixedFunction)
 236:.\Generated_Source\PSoC4/PWM.c ****         PWM_CONTROL &= ((uint8)(~PWM_CTRL_ENABLE));
  56              		.loc 1 236 0
  57 0000 7F23     		mov	r3, #127
  58 0002 024A     		ldr	r2, .L5
 237:.\Generated_Source\PSoC4/PWM.c ****     #endif /* (PWM_UseControl || PWM_UsingFixedFunction) */
 238:.\Generated_Source\PSoC4/PWM.c **** 
 239:.\Generated_Source\PSoC4/PWM.c ****     /* Globally disable the Fixed Function Block chosen */
 240:.\Generated_Source\PSoC4/PWM.c ****     #if (PWM_UsingFixedFunction)
 241:.\Generated_Source\PSoC4/PWM.c ****         PWM_GLOBAL_ENABLE &= ((uint8)(~PWM_BLOCK_EN_MASK));
 242:.\Generated_Source\PSoC4/PWM.c ****         PWM_GLOBAL_STBY_ENABLE &= ((uint8)(~PWM_BLOCK_STBY_EN_MASK));
 243:.\Generated_Source\PSoC4/PWM.c ****     #endif /* (PWM_UsingFixedFunction) */
 244:.\Generated_Source\PSoC4/PWM.c **** }
  59              		.loc 1 244 0
  60              		@ sp needed
 236:.\Generated_Source\PSoC4/PWM.c ****     #endif /* (PWM_UseControl || PWM_UsingFixedFunction) */
  61              		.loc 1 236 0
  62 0004 1178     		ldrb	r1, [r2]
  63 0006 0B40     		and	r3, r1
  64 0008 1370     		strb	r3, [r2]
  65              		.loc 1 244 0
  66 000a 7047     		bx	lr
  67              	.L6:
  68              		.align	2
  69              	.L5:
  70 000c 72000F40 		.word	1074724978
  71              		.cfi_endproc
  72              	.LFE3:
  73              		.size	PWM_Stop, .-PWM_Stop
  74              		.section	.text.PWM_WriteCounter,"ax",%progbits
  75              		.align	1
  76              		.global	PWM_WriteCounter
  77              		.code	16
  78              		.thumb_func
  79              		.type	PWM_WriteCounter, %function
  80              	PWM_WriteCounter:
  81              	.LFB4:
 245:.\Generated_Source\PSoC4/PWM.c **** 
 246:.\Generated_Source\PSoC4/PWM.c **** #if (PWM_UseOneCompareMode)
 247:.\Generated_Source\PSoC4/PWM.c ****     #if (PWM_CompareMode1SW)
 248:.\Generated_Source\PSoC4/PWM.c **** 
 249:.\Generated_Source\PSoC4/PWM.c **** 
 250:.\Generated_Source\PSoC4/PWM.c ****         /*******************************************************************************
 251:.\Generated_Source\PSoC4/PWM.c ****         * Function Name: PWM_SetCompareMode
 252:.\Generated_Source\PSoC4/PWM.c ****         ********************************************************************************
 253:.\Generated_Source\PSoC4/PWM.c ****         *
 254:.\Generated_Source\PSoC4/PWM.c ****         * Summary:
 255:.\Generated_Source\PSoC4/PWM.c ****         *  This function writes the Compare Mode for the pwm output when in Dither mode,
 256:.\Generated_Source\PSoC4/PWM.c ****         *  Center Align Mode or One Output Mode.
 257:.\Generated_Source\PSoC4/PWM.c ****         *
 258:.\Generated_Source\PSoC4/PWM.c ****         * Parameters:
 259:.\Generated_Source\PSoC4/PWM.c ****         *  comparemode:  The new compare mode for the PWM output. Use the compare types
ARM GAS  C:\Users\Vitali\AppData\Local\Temp\ccfEoTAg.s 			page 7


 260:.\Generated_Source\PSoC4/PWM.c ****         *                defined in the H file as input arguments.
 261:.\Generated_Source\PSoC4/PWM.c ****         *
 262:.\Generated_Source\PSoC4/PWM.c ****         * Return:
 263:.\Generated_Source\PSoC4/PWM.c ****         *  None
 264:.\Generated_Source\PSoC4/PWM.c ****         *
 265:.\Generated_Source\PSoC4/PWM.c ****         *******************************************************************************/
 266:.\Generated_Source\PSoC4/PWM.c ****         void PWM_SetCompareMode(uint8 comparemode) 
 267:.\Generated_Source\PSoC4/PWM.c ****         {
 268:.\Generated_Source\PSoC4/PWM.c ****             #if(PWM_UsingFixedFunction)
 269:.\Generated_Source\PSoC4/PWM.c **** 
 270:.\Generated_Source\PSoC4/PWM.c ****                 #if(0 != PWM_CTRL_CMPMODE1_SHIFT)
 271:.\Generated_Source\PSoC4/PWM.c ****                     uint8 comparemodemasked = ((uint8)((uint8)comparemode << PWM_CTRL_CMPMODE1_SHIF
 272:.\Generated_Source\PSoC4/PWM.c ****                 #else
 273:.\Generated_Source\PSoC4/PWM.c ****                     uint8 comparemodemasked = comparemode;
 274:.\Generated_Source\PSoC4/PWM.c ****                 #endif /* (0 != PWM_CTRL_CMPMODE1_SHIFT) */
 275:.\Generated_Source\PSoC4/PWM.c **** 
 276:.\Generated_Source\PSoC4/PWM.c ****                 PWM_CONTROL3 &= ((uint8)(~PWM_CTRL_CMPMODE1_MASK)); /*Clear Existing Data */
 277:.\Generated_Source\PSoC4/PWM.c ****                 PWM_CONTROL3 |= comparemodemasked;
 278:.\Generated_Source\PSoC4/PWM.c **** 
 279:.\Generated_Source\PSoC4/PWM.c ****             #elif (PWM_UseControl)
 280:.\Generated_Source\PSoC4/PWM.c **** 
 281:.\Generated_Source\PSoC4/PWM.c ****                 #if(0 != PWM_CTRL_CMPMODE1_SHIFT)
 282:.\Generated_Source\PSoC4/PWM.c ****                     uint8 comparemode1masked = ((uint8)((uint8)comparemode << PWM_CTRL_CMPMODE1_SHI
 283:.\Generated_Source\PSoC4/PWM.c ****                                                 PWM_CTRL_CMPMODE1_MASK;
 284:.\Generated_Source\PSoC4/PWM.c ****                 #else
 285:.\Generated_Source\PSoC4/PWM.c ****                     uint8 comparemode1masked = comparemode & PWM_CTRL_CMPMODE1_MASK;
 286:.\Generated_Source\PSoC4/PWM.c ****                 #endif /* (0 != PWM_CTRL_CMPMODE1_SHIFT) */
 287:.\Generated_Source\PSoC4/PWM.c **** 
 288:.\Generated_Source\PSoC4/PWM.c ****                 #if(0 != PWM_CTRL_CMPMODE2_SHIFT)
 289:.\Generated_Source\PSoC4/PWM.c ****                     uint8 comparemode2masked = ((uint8)((uint8)comparemode << PWM_CTRL_CMPMODE2_SHI
 290:.\Generated_Source\PSoC4/PWM.c ****                                                PWM_CTRL_CMPMODE2_MASK;
 291:.\Generated_Source\PSoC4/PWM.c ****                 #else
 292:.\Generated_Source\PSoC4/PWM.c ****                     uint8 comparemode2masked = comparemode & PWM_CTRL_CMPMODE2_MASK;
 293:.\Generated_Source\PSoC4/PWM.c ****                 #endif /* (0 != PWM_CTRL_CMPMODE2_SHIFT) */
 294:.\Generated_Source\PSoC4/PWM.c **** 
 295:.\Generated_Source\PSoC4/PWM.c ****                 /*Clear existing mode */
 296:.\Generated_Source\PSoC4/PWM.c ****                 PWM_CONTROL &= ((uint8)(~(PWM_CTRL_CMPMODE1_MASK |
 297:.\Generated_Source\PSoC4/PWM.c ****                                             PWM_CTRL_CMPMODE2_MASK)));
 298:.\Generated_Source\PSoC4/PWM.c ****                 PWM_CONTROL |= (comparemode1masked | comparemode2masked);
 299:.\Generated_Source\PSoC4/PWM.c **** 
 300:.\Generated_Source\PSoC4/PWM.c ****             #else
 301:.\Generated_Source\PSoC4/PWM.c ****                 uint8 temp = comparemode;
 302:.\Generated_Source\PSoC4/PWM.c ****             #endif /* (PWM_UsingFixedFunction) */
 303:.\Generated_Source\PSoC4/PWM.c ****         }
 304:.\Generated_Source\PSoC4/PWM.c ****     #endif /* PWM_CompareMode1SW */
 305:.\Generated_Source\PSoC4/PWM.c **** 
 306:.\Generated_Source\PSoC4/PWM.c **** #else /* UseOneCompareMode */
 307:.\Generated_Source\PSoC4/PWM.c **** 
 308:.\Generated_Source\PSoC4/PWM.c ****     #if (PWM_CompareMode1SW)
 309:.\Generated_Source\PSoC4/PWM.c **** 
 310:.\Generated_Source\PSoC4/PWM.c **** 
 311:.\Generated_Source\PSoC4/PWM.c ****         /*******************************************************************************
 312:.\Generated_Source\PSoC4/PWM.c ****         * Function Name: PWM_SetCompareMode1
 313:.\Generated_Source\PSoC4/PWM.c ****         ********************************************************************************
 314:.\Generated_Source\PSoC4/PWM.c ****         *
 315:.\Generated_Source\PSoC4/PWM.c ****         * Summary:
 316:.\Generated_Source\PSoC4/PWM.c ****         *  This function writes the Compare Mode for the pwm or pwm1 output
ARM GAS  C:\Users\Vitali\AppData\Local\Temp\ccfEoTAg.s 			page 8


 317:.\Generated_Source\PSoC4/PWM.c ****         *
 318:.\Generated_Source\PSoC4/PWM.c ****         * Parameters:
 319:.\Generated_Source\PSoC4/PWM.c ****         *  comparemode:  The new compare mode for the PWM output. Use the compare types
 320:.\Generated_Source\PSoC4/PWM.c ****         *                defined in the H file as input arguments.
 321:.\Generated_Source\PSoC4/PWM.c ****         *
 322:.\Generated_Source\PSoC4/PWM.c ****         * Return:
 323:.\Generated_Source\PSoC4/PWM.c ****         *  None
 324:.\Generated_Source\PSoC4/PWM.c ****         *
 325:.\Generated_Source\PSoC4/PWM.c ****         *******************************************************************************/
 326:.\Generated_Source\PSoC4/PWM.c ****         void PWM_SetCompareMode1(uint8 comparemode) 
 327:.\Generated_Source\PSoC4/PWM.c ****         {
 328:.\Generated_Source\PSoC4/PWM.c ****             #if(0 != PWM_CTRL_CMPMODE1_SHIFT)
 329:.\Generated_Source\PSoC4/PWM.c ****                 uint8 comparemodemasked = ((uint8)((uint8)comparemode << PWM_CTRL_CMPMODE1_SHIFT)) 
 330:.\Generated_Source\PSoC4/PWM.c ****                                            PWM_CTRL_CMPMODE1_MASK;
 331:.\Generated_Source\PSoC4/PWM.c ****             #else
 332:.\Generated_Source\PSoC4/PWM.c ****                 uint8 comparemodemasked = comparemode & PWM_CTRL_CMPMODE1_MASK;
 333:.\Generated_Source\PSoC4/PWM.c ****             #endif /* (0 != PWM_CTRL_CMPMODE1_SHIFT) */
 334:.\Generated_Source\PSoC4/PWM.c **** 
 335:.\Generated_Source\PSoC4/PWM.c ****             #if (PWM_UseControl)
 336:.\Generated_Source\PSoC4/PWM.c ****                 PWM_CONTROL &= ((uint8)(~PWM_CTRL_CMPMODE1_MASK)); /*Clear existing mode */
 337:.\Generated_Source\PSoC4/PWM.c ****                 PWM_CONTROL |= comparemodemasked;
 338:.\Generated_Source\PSoC4/PWM.c ****             #endif /* (PWM_UseControl) */
 339:.\Generated_Source\PSoC4/PWM.c ****         }
 340:.\Generated_Source\PSoC4/PWM.c ****     #endif /* PWM_CompareMode1SW */
 341:.\Generated_Source\PSoC4/PWM.c **** 
 342:.\Generated_Source\PSoC4/PWM.c **** #if (PWM_CompareMode2SW)
 343:.\Generated_Source\PSoC4/PWM.c **** 
 344:.\Generated_Source\PSoC4/PWM.c **** 
 345:.\Generated_Source\PSoC4/PWM.c ****     /*******************************************************************************
 346:.\Generated_Source\PSoC4/PWM.c ****     * Function Name: PWM_SetCompareMode2
 347:.\Generated_Source\PSoC4/PWM.c ****     ********************************************************************************
 348:.\Generated_Source\PSoC4/PWM.c ****     *
 349:.\Generated_Source\PSoC4/PWM.c ****     * Summary:
 350:.\Generated_Source\PSoC4/PWM.c ****     *  This function writes the Compare Mode for the pwm or pwm2 output
 351:.\Generated_Source\PSoC4/PWM.c ****     *
 352:.\Generated_Source\PSoC4/PWM.c ****     * Parameters:
 353:.\Generated_Source\PSoC4/PWM.c ****     *  comparemode:  The new compare mode for the PWM output. Use the compare types
 354:.\Generated_Source\PSoC4/PWM.c ****     *                defined in the H file as input arguments.
 355:.\Generated_Source\PSoC4/PWM.c ****     *
 356:.\Generated_Source\PSoC4/PWM.c ****     * Return:
 357:.\Generated_Source\PSoC4/PWM.c ****     *  None
 358:.\Generated_Source\PSoC4/PWM.c ****     *
 359:.\Generated_Source\PSoC4/PWM.c ****     *******************************************************************************/
 360:.\Generated_Source\PSoC4/PWM.c ****     void PWM_SetCompareMode2(uint8 comparemode) 
 361:.\Generated_Source\PSoC4/PWM.c ****     {
 362:.\Generated_Source\PSoC4/PWM.c **** 
 363:.\Generated_Source\PSoC4/PWM.c ****         #if(0 != PWM_CTRL_CMPMODE2_SHIFT)
 364:.\Generated_Source\PSoC4/PWM.c ****             uint8 comparemodemasked = ((uint8)((uint8)comparemode << PWM_CTRL_CMPMODE2_SHIFT)) &
 365:.\Generated_Source\PSoC4/PWM.c ****                                                  PWM_CTRL_CMPMODE2_MASK;
 366:.\Generated_Source\PSoC4/PWM.c ****         #else
 367:.\Generated_Source\PSoC4/PWM.c ****             uint8 comparemodemasked = comparemode & PWM_CTRL_CMPMODE2_MASK;
 368:.\Generated_Source\PSoC4/PWM.c ****         #endif /* (0 != PWM_CTRL_CMPMODE2_SHIFT) */
 369:.\Generated_Source\PSoC4/PWM.c **** 
 370:.\Generated_Source\PSoC4/PWM.c ****         #if (PWM_UseControl)
 371:.\Generated_Source\PSoC4/PWM.c ****             PWM_CONTROL &= ((uint8)(~PWM_CTRL_CMPMODE2_MASK)); /*Clear existing mode */
 372:.\Generated_Source\PSoC4/PWM.c ****             PWM_CONTROL |= comparemodemasked;
 373:.\Generated_Source\PSoC4/PWM.c ****         #endif /* (PWM_UseControl) */
ARM GAS  C:\Users\Vitali\AppData\Local\Temp\ccfEoTAg.s 			page 9


 374:.\Generated_Source\PSoC4/PWM.c ****     }
 375:.\Generated_Source\PSoC4/PWM.c ****     #endif /*PWM_CompareMode2SW */
 376:.\Generated_Source\PSoC4/PWM.c **** 
 377:.\Generated_Source\PSoC4/PWM.c **** #endif /* UseOneCompareMode */
 378:.\Generated_Source\PSoC4/PWM.c **** 
 379:.\Generated_Source\PSoC4/PWM.c **** 
 380:.\Generated_Source\PSoC4/PWM.c **** #if (!PWM_UsingFixedFunction)
 381:.\Generated_Source\PSoC4/PWM.c **** 
 382:.\Generated_Source\PSoC4/PWM.c **** 
 383:.\Generated_Source\PSoC4/PWM.c ****     /*******************************************************************************
 384:.\Generated_Source\PSoC4/PWM.c ****     * Function Name: PWM_WriteCounter
 385:.\Generated_Source\PSoC4/PWM.c ****     ********************************************************************************
 386:.\Generated_Source\PSoC4/PWM.c ****     *
 387:.\Generated_Source\PSoC4/PWM.c ****     * Summary:
 388:.\Generated_Source\PSoC4/PWM.c ****     *  Writes a new counter value directly to the counter register. This will be
 389:.\Generated_Source\PSoC4/PWM.c ****     *  implemented for that currently running period and only that period. This API
 390:.\Generated_Source\PSoC4/PWM.c ****     *  is valid only for UDB implementation and not available for fixed function
 391:.\Generated_Source\PSoC4/PWM.c ****     *  PWM implementation.
 392:.\Generated_Source\PSoC4/PWM.c ****     *
 393:.\Generated_Source\PSoC4/PWM.c ****     * Parameters:
 394:.\Generated_Source\PSoC4/PWM.c ****     *  counter:  The period new period counter value.
 395:.\Generated_Source\PSoC4/PWM.c ****     *
 396:.\Generated_Source\PSoC4/PWM.c ****     * Return:
 397:.\Generated_Source\PSoC4/PWM.c ****     *  None
 398:.\Generated_Source\PSoC4/PWM.c ****     *
 399:.\Generated_Source\PSoC4/PWM.c ****     * Side Effects:
 400:.\Generated_Source\PSoC4/PWM.c ****     *  The PWM Period will be reloaded when a counter value will be a zero
 401:.\Generated_Source\PSoC4/PWM.c ****     *
 402:.\Generated_Source\PSoC4/PWM.c ****     *******************************************************************************/
 403:.\Generated_Source\PSoC4/PWM.c ****     void PWM_WriteCounter(uint8 counter) \
 404:.\Generated_Source\PSoC4/PWM.c ****                                        
 405:.\Generated_Source\PSoC4/PWM.c ****     {
  82              		.loc 1 405 0
  83              		.cfi_startproc
  84              	.LVL0:
 406:.\Generated_Source\PSoC4/PWM.c ****         CY_SET_REG8(PWM_COUNTER_LSB_PTR, counter);
  85              		.loc 1 406 0
  86 0000 014B     		ldr	r3, .L8
 407:.\Generated_Source\PSoC4/PWM.c ****     }
  87              		.loc 1 407 0
  88              		@ sp needed
 406:.\Generated_Source\PSoC4/PWM.c ****         CY_SET_REG8(PWM_COUNTER_LSB_PTR, counter);
  89              		.loc 1 406 0
  90 0002 1870     		strb	r0, [r3]
  91              		.loc 1 407 0
  92 0004 7047     		bx	lr
  93              	.L9:
  94 0006 C046     		.align	2
  95              	.L8:
  96 0008 02000F40 		.word	1074724866
  97              		.cfi_endproc
  98              	.LFE4:
  99              		.size	PWM_WriteCounter, .-PWM_WriteCounter
 100              		.section	.text.PWM_ReadCounter,"ax",%progbits
 101              		.align	1
 102              		.global	PWM_ReadCounter
 103              		.code	16
ARM GAS  C:\Users\Vitali\AppData\Local\Temp\ccfEoTAg.s 			page 10


 104              		.thumb_func
 105              		.type	PWM_ReadCounter, %function
 106              	PWM_ReadCounter:
 107              	.LFB5:
 408:.\Generated_Source\PSoC4/PWM.c **** 
 409:.\Generated_Source\PSoC4/PWM.c **** 
 410:.\Generated_Source\PSoC4/PWM.c ****     /*******************************************************************************
 411:.\Generated_Source\PSoC4/PWM.c ****     * Function Name: PWM_ReadCounter
 412:.\Generated_Source\PSoC4/PWM.c ****     ********************************************************************************
 413:.\Generated_Source\PSoC4/PWM.c ****     *
 414:.\Generated_Source\PSoC4/PWM.c ****     * Summary:
 415:.\Generated_Source\PSoC4/PWM.c ****     *  This function returns the current value of the counter.  It doesn't matter
 416:.\Generated_Source\PSoC4/PWM.c ****     *  if the counter is enabled or running.
 417:.\Generated_Source\PSoC4/PWM.c ****     *
 418:.\Generated_Source\PSoC4/PWM.c ****     * Parameters:
 419:.\Generated_Source\PSoC4/PWM.c ****     *  None
 420:.\Generated_Source\PSoC4/PWM.c ****     *
 421:.\Generated_Source\PSoC4/PWM.c ****     * Return:
 422:.\Generated_Source\PSoC4/PWM.c ****     *  The current value of the counter.
 423:.\Generated_Source\PSoC4/PWM.c ****     *
 424:.\Generated_Source\PSoC4/PWM.c ****     *******************************************************************************/
 425:.\Generated_Source\PSoC4/PWM.c ****     uint8 PWM_ReadCounter(void) 
 426:.\Generated_Source\PSoC4/PWM.c ****     {
 108              		.loc 1 426 0
 109              		.cfi_startproc
 427:.\Generated_Source\PSoC4/PWM.c ****         /* Force capture by reading Accumulator */
 428:.\Generated_Source\PSoC4/PWM.c ****         /* Must first do a software capture to be able to read the counter */
 429:.\Generated_Source\PSoC4/PWM.c ****         /* It is up to the user code to make sure there isn't already captured data in the FIFO */
 430:.\Generated_Source\PSoC4/PWM.c ****           (void)CY_GET_REG8(PWM_COUNTERCAP_LSB_PTR_8BIT);
 110              		.loc 1 430 0
 111 0000 024B     		ldr	r3, .L11
 431:.\Generated_Source\PSoC4/PWM.c **** 
 432:.\Generated_Source\PSoC4/PWM.c ****         /* Read the data from the FIFO */
 433:.\Generated_Source\PSoC4/PWM.c ****         return (CY_GET_REG8(PWM_CAPTURE_LSB_PTR));
 434:.\Generated_Source\PSoC4/PWM.c ****     }
 112              		.loc 1 434 0
 113              		@ sp needed
 430:.\Generated_Source\PSoC4/PWM.c **** 
 114              		.loc 1 430 0
 115 0002 1B78     		ldrb	r3, [r3]
 433:.\Generated_Source\PSoC4/PWM.c ****     }
 116              		.loc 1 433 0
 117 0004 024B     		ldr	r3, .L11+4
 118 0006 1878     		ldrb	r0, [r3]
 119 0008 C0B2     		uxtb	r0, r0
 120              		.loc 1 434 0
 121 000a 7047     		bx	lr
 122              	.L12:
 123              		.align	2
 124              	.L11:
 125 000c 12000F40 		.word	1074724882
 126 0010 52000F40 		.word	1074724946
 127              		.cfi_endproc
 128              	.LFE5:
 129              		.size	PWM_ReadCounter, .-PWM_ReadCounter
 130              		.section	.text.PWM_ClearFIFO,"ax",%progbits
 131              		.align	1
ARM GAS  C:\Users\Vitali\AppData\Local\Temp\ccfEoTAg.s 			page 11


 132              		.global	PWM_ClearFIFO
 133              		.code	16
 134              		.thumb_func
 135              		.type	PWM_ClearFIFO, %function
 136              	PWM_ClearFIFO:
 137              	.LFB6:
 435:.\Generated_Source\PSoC4/PWM.c **** 
 436:.\Generated_Source\PSoC4/PWM.c ****     #if (PWM_UseStatus)
 437:.\Generated_Source\PSoC4/PWM.c **** 
 438:.\Generated_Source\PSoC4/PWM.c **** 
 439:.\Generated_Source\PSoC4/PWM.c ****         /*******************************************************************************
 440:.\Generated_Source\PSoC4/PWM.c ****         * Function Name: PWM_ClearFIFO
 441:.\Generated_Source\PSoC4/PWM.c ****         ********************************************************************************
 442:.\Generated_Source\PSoC4/PWM.c ****         *
 443:.\Generated_Source\PSoC4/PWM.c ****         * Summary:
 444:.\Generated_Source\PSoC4/PWM.c ****         *  This function clears all capture data from the capture FIFO
 445:.\Generated_Source\PSoC4/PWM.c ****         *
 446:.\Generated_Source\PSoC4/PWM.c ****         * Parameters:
 447:.\Generated_Source\PSoC4/PWM.c ****         *  None
 448:.\Generated_Source\PSoC4/PWM.c ****         *
 449:.\Generated_Source\PSoC4/PWM.c ****         * Return:
 450:.\Generated_Source\PSoC4/PWM.c ****         *  None
 451:.\Generated_Source\PSoC4/PWM.c ****         *
 452:.\Generated_Source\PSoC4/PWM.c ****         *******************************************************************************/
 453:.\Generated_Source\PSoC4/PWM.c ****         void PWM_ClearFIFO(void) 
 454:.\Generated_Source\PSoC4/PWM.c ****         {
 138              		.loc 1 454 0
 139              		.cfi_startproc
 140              	.L14:
 141              	.LBB16:
 142              	.LBB17:
 455:.\Generated_Source\PSoC4/PWM.c ****             while(0u != (PWM_ReadStatusRegister() & PWM_STATUS_FIFONEMPTY))
 456:.\Generated_Source\PSoC4/PWM.c ****             {
 457:.\Generated_Source\PSoC4/PWM.c ****                 (void)PWM_ReadCapture();
 458:.\Generated_Source\PSoC4/PWM.c ****             }
 459:.\Generated_Source\PSoC4/PWM.c ****         }
 460:.\Generated_Source\PSoC4/PWM.c **** 
 461:.\Generated_Source\PSoC4/PWM.c ****     #endif /* PWM_UseStatus */
 462:.\Generated_Source\PSoC4/PWM.c **** 
 463:.\Generated_Source\PSoC4/PWM.c **** #endif /* !PWM_UsingFixedFunction */
 464:.\Generated_Source\PSoC4/PWM.c **** 
 465:.\Generated_Source\PSoC4/PWM.c **** 
 466:.\Generated_Source\PSoC4/PWM.c **** /*******************************************************************************
 467:.\Generated_Source\PSoC4/PWM.c **** * Function Name: PWM_WritePeriod
 468:.\Generated_Source\PSoC4/PWM.c **** ********************************************************************************
 469:.\Generated_Source\PSoC4/PWM.c **** *
 470:.\Generated_Source\PSoC4/PWM.c **** * Summary:
 471:.\Generated_Source\PSoC4/PWM.c **** *  This function is used to change the period of the counter.  The new period
 472:.\Generated_Source\PSoC4/PWM.c **** *  will be loaded the next time terminal count is detected.
 473:.\Generated_Source\PSoC4/PWM.c **** *
 474:.\Generated_Source\PSoC4/PWM.c **** * Parameters:
 475:.\Generated_Source\PSoC4/PWM.c **** *  period:  Period value. May be between 1 and (2^Resolution)-1.  A value of 0
 476:.\Generated_Source\PSoC4/PWM.c **** *           will result in the counter remaining at zero.
 477:.\Generated_Source\PSoC4/PWM.c **** *
 478:.\Generated_Source\PSoC4/PWM.c **** * Return:
 479:.\Generated_Source\PSoC4/PWM.c **** *  None
 480:.\Generated_Source\PSoC4/PWM.c **** *
ARM GAS  C:\Users\Vitali\AppData\Local\Temp\ccfEoTAg.s 			page 12


 481:.\Generated_Source\PSoC4/PWM.c **** *******************************************************************************/
 482:.\Generated_Source\PSoC4/PWM.c **** void PWM_WritePeriod(uint8 period) 
 483:.\Generated_Source\PSoC4/PWM.c **** {
 484:.\Generated_Source\PSoC4/PWM.c ****     #if(PWM_UsingFixedFunction)
 485:.\Generated_Source\PSoC4/PWM.c ****         CY_SET_REG16(PWM_PERIOD_LSB_PTR, (uint16)period);
 486:.\Generated_Source\PSoC4/PWM.c ****     #else
 487:.\Generated_Source\PSoC4/PWM.c ****         CY_SET_REG8(PWM_PERIOD_LSB_PTR, period);
 488:.\Generated_Source\PSoC4/PWM.c ****     #endif /* (PWM_UsingFixedFunction) */
 489:.\Generated_Source\PSoC4/PWM.c **** }
 490:.\Generated_Source\PSoC4/PWM.c **** 
 491:.\Generated_Source\PSoC4/PWM.c **** #if (PWM_UseOneCompareMode)
 492:.\Generated_Source\PSoC4/PWM.c **** 
 493:.\Generated_Source\PSoC4/PWM.c **** 
 494:.\Generated_Source\PSoC4/PWM.c ****     /*******************************************************************************
 495:.\Generated_Source\PSoC4/PWM.c ****     * Function Name: PWM_WriteCompare
 496:.\Generated_Source\PSoC4/PWM.c ****     ********************************************************************************
 497:.\Generated_Source\PSoC4/PWM.c ****     *
 498:.\Generated_Source\PSoC4/PWM.c ****     * Summary:
 499:.\Generated_Source\PSoC4/PWM.c ****     *  This funtion is used to change the compare1 value when the PWM is in Dither
 500:.\Generated_Source\PSoC4/PWM.c ****     *  mode. The compare output will reflect the new value on the next UDB clock.
 501:.\Generated_Source\PSoC4/PWM.c ****     *  The compare output will be driven high when the present counter value is
 502:.\Generated_Source\PSoC4/PWM.c ****     *  compared to the compare value based on the compare mode defined in
 503:.\Generated_Source\PSoC4/PWM.c ****     *  Dither Mode.
 504:.\Generated_Source\PSoC4/PWM.c ****     *
 505:.\Generated_Source\PSoC4/PWM.c ****     * Parameters:
 506:.\Generated_Source\PSoC4/PWM.c ****     *  compare:  New compare value.
 507:.\Generated_Source\PSoC4/PWM.c ****     *
 508:.\Generated_Source\PSoC4/PWM.c ****     * Return:
 509:.\Generated_Source\PSoC4/PWM.c ****     *  None
 510:.\Generated_Source\PSoC4/PWM.c ****     *
 511:.\Generated_Source\PSoC4/PWM.c ****     * Side Effects:
 512:.\Generated_Source\PSoC4/PWM.c ****     *  This function is only available if the PWM mode parameter is set to
 513:.\Generated_Source\PSoC4/PWM.c ****     *  Dither Mode, Center Aligned Mode or One Output Mode
 514:.\Generated_Source\PSoC4/PWM.c ****     *
 515:.\Generated_Source\PSoC4/PWM.c ****     *******************************************************************************/
 516:.\Generated_Source\PSoC4/PWM.c ****     void PWM_WriteCompare(uint8 compare) \
 517:.\Generated_Source\PSoC4/PWM.c ****                                        
 518:.\Generated_Source\PSoC4/PWM.c ****     {
 519:.\Generated_Source\PSoC4/PWM.c ****         #if(PWM_UsingFixedFunction)
 520:.\Generated_Source\PSoC4/PWM.c ****             CY_SET_REG16(PWM_COMPARE1_LSB_PTR, (uint16)compare);
 521:.\Generated_Source\PSoC4/PWM.c ****         #else
 522:.\Generated_Source\PSoC4/PWM.c ****             CY_SET_REG8(PWM_COMPARE1_LSB_PTR, compare);
 523:.\Generated_Source\PSoC4/PWM.c ****         #endif /* (PWM_UsingFixedFunction) */
 524:.\Generated_Source\PSoC4/PWM.c **** 
 525:.\Generated_Source\PSoC4/PWM.c ****         #if (PWM_PWMMode == PWM__B_PWM__DITHER)
 526:.\Generated_Source\PSoC4/PWM.c ****             #if(PWM_UsingFixedFunction)
 527:.\Generated_Source\PSoC4/PWM.c ****                 CY_SET_REG16(PWM_COMPARE2_LSB_PTR, (uint16)(compare + 1u));
 528:.\Generated_Source\PSoC4/PWM.c ****             #else
 529:.\Generated_Source\PSoC4/PWM.c ****                 CY_SET_REG8(PWM_COMPARE2_LSB_PTR, (compare + 1u));
 530:.\Generated_Source\PSoC4/PWM.c ****             #endif /* (PWM_UsingFixedFunction) */
 531:.\Generated_Source\PSoC4/PWM.c ****         #endif /* (PWM_PWMMode == PWM__B_PWM__DITHER) */
 532:.\Generated_Source\PSoC4/PWM.c ****     }
 533:.\Generated_Source\PSoC4/PWM.c **** 
 534:.\Generated_Source\PSoC4/PWM.c **** 
 535:.\Generated_Source\PSoC4/PWM.c **** #else
 536:.\Generated_Source\PSoC4/PWM.c **** 
 537:.\Generated_Source\PSoC4/PWM.c **** 
ARM GAS  C:\Users\Vitali\AppData\Local\Temp\ccfEoTAg.s 			page 13


 538:.\Generated_Source\PSoC4/PWM.c ****     /*******************************************************************************
 539:.\Generated_Source\PSoC4/PWM.c ****     * Function Name: PWM_WriteCompare1
 540:.\Generated_Source\PSoC4/PWM.c ****     ********************************************************************************
 541:.\Generated_Source\PSoC4/PWM.c ****     *
 542:.\Generated_Source\PSoC4/PWM.c ****     * Summary:
 543:.\Generated_Source\PSoC4/PWM.c ****     *  This funtion is used to change the compare1 value.  The compare output will
 544:.\Generated_Source\PSoC4/PWM.c ****     *  reflect the new value on the next UDB clock.  The compare output will be
 545:.\Generated_Source\PSoC4/PWM.c ****     *  driven high when the present counter value is less than or less than or
 546:.\Generated_Source\PSoC4/PWM.c ****     *  equal to the compare register, depending on the mode.
 547:.\Generated_Source\PSoC4/PWM.c ****     *
 548:.\Generated_Source\PSoC4/PWM.c ****     * Parameters:
 549:.\Generated_Source\PSoC4/PWM.c ****     *  compare:  New compare value.
 550:.\Generated_Source\PSoC4/PWM.c ****     *
 551:.\Generated_Source\PSoC4/PWM.c ****     * Return:
 552:.\Generated_Source\PSoC4/PWM.c ****     *  None
 553:.\Generated_Source\PSoC4/PWM.c ****     *
 554:.\Generated_Source\PSoC4/PWM.c ****     *******************************************************************************/
 555:.\Generated_Source\PSoC4/PWM.c ****     void PWM_WriteCompare1(uint8 compare) \
 556:.\Generated_Source\PSoC4/PWM.c ****                                         
 557:.\Generated_Source\PSoC4/PWM.c ****     {
 558:.\Generated_Source\PSoC4/PWM.c ****         #if(PWM_UsingFixedFunction)
 559:.\Generated_Source\PSoC4/PWM.c ****             CY_SET_REG16(PWM_COMPARE1_LSB_PTR, (uint16)compare);
 560:.\Generated_Source\PSoC4/PWM.c ****         #else
 561:.\Generated_Source\PSoC4/PWM.c ****             CY_SET_REG8(PWM_COMPARE1_LSB_PTR, compare);
 562:.\Generated_Source\PSoC4/PWM.c ****         #endif /* (PWM_UsingFixedFunction) */
 563:.\Generated_Source\PSoC4/PWM.c ****     }
 564:.\Generated_Source\PSoC4/PWM.c **** 
 565:.\Generated_Source\PSoC4/PWM.c **** 
 566:.\Generated_Source\PSoC4/PWM.c ****     /*******************************************************************************
 567:.\Generated_Source\PSoC4/PWM.c ****     * Function Name: PWM_WriteCompare2
 568:.\Generated_Source\PSoC4/PWM.c ****     ********************************************************************************
 569:.\Generated_Source\PSoC4/PWM.c ****     *
 570:.\Generated_Source\PSoC4/PWM.c ****     * Summary:
 571:.\Generated_Source\PSoC4/PWM.c ****     *  This funtion is used to change the compare value, for compare1 output.
 572:.\Generated_Source\PSoC4/PWM.c ****     *  The compare output will reflect the new value on the next UDB clock.
 573:.\Generated_Source\PSoC4/PWM.c ****     *  The compare output will be driven high when the present counter value is
 574:.\Generated_Source\PSoC4/PWM.c ****     *  less than or less than or equal to the compare register, depending on the
 575:.\Generated_Source\PSoC4/PWM.c ****     *  mode.
 576:.\Generated_Source\PSoC4/PWM.c ****     *
 577:.\Generated_Source\PSoC4/PWM.c ****     * Parameters:
 578:.\Generated_Source\PSoC4/PWM.c ****     *  compare:  New compare value.
 579:.\Generated_Source\PSoC4/PWM.c ****     *
 580:.\Generated_Source\PSoC4/PWM.c ****     * Return:
 581:.\Generated_Source\PSoC4/PWM.c ****     *  None
 582:.\Generated_Source\PSoC4/PWM.c ****     *
 583:.\Generated_Source\PSoC4/PWM.c ****     *******************************************************************************/
 584:.\Generated_Source\PSoC4/PWM.c ****     void PWM_WriteCompare2(uint8 compare) \
 585:.\Generated_Source\PSoC4/PWM.c ****                                         
 586:.\Generated_Source\PSoC4/PWM.c ****     {
 587:.\Generated_Source\PSoC4/PWM.c ****         #if(PWM_UsingFixedFunction)
 588:.\Generated_Source\PSoC4/PWM.c ****             CY_SET_REG16(PWM_COMPARE2_LSB_PTR, compare);
 589:.\Generated_Source\PSoC4/PWM.c ****         #else
 590:.\Generated_Source\PSoC4/PWM.c ****             CY_SET_REG8(PWM_COMPARE2_LSB_PTR, compare);
 591:.\Generated_Source\PSoC4/PWM.c ****         #endif /* (PWM_UsingFixedFunction) */
 592:.\Generated_Source\PSoC4/PWM.c ****     }
 593:.\Generated_Source\PSoC4/PWM.c **** #endif /* UseOneCompareMode */
 594:.\Generated_Source\PSoC4/PWM.c **** 
ARM GAS  C:\Users\Vitali\AppData\Local\Temp\ccfEoTAg.s 			page 14


 595:.\Generated_Source\PSoC4/PWM.c **** #if (PWM_DeadBandUsed)
 596:.\Generated_Source\PSoC4/PWM.c **** 
 597:.\Generated_Source\PSoC4/PWM.c **** 
 598:.\Generated_Source\PSoC4/PWM.c ****     /*******************************************************************************
 599:.\Generated_Source\PSoC4/PWM.c ****     * Function Name: PWM_WriteDeadTime
 600:.\Generated_Source\PSoC4/PWM.c ****     ********************************************************************************
 601:.\Generated_Source\PSoC4/PWM.c ****     *
 602:.\Generated_Source\PSoC4/PWM.c ****     * Summary:
 603:.\Generated_Source\PSoC4/PWM.c ****     *  This function writes the dead-band counts to the corresponding register
 604:.\Generated_Source\PSoC4/PWM.c ****     *
 605:.\Generated_Source\PSoC4/PWM.c ****     * Parameters:
 606:.\Generated_Source\PSoC4/PWM.c ****     *  deadtime:  Number of counts for dead time
 607:.\Generated_Source\PSoC4/PWM.c ****     *
 608:.\Generated_Source\PSoC4/PWM.c ****     * Return:
 609:.\Generated_Source\PSoC4/PWM.c ****     *  None
 610:.\Generated_Source\PSoC4/PWM.c ****     *
 611:.\Generated_Source\PSoC4/PWM.c ****     *******************************************************************************/
 612:.\Generated_Source\PSoC4/PWM.c ****     void PWM_WriteDeadTime(uint8 deadtime) 
 613:.\Generated_Source\PSoC4/PWM.c ****     {
 614:.\Generated_Source\PSoC4/PWM.c ****         /* If using the Dead Band 1-255 mode then just write the register */
 615:.\Generated_Source\PSoC4/PWM.c ****         #if(!PWM_DeadBand2_4)
 616:.\Generated_Source\PSoC4/PWM.c ****             CY_SET_REG8(PWM_DEADBAND_COUNT_PTR, deadtime);
 617:.\Generated_Source\PSoC4/PWM.c ****         #else
 618:.\Generated_Source\PSoC4/PWM.c ****             /* Otherwise the data has to be masked and offset */
 619:.\Generated_Source\PSoC4/PWM.c ****             /* Clear existing data */
 620:.\Generated_Source\PSoC4/PWM.c ****             PWM_DEADBAND_COUNT &= ((uint8)(~PWM_DEADBAND_COUNT_MASK));
 621:.\Generated_Source\PSoC4/PWM.c **** 
 622:.\Generated_Source\PSoC4/PWM.c ****             /* Set new dead time */
 623:.\Generated_Source\PSoC4/PWM.c ****             #if(PWM_DEADBAND_COUNT_SHIFT)
 624:.\Generated_Source\PSoC4/PWM.c ****                 PWM_DEADBAND_COUNT |= ((uint8)((uint8)deadtime << PWM_DEADBAND_COUNT_SHIFT)) &
 625:.\Generated_Source\PSoC4/PWM.c ****                                                     PWM_DEADBAND_COUNT_MASK;
 626:.\Generated_Source\PSoC4/PWM.c ****             #else
 627:.\Generated_Source\PSoC4/PWM.c ****                 PWM_DEADBAND_COUNT |= deadtime & PWM_DEADBAND_COUNT_MASK;
 628:.\Generated_Source\PSoC4/PWM.c ****             #endif /* (PWM_DEADBAND_COUNT_SHIFT) */
 629:.\Generated_Source\PSoC4/PWM.c **** 
 630:.\Generated_Source\PSoC4/PWM.c ****         #endif /* (!PWM_DeadBand2_4) */
 631:.\Generated_Source\PSoC4/PWM.c ****     }
 632:.\Generated_Source\PSoC4/PWM.c **** 
 633:.\Generated_Source\PSoC4/PWM.c **** 
 634:.\Generated_Source\PSoC4/PWM.c ****     /*******************************************************************************
 635:.\Generated_Source\PSoC4/PWM.c ****     * Function Name: PWM_ReadDeadTime
 636:.\Generated_Source\PSoC4/PWM.c ****     ********************************************************************************
 637:.\Generated_Source\PSoC4/PWM.c ****     *
 638:.\Generated_Source\PSoC4/PWM.c ****     * Summary:
 639:.\Generated_Source\PSoC4/PWM.c ****     *  This function reads the dead-band counts from the corresponding register
 640:.\Generated_Source\PSoC4/PWM.c ****     *
 641:.\Generated_Source\PSoC4/PWM.c ****     * Parameters:
 642:.\Generated_Source\PSoC4/PWM.c ****     *  None
 643:.\Generated_Source\PSoC4/PWM.c ****     *
 644:.\Generated_Source\PSoC4/PWM.c ****     * Return:
 645:.\Generated_Source\PSoC4/PWM.c ****     *  Dead Band Counts
 646:.\Generated_Source\PSoC4/PWM.c ****     *
 647:.\Generated_Source\PSoC4/PWM.c ****     *******************************************************************************/
 648:.\Generated_Source\PSoC4/PWM.c ****     uint8 PWM_ReadDeadTime(void) 
 649:.\Generated_Source\PSoC4/PWM.c ****     {
 650:.\Generated_Source\PSoC4/PWM.c ****         /* If using the Dead Band 1-255 mode then just read the register */
 651:.\Generated_Source\PSoC4/PWM.c ****         #if(!PWM_DeadBand2_4)
ARM GAS  C:\Users\Vitali\AppData\Local\Temp\ccfEoTAg.s 			page 15


 652:.\Generated_Source\PSoC4/PWM.c ****             return (CY_GET_REG8(PWM_DEADBAND_COUNT_PTR));
 653:.\Generated_Source\PSoC4/PWM.c ****         #else
 654:.\Generated_Source\PSoC4/PWM.c **** 
 655:.\Generated_Source\PSoC4/PWM.c ****             /* Otherwise the data has to be masked and offset */
 656:.\Generated_Source\PSoC4/PWM.c ****             #if(PWM_DEADBAND_COUNT_SHIFT)
 657:.\Generated_Source\PSoC4/PWM.c ****                 return ((uint8)(((uint8)(PWM_DEADBAND_COUNT & PWM_DEADBAND_COUNT_MASK)) >>
 658:.\Generated_Source\PSoC4/PWM.c ****                                                                            PWM_DEADBAND_COUNT_SHIFT
 659:.\Generated_Source\PSoC4/PWM.c ****             #else
 660:.\Generated_Source\PSoC4/PWM.c ****                 return (PWM_DEADBAND_COUNT & PWM_DEADBAND_COUNT_MASK);
 661:.\Generated_Source\PSoC4/PWM.c ****             #endif /* (PWM_DEADBAND_COUNT_SHIFT) */
 662:.\Generated_Source\PSoC4/PWM.c ****         #endif /* (!PWM_DeadBand2_4) */
 663:.\Generated_Source\PSoC4/PWM.c ****     }
 664:.\Generated_Source\PSoC4/PWM.c **** #endif /* DeadBandUsed */
 665:.\Generated_Source\PSoC4/PWM.c **** 
 666:.\Generated_Source\PSoC4/PWM.c **** #if (PWM_UseStatus || PWM_UsingFixedFunction)
 667:.\Generated_Source\PSoC4/PWM.c **** 
 668:.\Generated_Source\PSoC4/PWM.c **** 
 669:.\Generated_Source\PSoC4/PWM.c ****     /*******************************************************************************
 670:.\Generated_Source\PSoC4/PWM.c ****     * Function Name: PWM_SetInterruptMode
 671:.\Generated_Source\PSoC4/PWM.c ****     ********************************************************************************
 672:.\Generated_Source\PSoC4/PWM.c ****     *
 673:.\Generated_Source\PSoC4/PWM.c ****     * Summary:
 674:.\Generated_Source\PSoC4/PWM.c ****     *  This function configures the interrupts mask control of theinterrupt
 675:.\Generated_Source\PSoC4/PWM.c ****     *  source status register.
 676:.\Generated_Source\PSoC4/PWM.c ****     *
 677:.\Generated_Source\PSoC4/PWM.c ****     * Parameters:
 678:.\Generated_Source\PSoC4/PWM.c ****     *  uint8 interruptMode: Bit field containing the interrupt sources enabled
 679:.\Generated_Source\PSoC4/PWM.c ****     *
 680:.\Generated_Source\PSoC4/PWM.c ****     * Return:
 681:.\Generated_Source\PSoC4/PWM.c ****     *  None
 682:.\Generated_Source\PSoC4/PWM.c ****     *
 683:.\Generated_Source\PSoC4/PWM.c ****     *******************************************************************************/
 684:.\Generated_Source\PSoC4/PWM.c ****     void PWM_SetInterruptMode(uint8 interruptMode) 
 685:.\Generated_Source\PSoC4/PWM.c ****     {
 686:.\Generated_Source\PSoC4/PWM.c ****         CY_SET_REG8(PWM_STATUS_MASK_PTR, interruptMode);
 687:.\Generated_Source\PSoC4/PWM.c ****     }
 688:.\Generated_Source\PSoC4/PWM.c **** 
 689:.\Generated_Source\PSoC4/PWM.c **** 
 690:.\Generated_Source\PSoC4/PWM.c ****     /*******************************************************************************
 691:.\Generated_Source\PSoC4/PWM.c ****     * Function Name: PWM_ReadStatusRegister
 692:.\Generated_Source\PSoC4/PWM.c ****     ********************************************************************************
 693:.\Generated_Source\PSoC4/PWM.c ****     *
 694:.\Generated_Source\PSoC4/PWM.c ****     * Summary:
 695:.\Generated_Source\PSoC4/PWM.c ****     *  This function returns the current state of the status register.
 696:.\Generated_Source\PSoC4/PWM.c ****     *
 697:.\Generated_Source\PSoC4/PWM.c ****     * Parameters:
 698:.\Generated_Source\PSoC4/PWM.c ****     *  None
 699:.\Generated_Source\PSoC4/PWM.c ****     *
 700:.\Generated_Source\PSoC4/PWM.c ****     * Return:
 701:.\Generated_Source\PSoC4/PWM.c ****     *  uint8 : Current status register value. The status register bits are:
 702:.\Generated_Source\PSoC4/PWM.c ****     *  [7:6] : Unused(0)
 703:.\Generated_Source\PSoC4/PWM.c ****     *  [5]   : Kill event output
 704:.\Generated_Source\PSoC4/PWM.c ****     *  [4]   : FIFO not empty
 705:.\Generated_Source\PSoC4/PWM.c ****     *  [3]   : FIFO full
 706:.\Generated_Source\PSoC4/PWM.c ****     *  [2]   : Terminal count
 707:.\Generated_Source\PSoC4/PWM.c ****     *  [1]   : Compare output 2
 708:.\Generated_Source\PSoC4/PWM.c ****     *  [0]   : Compare output 1
ARM GAS  C:\Users\Vitali\AppData\Local\Temp\ccfEoTAg.s 			page 16


 709:.\Generated_Source\PSoC4/PWM.c ****     *
 710:.\Generated_Source\PSoC4/PWM.c ****     *******************************************************************************/
 711:.\Generated_Source\PSoC4/PWM.c ****     uint8 PWM_ReadStatusRegister(void) 
 712:.\Generated_Source\PSoC4/PWM.c ****     {
 713:.\Generated_Source\PSoC4/PWM.c ****         return (CY_GET_REG8(PWM_STATUS_PTR));
 143              		.loc 1 713 0
 144 0000 034B     		ldr	r3, .L18
 145 0002 1B78     		ldrb	r3, [r3]
 146              	.LBE17:
 147              	.LBE16:
 455:.\Generated_Source\PSoC4/PWM.c ****             while(0u != (PWM_ReadStatusRegister() & PWM_STATUS_FIFONEMPTY))
 148              		.loc 1 455 0
 149 0004 DB06     		lsl	r3, r3, #27
 150 0006 02D5     		bpl	.L17
 151              	.LBB18:
 152              	.LBB19:
 714:.\Generated_Source\PSoC4/PWM.c ****     }
 715:.\Generated_Source\PSoC4/PWM.c **** 
 716:.\Generated_Source\PSoC4/PWM.c **** #endif /* (PWM_UseStatus || PWM_UsingFixedFunction) */
 717:.\Generated_Source\PSoC4/PWM.c **** 
 718:.\Generated_Source\PSoC4/PWM.c **** 
 719:.\Generated_Source\PSoC4/PWM.c **** #if (PWM_UseControl)
 720:.\Generated_Source\PSoC4/PWM.c **** 
 721:.\Generated_Source\PSoC4/PWM.c **** 
 722:.\Generated_Source\PSoC4/PWM.c ****     /*******************************************************************************
 723:.\Generated_Source\PSoC4/PWM.c ****     * Function Name: PWM_ReadControlRegister
 724:.\Generated_Source\PSoC4/PWM.c ****     ********************************************************************************
 725:.\Generated_Source\PSoC4/PWM.c ****     *
 726:.\Generated_Source\PSoC4/PWM.c ****     * Summary:
 727:.\Generated_Source\PSoC4/PWM.c ****     *  Returns the current state of the control register. This API is available
 728:.\Generated_Source\PSoC4/PWM.c ****     *  only if the control register is not removed.
 729:.\Generated_Source\PSoC4/PWM.c ****     *
 730:.\Generated_Source\PSoC4/PWM.c ****     * Parameters:
 731:.\Generated_Source\PSoC4/PWM.c ****     *  None
 732:.\Generated_Source\PSoC4/PWM.c ****     *
 733:.\Generated_Source\PSoC4/PWM.c ****     * Return:
 734:.\Generated_Source\PSoC4/PWM.c ****     *  uint8 : Current control register value
 735:.\Generated_Source\PSoC4/PWM.c ****     *
 736:.\Generated_Source\PSoC4/PWM.c ****     *******************************************************************************/
 737:.\Generated_Source\PSoC4/PWM.c ****     uint8 PWM_ReadControlRegister(void) 
 738:.\Generated_Source\PSoC4/PWM.c ****     {
 739:.\Generated_Source\PSoC4/PWM.c ****         uint8 result;
 740:.\Generated_Source\PSoC4/PWM.c **** 
 741:.\Generated_Source\PSoC4/PWM.c ****         result = CY_GET_REG8(PWM_CONTROL_PTR);
 742:.\Generated_Source\PSoC4/PWM.c ****         return (result);
 743:.\Generated_Source\PSoC4/PWM.c ****     }
 744:.\Generated_Source\PSoC4/PWM.c **** 
 745:.\Generated_Source\PSoC4/PWM.c **** 
 746:.\Generated_Source\PSoC4/PWM.c ****     /*******************************************************************************
 747:.\Generated_Source\PSoC4/PWM.c ****     * Function Name: PWM_WriteControlRegister
 748:.\Generated_Source\PSoC4/PWM.c ****     ********************************************************************************
 749:.\Generated_Source\PSoC4/PWM.c ****     *
 750:.\Generated_Source\PSoC4/PWM.c ****     * Summary:
 751:.\Generated_Source\PSoC4/PWM.c ****     *  Sets the bit field of the control register. This API is available only if
 752:.\Generated_Source\PSoC4/PWM.c ****     *  the control register is not removed.
 753:.\Generated_Source\PSoC4/PWM.c ****     *
 754:.\Generated_Source\PSoC4/PWM.c ****     * Parameters:
ARM GAS  C:\Users\Vitali\AppData\Local\Temp\ccfEoTAg.s 			page 17


 755:.\Generated_Source\PSoC4/PWM.c ****     *  uint8 control: Control register bit field, The status register bits are:
 756:.\Generated_Source\PSoC4/PWM.c ****     *  [7]   : PWM Enable
 757:.\Generated_Source\PSoC4/PWM.c ****     *  [6]   : Reset
 758:.\Generated_Source\PSoC4/PWM.c ****     *  [5:3] : Compare Mode2
 759:.\Generated_Source\PSoC4/PWM.c ****     *  [2:0] : Compare Mode2
 760:.\Generated_Source\PSoC4/PWM.c ****     *
 761:.\Generated_Source\PSoC4/PWM.c ****     * Return:
 762:.\Generated_Source\PSoC4/PWM.c ****     *  None
 763:.\Generated_Source\PSoC4/PWM.c ****     *
 764:.\Generated_Source\PSoC4/PWM.c ****     *******************************************************************************/
 765:.\Generated_Source\PSoC4/PWM.c ****     void PWM_WriteControlRegister(uint8 control) 
 766:.\Generated_Source\PSoC4/PWM.c ****     {
 767:.\Generated_Source\PSoC4/PWM.c ****         CY_SET_REG8(PWM_CONTROL_PTR, control);
 768:.\Generated_Source\PSoC4/PWM.c ****     }
 769:.\Generated_Source\PSoC4/PWM.c **** 
 770:.\Generated_Source\PSoC4/PWM.c **** #endif /* (PWM_UseControl) */
 771:.\Generated_Source\PSoC4/PWM.c **** 
 772:.\Generated_Source\PSoC4/PWM.c **** 
 773:.\Generated_Source\PSoC4/PWM.c **** #if (!PWM_UsingFixedFunction)
 774:.\Generated_Source\PSoC4/PWM.c **** 
 775:.\Generated_Source\PSoC4/PWM.c **** 
 776:.\Generated_Source\PSoC4/PWM.c ****     /*******************************************************************************
 777:.\Generated_Source\PSoC4/PWM.c ****     * Function Name: PWM_ReadCapture
 778:.\Generated_Source\PSoC4/PWM.c ****     ********************************************************************************
 779:.\Generated_Source\PSoC4/PWM.c ****     *
 780:.\Generated_Source\PSoC4/PWM.c ****     * Summary:
 781:.\Generated_Source\PSoC4/PWM.c ****     *  Reads the capture value from the capture FIFO.
 782:.\Generated_Source\PSoC4/PWM.c ****     *
 783:.\Generated_Source\PSoC4/PWM.c ****     * Parameters:
 784:.\Generated_Source\PSoC4/PWM.c ****     *  None
 785:.\Generated_Source\PSoC4/PWM.c ****     *
 786:.\Generated_Source\PSoC4/PWM.c ****     * Return:
 787:.\Generated_Source\PSoC4/PWM.c ****     *  uint8/uint16: The current capture value
 788:.\Generated_Source\PSoC4/PWM.c ****     *
 789:.\Generated_Source\PSoC4/PWM.c ****     *******************************************************************************/
 790:.\Generated_Source\PSoC4/PWM.c ****     uint8 PWM_ReadCapture(void) 
 791:.\Generated_Source\PSoC4/PWM.c ****     {
 792:.\Generated_Source\PSoC4/PWM.c ****         return (CY_GET_REG8(PWM_CAPTURE_LSB_PTR));
 153              		.loc 1 792 0
 154 0008 024B     		ldr	r3, .L18+4
 155 000a 1B78     		ldrb	r3, [r3]
 156 000c F8E7     		b	.L14
 157              	.L17:
 158              	.LBE19:
 159              	.LBE18:
 459:.\Generated_Source\PSoC4/PWM.c **** 
 160              		.loc 1 459 0
 161              		@ sp needed
 162 000e 7047     		bx	lr
 163              	.L19:
 164              		.align	2
 165              	.L18:
 166 0010 62000F40 		.word	1074724962
 167 0014 52000F40 		.word	1074724946
 168              		.cfi_endproc
 169              	.LFE6:
 170              		.size	PWM_ClearFIFO, .-PWM_ClearFIFO
ARM GAS  C:\Users\Vitali\AppData\Local\Temp\ccfEoTAg.s 			page 18


 171              		.section	.text.PWM_Init,"ax",%progbits
 172              		.align	1
 173              		.global	PWM_Init
 174              		.code	16
 175              		.thumb_func
 176              		.type	PWM_Init, %function
 177              	PWM_Init:
 178              	.LFB1:
  85:.\Generated_Source\PSoC4/PWM.c ****     #if (PWM_UsingFixedFunction || PWM_UseControl)
 179              		.loc 1 85 0
 180              		.cfi_startproc
 117:.\Generated_Source\PSoC4/PWM.c ****                 ((uint8)(~PWM_CTRL_CMPMODE1_MASK));
 181              		.loc 1 117 0
 182 0000 3F21     		mov	r1, #63
  85:.\Generated_Source\PSoC4/PWM.c ****     #if (PWM_UsingFixedFunction || PWM_UseControl)
 183              		.loc 1 85 0
 184 0002 10B5     		push	{r4, lr}
 185              		.cfi_def_cfa_offset 8
 186              		.cfi_offset 4, -8
 187              		.cfi_offset 14, -4
 117:.\Generated_Source\PSoC4/PWM.c ****                 ((uint8)(~PWM_CTRL_CMPMODE1_MASK));
 188              		.loc 1 117 0
 189 0004 114A     		ldr	r2, .L21
 126:.\Generated_Source\PSoC4/PWM.c ****         #else /* (PWM_Resolution == 16)*/
 190              		.loc 1 126 0
 191 0006 124C     		ldr	r4, .L21+4
 117:.\Generated_Source\PSoC4/PWM.c ****                 ((uint8)(~PWM_CTRL_CMPMODE1_MASK));
 192              		.loc 1 117 0
 193 0008 1378     		ldrb	r3, [r2]
 194              	.LVL1:
 179:.\Generated_Source\PSoC4/PWM.c **** 
 195              		.loc 1 179 0
 196              		@ sp needed
 117:.\Generated_Source\PSoC4/PWM.c ****                 ((uint8)(~PWM_CTRL_CMPMODE1_MASK));
 197              		.loc 1 117 0
 198 000a 8B43     		bic	r3, r1
 199              	.LVL2:
 119:.\Generated_Source\PSoC4/PWM.c ****                                    PWM_DEFAULT_COMPARE1_MODE;
 200              		.loc 1 119 0
 201 000c 3639     		sub	r1, r1, #54
 202 000e 0B43     		orr	r3, r1
 203 0010 1370     		strb	r3, [r2]
 126:.\Generated_Source\PSoC4/PWM.c ****         #else /* (PWM_Resolution == 16)*/
 204              		.loc 1 126 0
 205 0012 0122     		mov	r2, #1
 206 0014 2378     		ldrb	r3, [r4]
 207 0016 1343     		orr	r3, r2
 208 0018 2370     		strb	r3, [r4]
 209              	.LVL3:
 210              	.LBB20:
 211              	.LBB21:
 406:.\Generated_Source\PSoC4/PWM.c ****     }
 212              		.loc 1 406 0
 213 001a FF23     		mov	r3, #255
 214 001c 0D4A     		ldr	r2, .L21+8
 215 001e 1370     		strb	r3, [r2]
 216              	.LVL4:
ARM GAS  C:\Users\Vitali\AppData\Local\Temp\ccfEoTAg.s 			page 19


 217              	.LBE21:
 218              	.LBE20:
 219              	.LBB22:
 220              	.LBB23:
 487:.\Generated_Source\PSoC4/PWM.c ****     #endif /* (PWM_UsingFixedFunction) */
 221              		.loc 1 487 0
 222 0020 0D4A     		ldr	r2, .L21+12
 223 0022 1370     		strb	r3, [r2]
 224              	.LVL5:
 225              	.LBE23:
 226              	.LBE22:
 227              	.LBB24:
 228              	.LBB25:
 561:.\Generated_Source\PSoC4/PWM.c ****         #endif /* (PWM_UsingFixedFunction) */
 229              		.loc 1 561 0
 230 0024 0D4A     		ldr	r2, .L21+16
 231 0026 1370     		strb	r3, [r2]
 232              	.LVL6:
 233              	.LBE25:
 234              	.LBE24:
 235              	.LBB26:
 236              	.LBB27:
 590:.\Generated_Source\PSoC4/PWM.c ****         #endif /* (PWM_UsingFixedFunction) */
 237              		.loc 1 590 0
 238 0028 0A22     		mov	r2, #10
 239 002a 0D4B     		ldr	r3, .L21+20
 240 002c 1A70     		strb	r2, [r3]
 241              	.LVL7:
 242              	.LBE27:
 243              	.LBE26:
 244              	.LBB28:
 245              	.LBB29:
 686:.\Generated_Source\PSoC4/PWM.c ****     }
 246              		.loc 1 686 0
 247 002e 0022     		mov	r2, #0
 248 0030 0C4B     		ldr	r3, .L21+24
 249 0032 1A70     		strb	r2, [r3]
 250              	.LBE29:
 251              	.LBE28:
 167:.\Generated_Source\PSoC4/PWM.c ****             /* Use the interrupt output of the status register for IRQ output */
 252              		.loc 1 167 0
 253 0034 FFF7FEFF 		bl	CyEnterCriticalSection
 254              	.LVL8:
 169:.\Generated_Source\PSoC4/PWM.c **** 
 255              		.loc 1 169 0
 256 0038 1022     		mov	r2, #16
 257 003a 2378     		ldrb	r3, [r4]
 258 003c 1343     		orr	r3, r2
 259 003e 2370     		strb	r3, [r4]
 172:.\Generated_Source\PSoC4/PWM.c **** 
 260              		.loc 1 172 0
 261 0040 FFF7FEFF 		bl	CyExitCriticalSection
 262              	.LVL9:
 176:.\Generated_Source\PSoC4/PWM.c ****         #endif /* (PWM_UseStatus) */
 263              		.loc 1 176 0
 264 0044 FFF7FEFF 		bl	PWM_ClearFIFO
 265              	.LVL10:
ARM GAS  C:\Users\Vitali\AppData\Local\Temp\ccfEoTAg.s 			page 20


 179:.\Generated_Source\PSoC4/PWM.c **** 
 266              		.loc 1 179 0
 267 0048 10BD     		pop	{r4, pc}
 268              	.L22:
 269 004a C046     		.align	2
 270              	.L21:
 271 004c 72000F40 		.word	1074724978
 272 0050 92000F40 		.word	1074725010
 273 0054 02000F40 		.word	1074724866
 274 0058 42000F40 		.word	1074724930
 275 005c 22000F40 		.word	1074724898
 276 0060 32000F40 		.word	1074724914
 277 0064 82000F40 		.word	1074724994
 278              		.cfi_endproc
 279              	.LFE1:
 280              		.size	PWM_Init, .-PWM_Init
 281              		.section	.text.PWM_Start,"ax",%progbits
 282              		.align	1
 283              		.global	PWM_Start
 284              		.code	16
 285              		.thumb_func
 286              		.type	PWM_Start, %function
 287              	PWM_Start:
 288              	.LFB0:
  56:.\Generated_Source\PSoC4/PWM.c ****     /* If not Initialized then initialize all required hardware and software */
 289              		.loc 1 56 0
 290              		.cfi_startproc
 291 0000 10B5     		push	{r4, lr}
 292              		.cfi_def_cfa_offset 8
 293              		.cfi_offset 4, -8
 294              		.cfi_offset 14, -4
  58:.\Generated_Source\PSoC4/PWM.c ****     {
 295              		.loc 1 58 0
 296 0002 054C     		ldr	r4, .L25
 297 0004 2378     		ldrb	r3, [r4]
 298 0006 002B     		cmp	r3, #0
 299 0008 03D1     		bne	.L24
  60:.\Generated_Source\PSoC4/PWM.c ****         PWM_initVar = 1u;
 300              		.loc 1 60 0
 301 000a FFF7FEFF 		bl	PWM_Init
 302              	.LVL11:
  61:.\Generated_Source\PSoC4/PWM.c ****     }
 303              		.loc 1 61 0
 304 000e 0123     		mov	r3, #1
 305 0010 2370     		strb	r3, [r4]
 306              	.L24:
  63:.\Generated_Source\PSoC4/PWM.c **** 
 307              		.loc 1 63 0
 308 0012 FFF7FEFF 		bl	PWM_Enable
 309              	.LVL12:
  65:.\Generated_Source\PSoC4/PWM.c **** 
 310              		.loc 1 65 0
 311              		@ sp needed
 312 0016 10BD     		pop	{r4, pc}
 313              	.L26:
 314              		.align	2
 315              	.L25:
ARM GAS  C:\Users\Vitali\AppData\Local\Temp\ccfEoTAg.s 			page 21


 316 0018 00000000 		.word	.LANCHOR0
 317              		.cfi_endproc
 318              	.LFE0:
 319              		.size	PWM_Start, .-PWM_Start
 320              		.section	.text.PWM_WritePeriod,"ax",%progbits
 321              		.align	1
 322              		.global	PWM_WritePeriod
 323              		.code	16
 324              		.thumb_func
 325              		.type	PWM_WritePeriod, %function
 326              	PWM_WritePeriod:
 327              	.LFB7:
 483:.\Generated_Source\PSoC4/PWM.c ****     #if(PWM_UsingFixedFunction)
 328              		.loc 1 483 0
 329              		.cfi_startproc
 330              	.LVL13:
 487:.\Generated_Source\PSoC4/PWM.c ****     #endif /* (PWM_UsingFixedFunction) */
 331              		.loc 1 487 0
 332 0000 014B     		ldr	r3, .L28
 489:.\Generated_Source\PSoC4/PWM.c **** 
 333              		.loc 1 489 0
 334              		@ sp needed
 487:.\Generated_Source\PSoC4/PWM.c ****     #endif /* (PWM_UsingFixedFunction) */
 335              		.loc 1 487 0
 336 0002 1870     		strb	r0, [r3]
 489:.\Generated_Source\PSoC4/PWM.c **** 
 337              		.loc 1 489 0
 338 0004 7047     		bx	lr
 339              	.L29:
 340 0006 C046     		.align	2
 341              	.L28:
 342 0008 42000F40 		.word	1074724930
 343              		.cfi_endproc
 344              	.LFE7:
 345              		.size	PWM_WritePeriod, .-PWM_WritePeriod
 346              		.section	.text.PWM_WriteCompare1,"ax",%progbits
 347              		.align	1
 348              		.global	PWM_WriteCompare1
 349              		.code	16
 350              		.thumb_func
 351              		.type	PWM_WriteCompare1, %function
 352              	PWM_WriteCompare1:
 353              	.LFB8:
 557:.\Generated_Source\PSoC4/PWM.c ****         #if(PWM_UsingFixedFunction)
 354              		.loc 1 557 0
 355              		.cfi_startproc
 356              	.LVL14:
 561:.\Generated_Source\PSoC4/PWM.c ****         #endif /* (PWM_UsingFixedFunction) */
 357              		.loc 1 561 0
 358 0000 014B     		ldr	r3, .L31
 563:.\Generated_Source\PSoC4/PWM.c **** 
 359              		.loc 1 563 0
 360              		@ sp needed
 561:.\Generated_Source\PSoC4/PWM.c ****         #endif /* (PWM_UsingFixedFunction) */
 361              		.loc 1 561 0
 362 0002 1870     		strb	r0, [r3]
 563:.\Generated_Source\PSoC4/PWM.c **** 
ARM GAS  C:\Users\Vitali\AppData\Local\Temp\ccfEoTAg.s 			page 22


 363              		.loc 1 563 0
 364 0004 7047     		bx	lr
 365              	.L32:
 366 0006 C046     		.align	2
 367              	.L31:
 368 0008 22000F40 		.word	1074724898
 369              		.cfi_endproc
 370              	.LFE8:
 371              		.size	PWM_WriteCompare1, .-PWM_WriteCompare1
 372              		.section	.text.PWM_WriteCompare2,"ax",%progbits
 373              		.align	1
 374              		.global	PWM_WriteCompare2
 375              		.code	16
 376              		.thumb_func
 377              		.type	PWM_WriteCompare2, %function
 378              	PWM_WriteCompare2:
 379              	.LFB9:
 586:.\Generated_Source\PSoC4/PWM.c ****         #if(PWM_UsingFixedFunction)
 380              		.loc 1 586 0
 381              		.cfi_startproc
 382              	.LVL15:
 590:.\Generated_Source\PSoC4/PWM.c ****         #endif /* (PWM_UsingFixedFunction) */
 383              		.loc 1 590 0
 384 0000 014B     		ldr	r3, .L34
 592:.\Generated_Source\PSoC4/PWM.c **** #endif /* UseOneCompareMode */
 385              		.loc 1 592 0
 386              		@ sp needed
 590:.\Generated_Source\PSoC4/PWM.c ****         #endif /* (PWM_UsingFixedFunction) */
 387              		.loc 1 590 0
 388 0002 1870     		strb	r0, [r3]
 592:.\Generated_Source\PSoC4/PWM.c **** #endif /* UseOneCompareMode */
 389              		.loc 1 592 0
 390 0004 7047     		bx	lr
 391              	.L35:
 392 0006 C046     		.align	2
 393              	.L34:
 394 0008 32000F40 		.word	1074724914
 395              		.cfi_endproc
 396              	.LFE9:
 397              		.size	PWM_WriteCompare2, .-PWM_WriteCompare2
 398              		.section	.text.PWM_SetInterruptMode,"ax",%progbits
 399              		.align	1
 400              		.global	PWM_SetInterruptMode
 401              		.code	16
 402              		.thumb_func
 403              		.type	PWM_SetInterruptMode, %function
 404              	PWM_SetInterruptMode:
 405              	.LFB10:
 685:.\Generated_Source\PSoC4/PWM.c ****         CY_SET_REG8(PWM_STATUS_MASK_PTR, interruptMode);
 406              		.loc 1 685 0
 407              		.cfi_startproc
 408              	.LVL16:
 686:.\Generated_Source\PSoC4/PWM.c ****     }
 409              		.loc 1 686 0
 410 0000 014B     		ldr	r3, .L37
 687:.\Generated_Source\PSoC4/PWM.c **** 
 411              		.loc 1 687 0
ARM GAS  C:\Users\Vitali\AppData\Local\Temp\ccfEoTAg.s 			page 23


 412              		@ sp needed
 686:.\Generated_Source\PSoC4/PWM.c ****     }
 413              		.loc 1 686 0
 414 0002 1870     		strb	r0, [r3]
 687:.\Generated_Source\PSoC4/PWM.c **** 
 415              		.loc 1 687 0
 416 0004 7047     		bx	lr
 417              	.L38:
 418 0006 C046     		.align	2
 419              	.L37:
 420 0008 82000F40 		.word	1074724994
 421              		.cfi_endproc
 422              	.LFE10:
 423              		.size	PWM_SetInterruptMode, .-PWM_SetInterruptMode
 424              		.section	.text.PWM_ReadStatusRegister,"ax",%progbits
 425              		.align	1
 426              		.global	PWM_ReadStatusRegister
 427              		.code	16
 428              		.thumb_func
 429              		.type	PWM_ReadStatusRegister, %function
 430              	PWM_ReadStatusRegister:
 431              	.LFB11:
 712:.\Generated_Source\PSoC4/PWM.c ****         return (CY_GET_REG8(PWM_STATUS_PTR));
 432              		.loc 1 712 0
 433              		.cfi_startproc
 713:.\Generated_Source\PSoC4/PWM.c ****     }
 434              		.loc 1 713 0
 435 0000 014B     		ldr	r3, .L40
 714:.\Generated_Source\PSoC4/PWM.c **** 
 436              		.loc 1 714 0
 437              		@ sp needed
 713:.\Generated_Source\PSoC4/PWM.c ****     }
 438              		.loc 1 713 0
 439 0002 1878     		ldrb	r0, [r3]
 440 0004 C0B2     		uxtb	r0, r0
 714:.\Generated_Source\PSoC4/PWM.c **** 
 441              		.loc 1 714 0
 442 0006 7047     		bx	lr
 443              	.L41:
 444              		.align	2
 445              	.L40:
 446 0008 62000F40 		.word	1074724962
 447              		.cfi_endproc
 448              	.LFE11:
 449              		.size	PWM_ReadStatusRegister, .-PWM_ReadStatusRegister
 450              		.section	.text.PWM_ReadControlRegister,"ax",%progbits
 451              		.align	1
 452              		.global	PWM_ReadControlRegister
 453              		.code	16
 454              		.thumb_func
 455              		.type	PWM_ReadControlRegister, %function
 456              	PWM_ReadControlRegister:
 457              	.LFB12:
 738:.\Generated_Source\PSoC4/PWM.c ****         uint8 result;
 458              		.loc 1 738 0
 459              		.cfi_startproc
 741:.\Generated_Source\PSoC4/PWM.c ****         return (result);
ARM GAS  C:\Users\Vitali\AppData\Local\Temp\ccfEoTAg.s 			page 24


 460              		.loc 1 741 0
 461 0000 014B     		ldr	r3, .L43
 743:.\Generated_Source\PSoC4/PWM.c **** 
 462              		.loc 1 743 0
 463              		@ sp needed
 741:.\Generated_Source\PSoC4/PWM.c ****         return (result);
 464              		.loc 1 741 0
 465 0002 1878     		ldrb	r0, [r3]
 466 0004 C0B2     		uxtb	r0, r0
 467              	.LVL17:
 743:.\Generated_Source\PSoC4/PWM.c **** 
 468              		.loc 1 743 0
 469 0006 7047     		bx	lr
 470              	.L44:
 471              		.align	2
 472              	.L43:
 473 0008 72000F40 		.word	1074724978
 474              		.cfi_endproc
 475              	.LFE12:
 476              		.size	PWM_ReadControlRegister, .-PWM_ReadControlRegister
 477              		.section	.text.PWM_WriteControlRegister,"ax",%progbits
 478              		.align	1
 479              		.global	PWM_WriteControlRegister
 480              		.code	16
 481              		.thumb_func
 482              		.type	PWM_WriteControlRegister, %function
 483              	PWM_WriteControlRegister:
 484              	.LFB13:
 766:.\Generated_Source\PSoC4/PWM.c ****         CY_SET_REG8(PWM_CONTROL_PTR, control);
 485              		.loc 1 766 0
 486              		.cfi_startproc
 487              	.LVL18:
 767:.\Generated_Source\PSoC4/PWM.c ****     }
 488              		.loc 1 767 0
 489 0000 014B     		ldr	r3, .L46
 768:.\Generated_Source\PSoC4/PWM.c **** 
 490              		.loc 1 768 0
 491              		@ sp needed
 767:.\Generated_Source\PSoC4/PWM.c ****     }
 492              		.loc 1 767 0
 493 0002 1870     		strb	r0, [r3]
 768:.\Generated_Source\PSoC4/PWM.c **** 
 494              		.loc 1 768 0
 495 0004 7047     		bx	lr
 496              	.L47:
 497 0006 C046     		.align	2
 498              	.L46:
 499 0008 72000F40 		.word	1074724978
 500              		.cfi_endproc
 501              	.LFE13:
 502              		.size	PWM_WriteControlRegister, .-PWM_WriteControlRegister
 503              		.section	.text.PWM_ReadCapture,"ax",%progbits
 504              		.align	1
 505              		.global	PWM_ReadCapture
 506              		.code	16
 507              		.thumb_func
 508              		.type	PWM_ReadCapture, %function
ARM GAS  C:\Users\Vitali\AppData\Local\Temp\ccfEoTAg.s 			page 25


 509              	PWM_ReadCapture:
 510              	.LFB14:
 791:.\Generated_Source\PSoC4/PWM.c ****         return (CY_GET_REG8(PWM_CAPTURE_LSB_PTR));
 511              		.loc 1 791 0
 512              		.cfi_startproc
 513              		.loc 1 792 0
 514 0000 014B     		ldr	r3, .L49
 793:.\Generated_Source\PSoC4/PWM.c ****     }
 515              		.loc 1 793 0
 516              		@ sp needed
 792:.\Generated_Source\PSoC4/PWM.c ****     }
 517              		.loc 1 792 0
 518 0002 1878     		ldrb	r0, [r3]
 519 0004 C0B2     		uxtb	r0, r0
 520              		.loc 1 793 0
 521 0006 7047     		bx	lr
 522              	.L50:
 523              		.align	2
 524              	.L49:
 525 0008 52000F40 		.word	1074724946
 526              		.cfi_endproc
 527              	.LFE14:
 528              		.size	PWM_ReadCapture, .-PWM_ReadCapture
 529              		.section	.text.PWM_ReadCompare1,"ax",%progbits
 530              		.align	1
 531              		.global	PWM_ReadCompare1
 532              		.code	16
 533              		.thumb_func
 534              		.type	PWM_ReadCompare1, %function
 535              	PWM_ReadCompare1:
 536              	.LFB15:
 794:.\Generated_Source\PSoC4/PWM.c **** 
 795:.\Generated_Source\PSoC4/PWM.c **** #endif /* (!PWM_UsingFixedFunction) */
 796:.\Generated_Source\PSoC4/PWM.c **** 
 797:.\Generated_Source\PSoC4/PWM.c **** 
 798:.\Generated_Source\PSoC4/PWM.c **** #if (PWM_UseOneCompareMode)
 799:.\Generated_Source\PSoC4/PWM.c **** 
 800:.\Generated_Source\PSoC4/PWM.c **** 
 801:.\Generated_Source\PSoC4/PWM.c ****     /*******************************************************************************
 802:.\Generated_Source\PSoC4/PWM.c ****     * Function Name: PWM_ReadCompare
 803:.\Generated_Source\PSoC4/PWM.c ****     ********************************************************************************
 804:.\Generated_Source\PSoC4/PWM.c ****     *
 805:.\Generated_Source\PSoC4/PWM.c ****     * Summary:
 806:.\Generated_Source\PSoC4/PWM.c ****     *  Reads the compare value for the compare output when the PWM Mode parameter is
 807:.\Generated_Source\PSoC4/PWM.c ****     *  set to Dither mode, Center Aligned mode, or One Output mode.
 808:.\Generated_Source\PSoC4/PWM.c ****     *
 809:.\Generated_Source\PSoC4/PWM.c ****     * Parameters:
 810:.\Generated_Source\PSoC4/PWM.c ****     *  None
 811:.\Generated_Source\PSoC4/PWM.c ****     *
 812:.\Generated_Source\PSoC4/PWM.c ****     * Return:
 813:.\Generated_Source\PSoC4/PWM.c ****     *  uint8/uint16: Current compare value
 814:.\Generated_Source\PSoC4/PWM.c ****     *
 815:.\Generated_Source\PSoC4/PWM.c ****     *******************************************************************************/
 816:.\Generated_Source\PSoC4/PWM.c ****     uint8 PWM_ReadCompare(void) 
 817:.\Generated_Source\PSoC4/PWM.c ****     {
 818:.\Generated_Source\PSoC4/PWM.c ****         #if(PWM_UsingFixedFunction)
 819:.\Generated_Source\PSoC4/PWM.c ****             return ((uint8)CY_GET_REG16(PWM_COMPARE1_LSB_PTR));
ARM GAS  C:\Users\Vitali\AppData\Local\Temp\ccfEoTAg.s 			page 26


 820:.\Generated_Source\PSoC4/PWM.c ****         #else
 821:.\Generated_Source\PSoC4/PWM.c ****             return (CY_GET_REG8(PWM_COMPARE1_LSB_PTR));
 822:.\Generated_Source\PSoC4/PWM.c ****         #endif /* (PWM_UsingFixedFunction) */
 823:.\Generated_Source\PSoC4/PWM.c ****     }
 824:.\Generated_Source\PSoC4/PWM.c **** 
 825:.\Generated_Source\PSoC4/PWM.c **** #else
 826:.\Generated_Source\PSoC4/PWM.c **** 
 827:.\Generated_Source\PSoC4/PWM.c **** 
 828:.\Generated_Source\PSoC4/PWM.c ****     /*******************************************************************************
 829:.\Generated_Source\PSoC4/PWM.c ****     * Function Name: PWM_ReadCompare1
 830:.\Generated_Source\PSoC4/PWM.c ****     ********************************************************************************
 831:.\Generated_Source\PSoC4/PWM.c ****     *
 832:.\Generated_Source\PSoC4/PWM.c ****     * Summary:
 833:.\Generated_Source\PSoC4/PWM.c ****     *  Reads the compare value for the compare1 output.
 834:.\Generated_Source\PSoC4/PWM.c ****     *
 835:.\Generated_Source\PSoC4/PWM.c ****     * Parameters:
 836:.\Generated_Source\PSoC4/PWM.c ****     *  None
 837:.\Generated_Source\PSoC4/PWM.c ****     *
 838:.\Generated_Source\PSoC4/PWM.c ****     * Return:
 839:.\Generated_Source\PSoC4/PWM.c ****     *  uint8/uint16: Current compare value.
 840:.\Generated_Source\PSoC4/PWM.c ****     *
 841:.\Generated_Source\PSoC4/PWM.c ****     *******************************************************************************/
 842:.\Generated_Source\PSoC4/PWM.c ****     uint8 PWM_ReadCompare1(void) 
 843:.\Generated_Source\PSoC4/PWM.c ****     {
 537              		.loc 1 843 0
 538              		.cfi_startproc
 844:.\Generated_Source\PSoC4/PWM.c ****         return (CY_GET_REG8(PWM_COMPARE1_LSB_PTR));
 539              		.loc 1 844 0
 540 0000 014B     		ldr	r3, .L52
 845:.\Generated_Source\PSoC4/PWM.c ****     }
 541              		.loc 1 845 0
 542              		@ sp needed
 844:.\Generated_Source\PSoC4/PWM.c ****         return (CY_GET_REG8(PWM_COMPARE1_LSB_PTR));
 543              		.loc 1 844 0
 544 0002 1878     		ldrb	r0, [r3]
 545 0004 C0B2     		uxtb	r0, r0
 546              		.loc 1 845 0
 547 0006 7047     		bx	lr
 548              	.L53:
 549              		.align	2
 550              	.L52:
 551 0008 22000F40 		.word	1074724898
 552              		.cfi_endproc
 553              	.LFE15:
 554              		.size	PWM_ReadCompare1, .-PWM_ReadCompare1
 555              		.section	.text.PWM_ReadCompare2,"ax",%progbits
 556              		.align	1
 557              		.global	PWM_ReadCompare2
 558              		.code	16
 559              		.thumb_func
 560              		.type	PWM_ReadCompare2, %function
 561              	PWM_ReadCompare2:
 562              	.LFB16:
 846:.\Generated_Source\PSoC4/PWM.c **** 
 847:.\Generated_Source\PSoC4/PWM.c **** 
 848:.\Generated_Source\PSoC4/PWM.c ****     /*******************************************************************************
 849:.\Generated_Source\PSoC4/PWM.c ****     * Function Name: PWM_ReadCompare2
ARM GAS  C:\Users\Vitali\AppData\Local\Temp\ccfEoTAg.s 			page 27


 850:.\Generated_Source\PSoC4/PWM.c ****     ********************************************************************************
 851:.\Generated_Source\PSoC4/PWM.c ****     *
 852:.\Generated_Source\PSoC4/PWM.c ****     * Summary:
 853:.\Generated_Source\PSoC4/PWM.c ****     *  Reads the compare value for the compare2 output.
 854:.\Generated_Source\PSoC4/PWM.c ****     *
 855:.\Generated_Source\PSoC4/PWM.c ****     * Parameters:
 856:.\Generated_Source\PSoC4/PWM.c ****     *  None
 857:.\Generated_Source\PSoC4/PWM.c ****     *
 858:.\Generated_Source\PSoC4/PWM.c ****     * Return:
 859:.\Generated_Source\PSoC4/PWM.c ****     *  uint8/uint16: Current compare value.
 860:.\Generated_Source\PSoC4/PWM.c ****     *
 861:.\Generated_Source\PSoC4/PWM.c ****     *******************************************************************************/
 862:.\Generated_Source\PSoC4/PWM.c ****     uint8 PWM_ReadCompare2(void) 
 863:.\Generated_Source\PSoC4/PWM.c ****     {
 563              		.loc 1 863 0
 564              		.cfi_startproc
 864:.\Generated_Source\PSoC4/PWM.c ****         return (CY_GET_REG8(PWM_COMPARE2_LSB_PTR));
 565              		.loc 1 864 0
 566 0000 014B     		ldr	r3, .L55
 865:.\Generated_Source\PSoC4/PWM.c ****     }
 567              		.loc 1 865 0
 568              		@ sp needed
 864:.\Generated_Source\PSoC4/PWM.c ****         return (CY_GET_REG8(PWM_COMPARE2_LSB_PTR));
 569              		.loc 1 864 0
 570 0002 1878     		ldrb	r0, [r3]
 571 0004 C0B2     		uxtb	r0, r0
 572              		.loc 1 865 0
 573 0006 7047     		bx	lr
 574              	.L56:
 575              		.align	2
 576              	.L55:
 577 0008 32000F40 		.word	1074724914
 578              		.cfi_endproc
 579              	.LFE16:
 580              		.size	PWM_ReadCompare2, .-PWM_ReadCompare2
 581              		.section	.text.PWM_ReadPeriod,"ax",%progbits
 582              		.align	1
 583              		.global	PWM_ReadPeriod
 584              		.code	16
 585              		.thumb_func
 586              		.type	PWM_ReadPeriod, %function
 587              	PWM_ReadPeriod:
 588              	.LFB17:
 866:.\Generated_Source\PSoC4/PWM.c **** 
 867:.\Generated_Source\PSoC4/PWM.c **** #endif /* (PWM_UseOneCompareMode) */
 868:.\Generated_Source\PSoC4/PWM.c **** 
 869:.\Generated_Source\PSoC4/PWM.c **** 
 870:.\Generated_Source\PSoC4/PWM.c **** /*******************************************************************************
 871:.\Generated_Source\PSoC4/PWM.c **** * Function Name: PWM_ReadPeriod
 872:.\Generated_Source\PSoC4/PWM.c **** ********************************************************************************
 873:.\Generated_Source\PSoC4/PWM.c **** *
 874:.\Generated_Source\PSoC4/PWM.c **** * Summary:
 875:.\Generated_Source\PSoC4/PWM.c **** *  Reads the period value used by the PWM hardware.
 876:.\Generated_Source\PSoC4/PWM.c **** *
 877:.\Generated_Source\PSoC4/PWM.c **** * Parameters:
 878:.\Generated_Source\PSoC4/PWM.c **** *  None
 879:.\Generated_Source\PSoC4/PWM.c **** *
ARM GAS  C:\Users\Vitali\AppData\Local\Temp\ccfEoTAg.s 			page 28


 880:.\Generated_Source\PSoC4/PWM.c **** * Return:
 881:.\Generated_Source\PSoC4/PWM.c **** *  uint8/16: Period value
 882:.\Generated_Source\PSoC4/PWM.c **** *
 883:.\Generated_Source\PSoC4/PWM.c **** *******************************************************************************/
 884:.\Generated_Source\PSoC4/PWM.c **** uint8 PWM_ReadPeriod(void) 
 885:.\Generated_Source\PSoC4/PWM.c **** {
 589              		.loc 1 885 0
 590              		.cfi_startproc
 886:.\Generated_Source\PSoC4/PWM.c ****     #if(PWM_UsingFixedFunction)
 887:.\Generated_Source\PSoC4/PWM.c ****         return ((uint8)CY_GET_REG16(PWM_PERIOD_LSB_PTR));
 888:.\Generated_Source\PSoC4/PWM.c ****     #else
 889:.\Generated_Source\PSoC4/PWM.c ****         return (CY_GET_REG8(PWM_PERIOD_LSB_PTR));
 591              		.loc 1 889 0
 592 0000 014B     		ldr	r3, .L58
 890:.\Generated_Source\PSoC4/PWM.c ****     #endif /* (PWM_UsingFixedFunction) */
 891:.\Generated_Source\PSoC4/PWM.c **** }
 593              		.loc 1 891 0
 594              		@ sp needed
 889:.\Generated_Source\PSoC4/PWM.c ****     #endif /* (PWM_UsingFixedFunction) */
 595              		.loc 1 889 0
 596 0002 1878     		ldrb	r0, [r3]
 597 0004 C0B2     		uxtb	r0, r0
 598              		.loc 1 891 0
 599 0006 7047     		bx	lr
 600              	.L59:
 601              		.align	2
 602              	.L58:
 603 0008 42000F40 		.word	1074724930
 604              		.cfi_endproc
 605              	.LFE17:
 606              		.size	PWM_ReadPeriod, .-PWM_ReadPeriod
 607              		.global	PWM_initVar
 608              		.bss
 609              		.set	.LANCHOR0,. + 0
 610              		.type	PWM_initVar, %object
 611              		.size	PWM_initVar, 1
 612              	PWM_initVar:
 613 0000 00       		.space	1
 614              		.text
 615              	.Letext0:
 616              		.file 2 ".\\Generated_Source\\PSoC4\\cytypes.h"
 617              		.file 3 ".\\Generated_Source\\PSoC4\\CyLib.h"