ARM GAS  C:\Users\Vitali\AppData\Local\Temp\ccz5uTBN.s 			page 1


   1              		.cpu cortex-m0
   2              		.fpu softvfp
   3              		.eabi_attribute 20, 1
   4              		.eabi_attribute 21, 1
   5              		.eabi_attribute 23, 3
   6              		.eabi_attribute 24, 1
   7              		.eabi_attribute 25, 1
   8              		.eabi_attribute 26, 1
   9              		.eabi_attribute 30, 4
  10              		.eabi_attribute 34, 0
  11              		.eabi_attribute 18, 4
  12              		.code	16
  13              		.file	"PWM_PM.c"
  14              		.text
  15              	.Ltext0:
  16              		.cfi_sections	.debug_frame
  17              		.section	.text.PWM_SaveConfig,"ax",%progbits
  18              		.align	1
  19              		.global	PWM_SaveConfig
  20              		.code	16
  21              		.thumb_func
  22              		.type	PWM_SaveConfig, %function
  23              	PWM_SaveConfig:
  24              	.LFB0:
  25              		.file 1 ".\\Generated_Source\\PSoC4\\PWM_PM.c"
   1:.\Generated_Source\PSoC4/PWM_PM.c **** /*******************************************************************************
   2:.\Generated_Source\PSoC4/PWM_PM.c **** * File Name: PWM_PM.c
   3:.\Generated_Source\PSoC4/PWM_PM.c **** * Version 3.30
   4:.\Generated_Source\PSoC4/PWM_PM.c **** *
   5:.\Generated_Source\PSoC4/PWM_PM.c **** * Description:
   6:.\Generated_Source\PSoC4/PWM_PM.c **** *  This file provides the power management source code to API for the
   7:.\Generated_Source\PSoC4/PWM_PM.c **** *  PWM.
   8:.\Generated_Source\PSoC4/PWM_PM.c **** *
   9:.\Generated_Source\PSoC4/PWM_PM.c **** * Note:
  10:.\Generated_Source\PSoC4/PWM_PM.c **** *
  11:.\Generated_Source\PSoC4/PWM_PM.c **** ********************************************************************************
  12:.\Generated_Source\PSoC4/PWM_PM.c **** * Copyright 2008-2014, Cypress Semiconductor Corporation.  All rights reserved.
  13:.\Generated_Source\PSoC4/PWM_PM.c **** * You may use this file only in accordance with the license, terms, conditions,
  14:.\Generated_Source\PSoC4/PWM_PM.c **** * disclaimers, and limitations in the end user license agreement accompanying
  15:.\Generated_Source\PSoC4/PWM_PM.c **** * the software package with which this file was provided.
  16:.\Generated_Source\PSoC4/PWM_PM.c **** *******************************************************************************/
  17:.\Generated_Source\PSoC4/PWM_PM.c **** 
  18:.\Generated_Source\PSoC4/PWM_PM.c **** #include "PWM.h"
  19:.\Generated_Source\PSoC4/PWM_PM.c **** 
  20:.\Generated_Source\PSoC4/PWM_PM.c **** static PWM_backupStruct PWM_backup;
  21:.\Generated_Source\PSoC4/PWM_PM.c **** 
  22:.\Generated_Source\PSoC4/PWM_PM.c **** 
  23:.\Generated_Source\PSoC4/PWM_PM.c **** /*******************************************************************************
  24:.\Generated_Source\PSoC4/PWM_PM.c **** * Function Name: PWM_SaveConfig
  25:.\Generated_Source\PSoC4/PWM_PM.c **** ********************************************************************************
  26:.\Generated_Source\PSoC4/PWM_PM.c **** *
  27:.\Generated_Source\PSoC4/PWM_PM.c **** * Summary:
  28:.\Generated_Source\PSoC4/PWM_PM.c **** *  Saves the current user configuration of the component.
  29:.\Generated_Source\PSoC4/PWM_PM.c **** *
  30:.\Generated_Source\PSoC4/PWM_PM.c **** * Parameters:
  31:.\Generated_Source\PSoC4/PWM_PM.c **** *  None
  32:.\Generated_Source\PSoC4/PWM_PM.c **** *
ARM GAS  C:\Users\Vitali\AppData\Local\Temp\ccz5uTBN.s 			page 2


  33:.\Generated_Source\PSoC4/PWM_PM.c **** * Return:
  34:.\Generated_Source\PSoC4/PWM_PM.c **** *  None
  35:.\Generated_Source\PSoC4/PWM_PM.c **** *
  36:.\Generated_Source\PSoC4/PWM_PM.c **** * Global variables:
  37:.\Generated_Source\PSoC4/PWM_PM.c **** *  PWM_backup:  Variables of this global structure are modified to
  38:.\Generated_Source\PSoC4/PWM_PM.c **** *  store the values of non retention configuration registers when Sleep() API is
  39:.\Generated_Source\PSoC4/PWM_PM.c **** *  called.
  40:.\Generated_Source\PSoC4/PWM_PM.c **** *
  41:.\Generated_Source\PSoC4/PWM_PM.c **** *******************************************************************************/
  42:.\Generated_Source\PSoC4/PWM_PM.c **** void PWM_SaveConfig(void) 
  43:.\Generated_Source\PSoC4/PWM_PM.c **** {
  26              		.loc 1 43 0
  27              		.cfi_startproc
  28 0000 10B5     		push	{r4, lr}
  29              		.cfi_def_cfa_offset 8
  30              		.cfi_offset 4, -8
  31              		.cfi_offset 14, -4
  44:.\Generated_Source\PSoC4/PWM_PM.c **** 
  45:.\Generated_Source\PSoC4/PWM_PM.c ****     #if(!PWM_UsingFixedFunction)
  46:.\Generated_Source\PSoC4/PWM_PM.c ****         #if(!PWM_PWMModeIsCenterAligned)
  47:.\Generated_Source\PSoC4/PWM_PM.c ****             PWM_backup.PWMPeriod = PWM_ReadPeriod();
  32              		.loc 1 47 0
  33 0002 FFF7FEFF 		bl	PWM_ReadPeriod
  34              	.LVL0:
  35 0006 064C     		ldr	r4, .L2
  48:.\Generated_Source\PSoC4/PWM_PM.c ****         #endif /* (!PWM_PWMModeIsCenterAligned) */
  49:.\Generated_Source\PSoC4/PWM_PM.c ****         PWM_backup.PWMUdb = PWM_ReadCounter();
  50:.\Generated_Source\PSoC4/PWM_PM.c ****         #if (PWM_UseStatus)
  51:.\Generated_Source\PSoC4/PWM_PM.c ****             PWM_backup.InterruptMaskValue = PWM_STATUS_MASK;
  52:.\Generated_Source\PSoC4/PWM_PM.c ****         #endif /* (PWM_UseStatus) */
  53:.\Generated_Source\PSoC4/PWM_PM.c **** 
  54:.\Generated_Source\PSoC4/PWM_PM.c ****         #if(PWM_DeadBandMode == PWM__B_PWM__DBM_256_CLOCKS || \
  55:.\Generated_Source\PSoC4/PWM_PM.c ****             PWM_DeadBandMode == PWM__B_PWM__DBM_2_4_CLOCKS)
  56:.\Generated_Source\PSoC4/PWM_PM.c ****             PWM_backup.PWMdeadBandValue = PWM_ReadDeadTime();
  57:.\Generated_Source\PSoC4/PWM_PM.c ****         #endif /*  deadband count is either 2-4 clocks or 256 clocks */
  58:.\Generated_Source\PSoC4/PWM_PM.c **** 
  59:.\Generated_Source\PSoC4/PWM_PM.c ****         #if(PWM_KillModeMinTime)
  60:.\Generated_Source\PSoC4/PWM_PM.c ****              PWM_backup.PWMKillCounterPeriod = PWM_ReadKillTime();
  61:.\Generated_Source\PSoC4/PWM_PM.c ****         #endif /* (PWM_KillModeMinTime) */
  62:.\Generated_Source\PSoC4/PWM_PM.c **** 
  63:.\Generated_Source\PSoC4/PWM_PM.c ****         #if(PWM_UseControl)
  64:.\Generated_Source\PSoC4/PWM_PM.c ****             PWM_backup.PWMControlRegister = PWM_ReadControlRegister();
  65:.\Generated_Source\PSoC4/PWM_PM.c ****         #endif /* (PWM_UseControl) */
  66:.\Generated_Source\PSoC4/PWM_PM.c ****     #endif  /* (!PWM_UsingFixedFunction) */
  67:.\Generated_Source\PSoC4/PWM_PM.c **** }
  36              		.loc 1 67 0
  37              		@ sp needed
  47:.\Generated_Source\PSoC4/PWM_PM.c ****         #endif /* (!PWM_PWMModeIsCenterAligned) */
  38              		.loc 1 47 0
  39 0008 A070     		strb	r0, [r4, #2]
  49:.\Generated_Source\PSoC4/PWM_PM.c ****         #if (PWM_UseStatus)
  40              		.loc 1 49 0
  41 000a FFF7FEFF 		bl	PWM_ReadCounter
  42              	.LVL1:
  51:.\Generated_Source\PSoC4/PWM_PM.c ****         #endif /* (PWM_UseStatus) */
  43              		.loc 1 51 0
  44 000e 054B     		ldr	r3, .L2+4
ARM GAS  C:\Users\Vitali\AppData\Local\Temp\ccz5uTBN.s 			page 3


  49:.\Generated_Source\PSoC4/PWM_PM.c ****         #if (PWM_UseStatus)
  45              		.loc 1 49 0
  46 0010 6070     		strb	r0, [r4, #1]
  51:.\Generated_Source\PSoC4/PWM_PM.c ****         #endif /* (PWM_UseStatus) */
  47              		.loc 1 51 0
  48 0012 1B78     		ldrb	r3, [r3]
  49 0014 E370     		strb	r3, [r4, #3]
  64:.\Generated_Source\PSoC4/PWM_PM.c ****         #endif /* (PWM_UseControl) */
  50              		.loc 1 64 0
  51 0016 FFF7FEFF 		bl	PWM_ReadControlRegister
  52              	.LVL2:
  53 001a 2071     		strb	r0, [r4, #4]
  54              		.loc 1 67 0
  55 001c 10BD     		pop	{r4, pc}
  56              	.L3:
  57 001e C046     		.align	2
  58              	.L2:
  59 0020 00000000 		.word	.LANCHOR0
  60 0024 82000F40 		.word	1074724994
  61              		.cfi_endproc
  62              	.LFE0:
  63              		.size	PWM_SaveConfig, .-PWM_SaveConfig
  64              		.section	.text.PWM_RestoreConfig,"ax",%progbits
  65              		.align	1
  66              		.global	PWM_RestoreConfig
  67              		.code	16
  68              		.thumb_func
  69              		.type	PWM_RestoreConfig, %function
  70              	PWM_RestoreConfig:
  71              	.LFB1:
  68:.\Generated_Source\PSoC4/PWM_PM.c **** 
  69:.\Generated_Source\PSoC4/PWM_PM.c **** 
  70:.\Generated_Source\PSoC4/PWM_PM.c **** /*******************************************************************************
  71:.\Generated_Source\PSoC4/PWM_PM.c **** * Function Name: PWM_RestoreConfig
  72:.\Generated_Source\PSoC4/PWM_PM.c **** ********************************************************************************
  73:.\Generated_Source\PSoC4/PWM_PM.c **** *
  74:.\Generated_Source\PSoC4/PWM_PM.c **** * Summary:
  75:.\Generated_Source\PSoC4/PWM_PM.c **** *  Restores the current user configuration of the component.
  76:.\Generated_Source\PSoC4/PWM_PM.c **** *
  77:.\Generated_Source\PSoC4/PWM_PM.c **** * Parameters:
  78:.\Generated_Source\PSoC4/PWM_PM.c **** *  None
  79:.\Generated_Source\PSoC4/PWM_PM.c **** *
  80:.\Generated_Source\PSoC4/PWM_PM.c **** * Return:
  81:.\Generated_Source\PSoC4/PWM_PM.c **** *  None
  82:.\Generated_Source\PSoC4/PWM_PM.c **** *
  83:.\Generated_Source\PSoC4/PWM_PM.c **** * Global variables:
  84:.\Generated_Source\PSoC4/PWM_PM.c **** *  PWM_backup:  Variables of this global structure are used to
  85:.\Generated_Source\PSoC4/PWM_PM.c **** *  restore the values of non retention registers on wakeup from sleep mode.
  86:.\Generated_Source\PSoC4/PWM_PM.c **** *
  87:.\Generated_Source\PSoC4/PWM_PM.c **** *******************************************************************************/
  88:.\Generated_Source\PSoC4/PWM_PM.c **** void PWM_RestoreConfig(void) 
  89:.\Generated_Source\PSoC4/PWM_PM.c **** {
  72              		.loc 1 89 0
  73              		.cfi_startproc
  74 0000 10B5     		push	{r4, lr}
  75              		.cfi_def_cfa_offset 8
  76              		.cfi_offset 4, -8
ARM GAS  C:\Users\Vitali\AppData\Local\Temp\ccz5uTBN.s 			page 4


  77              		.cfi_offset 14, -4
  90:.\Generated_Source\PSoC4/PWM_PM.c ****         #if(!PWM_UsingFixedFunction)
  91:.\Generated_Source\PSoC4/PWM_PM.c ****             #if(!PWM_PWMModeIsCenterAligned)
  92:.\Generated_Source\PSoC4/PWM_PM.c ****                 PWM_WritePeriod(PWM_backup.PWMPeriod);
  78              		.loc 1 92 0
  79 0002 074C     		ldr	r4, .L5
  93:.\Generated_Source\PSoC4/PWM_PM.c ****             #endif /* (!PWM_PWMModeIsCenterAligned) */
  94:.\Generated_Source\PSoC4/PWM_PM.c **** 
  95:.\Generated_Source\PSoC4/PWM_PM.c ****             PWM_WriteCounter(PWM_backup.PWMUdb);
  96:.\Generated_Source\PSoC4/PWM_PM.c **** 
  97:.\Generated_Source\PSoC4/PWM_PM.c ****             #if (PWM_UseStatus)
  98:.\Generated_Source\PSoC4/PWM_PM.c ****                 PWM_STATUS_MASK = PWM_backup.InterruptMaskValue;
  99:.\Generated_Source\PSoC4/PWM_PM.c ****             #endif /* (PWM_UseStatus) */
 100:.\Generated_Source\PSoC4/PWM_PM.c **** 
 101:.\Generated_Source\PSoC4/PWM_PM.c ****             #if(PWM_DeadBandMode == PWM__B_PWM__DBM_256_CLOCKS || \
 102:.\Generated_Source\PSoC4/PWM_PM.c ****                 PWM_DeadBandMode == PWM__B_PWM__DBM_2_4_CLOCKS)
 103:.\Generated_Source\PSoC4/PWM_PM.c ****                 PWM_WriteDeadTime(PWM_backup.PWMdeadBandValue);
 104:.\Generated_Source\PSoC4/PWM_PM.c ****             #endif /* deadband count is either 2-4 clocks or 256 clocks */
 105:.\Generated_Source\PSoC4/PWM_PM.c **** 
 106:.\Generated_Source\PSoC4/PWM_PM.c ****             #if(PWM_KillModeMinTime)
 107:.\Generated_Source\PSoC4/PWM_PM.c ****                 PWM_WriteKillTime(PWM_backup.PWMKillCounterPeriod);
 108:.\Generated_Source\PSoC4/PWM_PM.c ****             #endif /* (PWM_KillModeMinTime) */
 109:.\Generated_Source\PSoC4/PWM_PM.c **** 
 110:.\Generated_Source\PSoC4/PWM_PM.c ****             #if(PWM_UseControl)
 111:.\Generated_Source\PSoC4/PWM_PM.c ****                 PWM_WriteControlRegister(PWM_backup.PWMControlRegister);
 112:.\Generated_Source\PSoC4/PWM_PM.c ****             #endif /* (PWM_UseControl) */
 113:.\Generated_Source\PSoC4/PWM_PM.c ****         #endif  /* (!PWM_UsingFixedFunction) */
 114:.\Generated_Source\PSoC4/PWM_PM.c ****     }
  80              		.loc 1 114 0
  81              		@ sp needed
  92:.\Generated_Source\PSoC4/PWM_PM.c ****             #endif /* (!PWM_PWMModeIsCenterAligned) */
  82              		.loc 1 92 0
  83 0004 A078     		ldrb	r0, [r4, #2]
  84 0006 FFF7FEFF 		bl	PWM_WritePeriod
  85              	.LVL3:
  95:.\Generated_Source\PSoC4/PWM_PM.c **** 
  86              		.loc 1 95 0
  87 000a 6078     		ldrb	r0, [r4, #1]
  88 000c FFF7FEFF 		bl	PWM_WriteCounter
  89              	.LVL4:
  98:.\Generated_Source\PSoC4/PWM_PM.c ****             #endif /* (PWM_UseStatus) */
  90              		.loc 1 98 0
  91 0010 E278     		ldrb	r2, [r4, #3]
  92 0012 044B     		ldr	r3, .L5+4
  93 0014 1A70     		strb	r2, [r3]
 111:.\Generated_Source\PSoC4/PWM_PM.c ****             #endif /* (PWM_UseControl) */
  94              		.loc 1 111 0
  95 0016 2079     		ldrb	r0, [r4, #4]
  96 0018 FFF7FEFF 		bl	PWM_WriteControlRegister
  97              	.LVL5:
  98              		.loc 1 114 0
  99 001c 10BD     		pop	{r4, pc}
 100              	.L6:
 101 001e C046     		.align	2
 102              	.L5:
 103 0020 00000000 		.word	.LANCHOR0
 104 0024 82000F40 		.word	1074724994
ARM GAS  C:\Users\Vitali\AppData\Local\Temp\ccz5uTBN.s 			page 5


 105              		.cfi_endproc
 106              	.LFE1:
 107              		.size	PWM_RestoreConfig, .-PWM_RestoreConfig
 108              		.section	.text.PWM_Sleep,"ax",%progbits
 109              		.align	1
 110              		.global	PWM_Sleep
 111              		.code	16
 112              		.thumb_func
 113              		.type	PWM_Sleep, %function
 114              	PWM_Sleep:
 115              	.LFB2:
 115:.\Generated_Source\PSoC4/PWM_PM.c **** 
 116:.\Generated_Source\PSoC4/PWM_PM.c **** 
 117:.\Generated_Source\PSoC4/PWM_PM.c **** /*******************************************************************************
 118:.\Generated_Source\PSoC4/PWM_PM.c **** * Function Name: PWM_Sleep
 119:.\Generated_Source\PSoC4/PWM_PM.c **** ********************************************************************************
 120:.\Generated_Source\PSoC4/PWM_PM.c **** *
 121:.\Generated_Source\PSoC4/PWM_PM.c **** * Summary:
 122:.\Generated_Source\PSoC4/PWM_PM.c **** *  Disables block's operation and saves the user configuration. Should be called
 123:.\Generated_Source\PSoC4/PWM_PM.c **** *  just prior to entering sleep.
 124:.\Generated_Source\PSoC4/PWM_PM.c **** *
 125:.\Generated_Source\PSoC4/PWM_PM.c **** * Parameters:
 126:.\Generated_Source\PSoC4/PWM_PM.c **** *  None
 127:.\Generated_Source\PSoC4/PWM_PM.c **** *
 128:.\Generated_Source\PSoC4/PWM_PM.c **** * Return:
 129:.\Generated_Source\PSoC4/PWM_PM.c **** *  None
 130:.\Generated_Source\PSoC4/PWM_PM.c **** *
 131:.\Generated_Source\PSoC4/PWM_PM.c **** * Global variables:
 132:.\Generated_Source\PSoC4/PWM_PM.c **** *  PWM_backup.PWMEnableState:  Is modified depending on the enable
 133:.\Generated_Source\PSoC4/PWM_PM.c **** *  state of the block before entering sleep mode.
 134:.\Generated_Source\PSoC4/PWM_PM.c **** *
 135:.\Generated_Source\PSoC4/PWM_PM.c **** *******************************************************************************/
 136:.\Generated_Source\PSoC4/PWM_PM.c **** void PWM_Sleep(void) 
 137:.\Generated_Source\PSoC4/PWM_PM.c **** {
 116              		.loc 1 137 0
 117              		.cfi_startproc
 118 0000 08B5     		push	{r3, lr}
 119              		.cfi_def_cfa_offset 8
 120              		.cfi_offset 3, -8
 121              		.cfi_offset 14, -4
 138:.\Generated_Source\PSoC4/PWM_PM.c ****     #if(PWM_UseControl)
 139:.\Generated_Source\PSoC4/PWM_PM.c ****         if(PWM_CTRL_ENABLE == (PWM_CONTROL & PWM_CTRL_ENABLE))
 122              		.loc 1 139 0
 123 0002 074B     		ldr	r3, .L12
 124 0004 074A     		ldr	r2, .L12+4
 125 0006 1B78     		ldrb	r3, [r3]
 126 0008 5BB2     		sxtb	r3, r3
 127 000a 002B     		cmp	r3, #0
 128 000c 01DA     		bge	.L8
 140:.\Generated_Source\PSoC4/PWM_PM.c ****         {
 141:.\Generated_Source\PSoC4/PWM_PM.c ****             /*Component is enabled */
 142:.\Generated_Source\PSoC4/PWM_PM.c ****             PWM_backup.PWMEnableState = 1u;
 129              		.loc 1 142 0
 130 000e 0123     		mov	r3, #1
 131 0010 00E0     		b	.L10
 132              	.L8:
 143:.\Generated_Source\PSoC4/PWM_PM.c ****         }
ARM GAS  C:\Users\Vitali\AppData\Local\Temp\ccz5uTBN.s 			page 6


 144:.\Generated_Source\PSoC4/PWM_PM.c ****         else
 145:.\Generated_Source\PSoC4/PWM_PM.c ****         {
 146:.\Generated_Source\PSoC4/PWM_PM.c ****             /* Component is disabled */
 147:.\Generated_Source\PSoC4/PWM_PM.c ****             PWM_backup.PWMEnableState = 0u;
 133              		.loc 1 147 0
 134 0012 0023     		mov	r3, #0
 135              	.L10:
 136 0014 1370     		strb	r3, [r2]
 148:.\Generated_Source\PSoC4/PWM_PM.c ****         }
 149:.\Generated_Source\PSoC4/PWM_PM.c ****     #endif /* (PWM_UseControl) */
 150:.\Generated_Source\PSoC4/PWM_PM.c **** 
 151:.\Generated_Source\PSoC4/PWM_PM.c ****     /* Stop component */
 152:.\Generated_Source\PSoC4/PWM_PM.c ****     PWM_Stop();
 153:.\Generated_Source\PSoC4/PWM_PM.c **** 
 154:.\Generated_Source\PSoC4/PWM_PM.c ****     /* Save registers configuration */
 155:.\Generated_Source\PSoC4/PWM_PM.c ****     PWM_SaveConfig();
 156:.\Generated_Source\PSoC4/PWM_PM.c **** }
 137              		.loc 1 156 0
 138              		@ sp needed
 152:.\Generated_Source\PSoC4/PWM_PM.c **** 
 139              		.loc 1 152 0
 140 0016 FFF7FEFF 		bl	PWM_Stop
 141              	.LVL6:
 155:.\Generated_Source\PSoC4/PWM_PM.c **** }
 142              		.loc 1 155 0
 143 001a FFF7FEFF 		bl	PWM_SaveConfig
 144              	.LVL7:
 145              		.loc 1 156 0
 146 001e 08BD     		pop	{r3, pc}
 147              	.L13:
 148              		.align	2
 149              	.L12:
 150 0020 72000F40 		.word	1074724978
 151 0024 00000000 		.word	.LANCHOR0
 152              		.cfi_endproc
 153              	.LFE2:
 154              		.size	PWM_Sleep, .-PWM_Sleep
 155              		.section	.text.PWM_Wakeup,"ax",%progbits
 156              		.align	1
 157              		.global	PWM_Wakeup
 158              		.code	16
 159              		.thumb_func
 160              		.type	PWM_Wakeup, %function
 161              	PWM_Wakeup:
 162              	.LFB3:
 157:.\Generated_Source\PSoC4/PWM_PM.c **** 
 158:.\Generated_Source\PSoC4/PWM_PM.c **** 
 159:.\Generated_Source\PSoC4/PWM_PM.c **** /*******************************************************************************
 160:.\Generated_Source\PSoC4/PWM_PM.c **** * Function Name: PWM_Wakeup
 161:.\Generated_Source\PSoC4/PWM_PM.c **** ********************************************************************************
 162:.\Generated_Source\PSoC4/PWM_PM.c **** *
 163:.\Generated_Source\PSoC4/PWM_PM.c **** * Summary:
 164:.\Generated_Source\PSoC4/PWM_PM.c **** *  Restores and enables the user configuration. Should be called just after
 165:.\Generated_Source\PSoC4/PWM_PM.c **** *  awaking from sleep.
 166:.\Generated_Source\PSoC4/PWM_PM.c **** *
 167:.\Generated_Source\PSoC4/PWM_PM.c **** * Parameters:
 168:.\Generated_Source\PSoC4/PWM_PM.c **** *  None
ARM GAS  C:\Users\Vitali\AppData\Local\Temp\ccz5uTBN.s 			page 7


 169:.\Generated_Source\PSoC4/PWM_PM.c **** *
 170:.\Generated_Source\PSoC4/PWM_PM.c **** * Return:
 171:.\Generated_Source\PSoC4/PWM_PM.c **** *  None
 172:.\Generated_Source\PSoC4/PWM_PM.c **** *
 173:.\Generated_Source\PSoC4/PWM_PM.c **** * Global variables:
 174:.\Generated_Source\PSoC4/PWM_PM.c **** *  PWM_backup.pwmEnable:  Is used to restore the enable state of
 175:.\Generated_Source\PSoC4/PWM_PM.c **** *  block on wakeup from sleep mode.
 176:.\Generated_Source\PSoC4/PWM_PM.c **** *
 177:.\Generated_Source\PSoC4/PWM_PM.c **** *******************************************************************************/
 178:.\Generated_Source\PSoC4/PWM_PM.c **** void PWM_Wakeup(void) 
 179:.\Generated_Source\PSoC4/PWM_PM.c **** {
 163              		.loc 1 179 0
 164              		.cfi_startproc
 165 0000 08B5     		push	{r3, lr}
 166              		.cfi_def_cfa_offset 8
 167              		.cfi_offset 3, -8
 168              		.cfi_offset 14, -4
 180:.\Generated_Source\PSoC4/PWM_PM.c ****      /* Restore registers values */
 181:.\Generated_Source\PSoC4/PWM_PM.c ****     PWM_RestoreConfig();
 169              		.loc 1 181 0
 170 0002 FFF7FEFF 		bl	PWM_RestoreConfig
 171              	.LVL8:
 182:.\Generated_Source\PSoC4/PWM_PM.c **** 
 183:.\Generated_Source\PSoC4/PWM_PM.c ****     if(PWM_backup.PWMEnableState != 0u)
 172              		.loc 1 183 0
 173 0006 034B     		ldr	r3, .L19
 174 0008 1B78     		ldrb	r3, [r3]
 175 000a 002B     		cmp	r3, #0
 176 000c 01D0     		beq	.L14
 184:.\Generated_Source\PSoC4/PWM_PM.c ****     {
 185:.\Generated_Source\PSoC4/PWM_PM.c ****         /* Enable component's operation */
 186:.\Generated_Source\PSoC4/PWM_PM.c ****         PWM_Enable();
 177              		.loc 1 186 0
 178 000e FFF7FEFF 		bl	PWM_Enable
 179              	.LVL9:
 180              	.L14:
 187:.\Generated_Source\PSoC4/PWM_PM.c ****     } /* Do nothing if component's block was disabled before */
 188:.\Generated_Source\PSoC4/PWM_PM.c **** 
 189:.\Generated_Source\PSoC4/PWM_PM.c **** }
 181              		.loc 1 189 0
 182              		@ sp needed
 183 0012 08BD     		pop	{r3, pc}
 184              	.L20:
 185              		.align	2
 186              	.L19:
 187 0014 00000000 		.word	.LANCHOR0
 188              		.cfi_endproc
 189              	.LFE3:
 190              		.size	PWM_Wakeup, .-PWM_Wakeup
 191              		.bss
 192              		.set	.LANCHOR0,. + 0
 193              		.type	PWM_backup, %object
 194              		.size	PWM_backup, 5
 195              	PWM_backup:
 196 0000 00000000 		.space	5
 196      00
 197              		.text
ARM GAS  C:\Users\Vitali\AppData\Local\Temp\ccz5uTBN.s 			page 8


 198              	.Letext0:
 199              		.file 2 ".\\Generated_Source\\PSoC4\\cytypes.h"
 200              		.file 3 ".\\Generated_Source\\PSoC4\\PWM.h"