ARM GAS  C:\Users\Vitali\AppData\Local\Temp\ccu81yp2.s 			page 1


   1              		.cpu cortex-m0
   2              		.fpu softvfp
   3              		.eabi_attribute 20, 1
   4              		.eabi_attribute 21, 1
   5              		.eabi_attribute 23, 3
   6              		.eabi_attribute 24, 1
   7              		.eabi_attribute 25, 1
   8              		.eabi_attribute 26, 1
   9              		.eabi_attribute 30, 4
  10              		.eabi_attribute 34, 0
  11              		.eabi_attribute 18, 4
  12              		.code	16
  13              		.file	"RTC.c"
  14              		.text
  15              	.Ltext0:
  16              		.cfi_sections	.debug_frame
  17              		.global	__aeabi_uidivmod
  18              		.section	.text.RTC_LeapYear,"ax",%progbits
  19              		.align	1
  20              		.code	16
  21              		.thumb_func
  22              		.type	RTC_LeapYear, %function
  23              	RTC_LeapYear:
  24              	.LFB1:
  25              		.file 1 ".\\Generated_Source\\PSoC4\\RTC.h"
   1:.\Generated_Source\PSoC4/RTC.h **** /*******************************************************************************
   2:.\Generated_Source\PSoC4/RTC.h **** * File Name: RTC.h
   3:.\Generated_Source\PSoC4/RTC.h **** * Version 1.0
   4:.\Generated_Source\PSoC4/RTC.h **** *
   5:.\Generated_Source\PSoC4/RTC.h **** * Description:
   6:.\Generated_Source\PSoC4/RTC.h **** *  This file provides constants and parameter values for the RTC_P4 Component.
   7:.\Generated_Source\PSoC4/RTC.h **** *
   8:.\Generated_Source\PSoC4/RTC.h **** ********************************************************************************
   9:.\Generated_Source\PSoC4/RTC.h **** * Copyright 2015, Cypress Semiconductor Corporation.  All rights reserved.
  10:.\Generated_Source\PSoC4/RTC.h **** * You may use this file only in accordance with the license, terms, conditions,
  11:.\Generated_Source\PSoC4/RTC.h **** * disclaimers, and limitations in the end user license agreement accompanying
  12:.\Generated_Source\PSoC4/RTC.h **** * the software package with which this file was provided.
  13:.\Generated_Source\PSoC4/RTC.h **** *******************************************************************************/
  14:.\Generated_Source\PSoC4/RTC.h **** 
  15:.\Generated_Source\PSoC4/RTC.h **** #if !defined(CY_RTC_P4_RTC_H)
  16:.\Generated_Source\PSoC4/RTC.h **** #define CY_RTC_P4_RTC_H
  17:.\Generated_Source\PSoC4/RTC.h **** 
  18:.\Generated_Source\PSoC4/RTC.h **** #include <cytypes.h>
  19:.\Generated_Source\PSoC4/RTC.h **** #include <CyLib.h>
  20:.\Generated_Source\PSoC4/RTC.h **** 
  21:.\Generated_Source\PSoC4/RTC.h **** 
  22:.\Generated_Source\PSoC4/RTC.h **** /***************************************
  23:.\Generated_Source\PSoC4/RTC.h **** *    Data types definition.
  24:.\Generated_Source\PSoC4/RTC.h **** ***************************************/
  25:.\Generated_Source\PSoC4/RTC.h **** typedef enum
  26:.\Generated_Source\PSoC4/RTC.h **** {
  27:.\Generated_Source\PSoC4/RTC.h ****     RTC_DST_DATE_RELATIVE = 0u,
  28:.\Generated_Source\PSoC4/RTC.h ****     RTC_DST_DATE_FIXED = 1u
  29:.\Generated_Source\PSoC4/RTC.h **** }RTC_DST_DATETYPE_ENUM;
  30:.\Generated_Source\PSoC4/RTC.h **** 
  31:.\Generated_Source\PSoC4/RTC.h **** typedef struct
  32:.\Generated_Source\PSoC4/RTC.h **** {
ARM GAS  C:\Users\Vitali\AppData\Local\Temp\ccu81yp2.s 			page 2


  33:.\Generated_Source\PSoC4/RTC.h ****     uint32 time;
  34:.\Generated_Source\PSoC4/RTC.h ****     uint32 date;
  35:.\Generated_Source\PSoC4/RTC.h ****     uint32 dayOfWeek;
  36:.\Generated_Source\PSoC4/RTC.h ****     uint32 status;
  37:.\Generated_Source\PSoC4/RTC.h **** }RTC_DATE_TIME;
  38:.\Generated_Source\PSoC4/RTC.h **** 
  39:.\Generated_Source\PSoC4/RTC.h **** typedef struct
  40:.\Generated_Source\PSoC4/RTC.h **** {
  41:.\Generated_Source\PSoC4/RTC.h ****     uint32 hour;
  42:.\Generated_Source\PSoC4/RTC.h ****     uint32 dayOfWeek;
  43:.\Generated_Source\PSoC4/RTC.h ****     uint32 dayOfMonth;
  44:.\Generated_Source\PSoC4/RTC.h ****     uint32 weekOfMonth;
  45:.\Generated_Source\PSoC4/RTC.h ****     uint32 month;
  46:.\Generated_Source\PSoC4/RTC.h ****     uint8  timeFormat;
  47:.\Generated_Source\PSoC4/RTC.h **** }RTC_DST_TIME;
  48:.\Generated_Source\PSoC4/RTC.h **** 
  49:.\Generated_Source\PSoC4/RTC.h **** 
  50:.\Generated_Source\PSoC4/RTC.h **** /**************************************
  51:.\Generated_Source\PSoC4/RTC.h **** *    Enumerated Types and Parameters
  52:.\Generated_Source\PSoC4/RTC.h **** **************************************/
  53:.\Generated_Source\PSoC4/RTC.h **** /* Time Format setting constants */
  54:.\Generated_Source\PSoC4/RTC.h **** #define RTC__HOUR_12 1
  55:.\Generated_Source\PSoC4/RTC.h **** #define RTC__HOUR_24 0
  56:.\Generated_Source\PSoC4/RTC.h **** 
  57:.\Generated_Source\PSoC4/RTC.h **** /*  Date Format setting constants */
  58:.\Generated_Source\PSoC4/RTC.h **** #define RTC__MM_DD_YYYY 0
  59:.\Generated_Source\PSoC4/RTC.h **** #define RTC__DD_MM_YYYY 1
  60:.\Generated_Source\PSoC4/RTC.h **** #define RTC__YYYY_MM_DD 2
  61:.\Generated_Source\PSoC4/RTC.h **** 
  62:.\Generated_Source\PSoC4/RTC.h **** /* Date Type setting constants */
  63:.\Generated_Source\PSoC4/RTC.h **** #define RTC__RELATIVE 0
  64:.\Generated_Source\PSoC4/RTC.h **** #define RTC__FIXED 1
  65:.\Generated_Source\PSoC4/RTC.h **** 
  66:.\Generated_Source\PSoC4/RTC.h **** /* DST Hour setting constants */
  67:.\Generated_Source\PSoC4/RTC.h **** #define RTC__H0000 0
  68:.\Generated_Source\PSoC4/RTC.h **** #define RTC__H0100 1
  69:.\Generated_Source\PSoC4/RTC.h **** #define RTC__H0200 2
  70:.\Generated_Source\PSoC4/RTC.h **** #define RTC__H0300 3
  71:.\Generated_Source\PSoC4/RTC.h **** #define RTC__H0400 4
  72:.\Generated_Source\PSoC4/RTC.h **** #define RTC__H0500 5
  73:.\Generated_Source\PSoC4/RTC.h **** #define RTC__H0600 6
  74:.\Generated_Source\PSoC4/RTC.h **** #define RTC__H0700 7
  75:.\Generated_Source\PSoC4/RTC.h **** #define RTC__H0800 8
  76:.\Generated_Source\PSoC4/RTC.h **** #define RTC__H0900 9
  77:.\Generated_Source\PSoC4/RTC.h **** #define RTC__H1000 10
  78:.\Generated_Source\PSoC4/RTC.h **** #define RTC__H1100 11
  79:.\Generated_Source\PSoC4/RTC.h **** #define RTC__H1200 12
  80:.\Generated_Source\PSoC4/RTC.h **** #define RTC__H1300 13
  81:.\Generated_Source\PSoC4/RTC.h **** #define RTC__H1400 14
  82:.\Generated_Source\PSoC4/RTC.h **** #define RTC__H1500 15
  83:.\Generated_Source\PSoC4/RTC.h **** #define RTC__H1600 16
  84:.\Generated_Source\PSoC4/RTC.h **** #define RTC__H1700 17
  85:.\Generated_Source\PSoC4/RTC.h **** #define RTC__H1800 18
  86:.\Generated_Source\PSoC4/RTC.h **** #define RTC__H1900 19
  87:.\Generated_Source\PSoC4/RTC.h **** #define RTC__H2000 20
  88:.\Generated_Source\PSoC4/RTC.h **** #define RTC__H2100 21
  89:.\Generated_Source\PSoC4/RTC.h **** #define RTC__H2200 22
ARM GAS  C:\Users\Vitali\AppData\Local\Temp\ccu81yp2.s 			page 3


  90:.\Generated_Source\PSoC4/RTC.h **** #define RTC__H2300 23
  91:.\Generated_Source\PSoC4/RTC.h **** 
  92:.\Generated_Source\PSoC4/RTC.h **** /* DST DayOfWeek setting constants */
  93:.\Generated_Source\PSoC4/RTC.h **** #define RTC__SUNDAY 1
  94:.\Generated_Source\PSoC4/RTC.h **** #define RTC__MONDAY 2
  95:.\Generated_Source\PSoC4/RTC.h **** #define RTC__TUESDAY 3
  96:.\Generated_Source\PSoC4/RTC.h **** #define RTC__WEDNESDAY 4
  97:.\Generated_Source\PSoC4/RTC.h **** #define RTC__THURSDAY 5
  98:.\Generated_Source\PSoC4/RTC.h **** #define RTC__FRIDAY 6
  99:.\Generated_Source\PSoC4/RTC.h **** #define RTC__SATURDAY 7
 100:.\Generated_Source\PSoC4/RTC.h **** 
 101:.\Generated_Source\PSoC4/RTC.h **** /* DST Month setting constants */
 102:.\Generated_Source\PSoC4/RTC.h **** #define RTC__JAN 1
 103:.\Generated_Source\PSoC4/RTC.h **** #define RTC__FEB 2
 104:.\Generated_Source\PSoC4/RTC.h **** #define RTC__MAR 3
 105:.\Generated_Source\PSoC4/RTC.h **** #define RTC__APR 4
 106:.\Generated_Source\PSoC4/RTC.h **** #define RTC__MAY 5
 107:.\Generated_Source\PSoC4/RTC.h **** #define RTC__JUN 6
 108:.\Generated_Source\PSoC4/RTC.h **** #define RTC__JUL 7
 109:.\Generated_Source\PSoC4/RTC.h **** #define RTC__AUG 8
 110:.\Generated_Source\PSoC4/RTC.h **** #define RTC__SEP 9
 111:.\Generated_Source\PSoC4/RTC.h **** #define RTC__OCT 10
 112:.\Generated_Source\PSoC4/RTC.h **** #define RTC__NOV 11
 113:.\Generated_Source\PSoC4/RTC.h **** #define RTC__DEC 12
 114:.\Generated_Source\PSoC4/RTC.h **** 
 115:.\Generated_Source\PSoC4/RTC.h **** /* DST WeekOfMonth setting constants */
 116:.\Generated_Source\PSoC4/RTC.h **** #define RTC__FIRST 1
 117:.\Generated_Source\PSoC4/RTC.h **** #define RTC__SECOND 2
 118:.\Generated_Source\PSoC4/RTC.h **** #define RTC__THIRD 3
 119:.\Generated_Source\PSoC4/RTC.h **** #define RTC__FOURTH 4
 120:.\Generated_Source\PSoC4/RTC.h **** #define RTC__FIFTH 5
 121:.\Generated_Source\PSoC4/RTC.h **** #define RTC__LAST 6
 122:.\Generated_Source\PSoC4/RTC.h **** 
 123:.\Generated_Source\PSoC4/RTC.h **** 
 124:.\Generated_Source\PSoC4/RTC.h **** 
 125:.\Generated_Source\PSoC4/RTC.h **** #define RTC_INITIAL_DATA_FORMAT     (0u)
 126:.\Generated_Source\PSoC4/RTC.h **** #define RTC_INITIAL_TIME_FORMAT     (0u)
 127:.\Generated_Source\PSoC4/RTC.h **** #define RTC_INITIAL_UPDATE_MODE     (0u)
 128:.\Generated_Source\PSoC4/RTC.h **** #define RTC_INITIAL_SECOND          (27u)
 129:.\Generated_Source\PSoC4/RTC.h **** #define RTC_INITIAL_MINUTE          (49u)
 130:.\Generated_Source\PSoC4/RTC.h **** #define RTC_INITIAL_HOUR            (23u)
 131:.\Generated_Source\PSoC4/RTC.h **** #define RTC_INITIAL_DAY             (22u)
 132:.\Generated_Source\PSoC4/RTC.h **** #define RTC_INITIAL_MONTH           (11u)
 133:.\Generated_Source\PSoC4/RTC.h **** #define RTC_INITIAL_YEAR            (2015u)
 134:.\Generated_Source\PSoC4/RTC.h **** 
 135:.\Generated_Source\PSoC4/RTC.h **** #define RTC_INITIAL_ALARM_STATUS    (1u)
 136:.\Generated_Source\PSoC4/RTC.h **** 
 137:.\Generated_Source\PSoC4/RTC.h **** #define RTC_INITIAL_DST_STATUS      (0u)
 138:.\Generated_Source\PSoC4/RTC.h **** #define RTC_INITIAL_DST_DATE_TYPE   (0u)
 139:.\Generated_Source\PSoC4/RTC.h **** #define RTC_INITIAL_DST_START_MONTH (3uL)
 140:.\Generated_Source\PSoC4/RTC.h **** #define RTC_INITIAL_DST_START_WOM   (6uL)
 141:.\Generated_Source\PSoC4/RTC.h **** #define RTC_INITIAL_DST_START_DOM   (22uL)
 142:.\Generated_Source\PSoC4/RTC.h **** #define RTC_INITIAL_DST_START_DOW   (1uL)
 143:.\Generated_Source\PSoC4/RTC.h **** #define RTC_INITIAL_DST_START_HRS   (0uL)
 144:.\Generated_Source\PSoC4/RTC.h **** #define RTC_INITIAL_DST_STOP_MONTH  (10uL)
 145:.\Generated_Source\PSoC4/RTC.h **** #define RTC_INITIAL_DST_STOP_DOM    (22uL)
 146:.\Generated_Source\PSoC4/RTC.h **** #define RTC_INITIAL_DST_STOP_DOW    (1uL)
ARM GAS  C:\Users\Vitali\AppData\Local\Temp\ccu81yp2.s 			page 4


 147:.\Generated_Source\PSoC4/RTC.h **** #define RTC_INITIAL_DST_STOP_WOM    (6uL)
 148:.\Generated_Source\PSoC4/RTC.h **** #define RTC_INITIAL_DST_STOP_HRS    (0uL)
 149:.\Generated_Source\PSoC4/RTC.h **** 
 150:.\Generated_Source\PSoC4/RTC.h **** 
 151:.\Generated_Source\PSoC4/RTC.h **** /* Day of week definitions */
 152:.\Generated_Source\PSoC4/RTC.h **** #define RTC_SUNDAY     (RTC__SUNDAY)
 153:.\Generated_Source\PSoC4/RTC.h **** #define RTC_MONDAY     (RTC__MONDAY)
 154:.\Generated_Source\PSoC4/RTC.h **** #define RTC_TUESDAY    (RTC__TUESDAY)
 155:.\Generated_Source\PSoC4/RTC.h **** #define RTC_WEDNESDAY  (RTC__WEDNESDAY)
 156:.\Generated_Source\PSoC4/RTC.h **** #define RTC_THURSDAY   (RTC__THURSDAY)
 157:.\Generated_Source\PSoC4/RTC.h **** #define RTC_FRIDAY     (RTC__FRIDAY)
 158:.\Generated_Source\PSoC4/RTC.h **** #define RTC_SATURDAY   (RTC__SATURDAY)
 159:.\Generated_Source\PSoC4/RTC.h **** 
 160:.\Generated_Source\PSoC4/RTC.h **** /* DST WeekOfMonth setting constants definitions */
 161:.\Generated_Source\PSoC4/RTC.h **** #define RTC_FIRST      (RTC__FIRST)
 162:.\Generated_Source\PSoC4/RTC.h **** #define RTC_SECOND     (RTC__SECOND)
 163:.\Generated_Source\PSoC4/RTC.h **** #define RTC_THIRD      (RTC__THIRD)
 164:.\Generated_Source\PSoC4/RTC.h **** #define RTC_FOURTH     (RTC__FOURTH)
 165:.\Generated_Source\PSoC4/RTC.h **** #define RTC_FIFTH      (RTC__FIFTH)
 166:.\Generated_Source\PSoC4/RTC.h **** #define RTC_LAST       (RTC__LAST)
 167:.\Generated_Source\PSoC4/RTC.h **** 
 168:.\Generated_Source\PSoC4/RTC.h **** /* Month definitions */
 169:.\Generated_Source\PSoC4/RTC.h **** #define RTC_JANUARY    (RTC__JAN)
 170:.\Generated_Source\PSoC4/RTC.h **** #define RTC_FEBRUARY   (RTC__FEB)
 171:.\Generated_Source\PSoC4/RTC.h **** #define RTC_MARCH      (RTC__MAR)
 172:.\Generated_Source\PSoC4/RTC.h **** #define RTC_APRIL      (RTC__APR)
 173:.\Generated_Source\PSoC4/RTC.h **** #define RTC_MAY        (RTC__MAY)
 174:.\Generated_Source\PSoC4/RTC.h **** #define RTC_JUNE       (RTC__JUN)
 175:.\Generated_Source\PSoC4/RTC.h **** #define RTC_JULY       (RTC__JUL)
 176:.\Generated_Source\PSoC4/RTC.h **** #define RTC_AUGUST     (RTC__AUG)
 177:.\Generated_Source\PSoC4/RTC.h **** #define RTC_SEPTEMBER  (RTC__SEP)
 178:.\Generated_Source\PSoC4/RTC.h **** #define RTC_OCTOBER    (RTC__OCT)
 179:.\Generated_Source\PSoC4/RTC.h **** #define RTC_NOVEMBER   (RTC__NOV)
 180:.\Generated_Source\PSoC4/RTC.h **** #define RTC_DECEMBER   (RTC__DEC)
 181:.\Generated_Source\PSoC4/RTC.h **** 
 182:.\Generated_Source\PSoC4/RTC.h **** #define RTC_DAYS_PER_WEEK       (7u)
 183:.\Generated_Source\PSoC4/RTC.h **** 
 184:.\Generated_Source\PSoC4/RTC.h **** /* Number of days in month definitions */
 185:.\Generated_Source\PSoC4/RTC.h **** #define RTC_DAYS_IN_JANUARY     (31u)
 186:.\Generated_Source\PSoC4/RTC.h **** #define RTC_DAYS_IN_FEBRUARY    (28u)
 187:.\Generated_Source\PSoC4/RTC.h **** #define RTC_DAYS_IN_MARCH       (31u)
 188:.\Generated_Source\PSoC4/RTC.h **** #define RTC_DAYS_IN_APRIL       (30u)
 189:.\Generated_Source\PSoC4/RTC.h **** #define RTC_DAYS_IN_MAY         (31u)
 190:.\Generated_Source\PSoC4/RTC.h **** #define RTC_DAYS_IN_JUNE        (30u)
 191:.\Generated_Source\PSoC4/RTC.h **** #define RTC_DAYS_IN_JULY        (31u)
 192:.\Generated_Source\PSoC4/RTC.h **** #define RTC_DAYS_IN_AUGUST      (31u)
 193:.\Generated_Source\PSoC4/RTC.h **** #define RTC_DAYS_IN_SEPTEMBER   (30u)
 194:.\Generated_Source\PSoC4/RTC.h **** #define RTC_DAYS_IN_OCTOBER     (31u)
 195:.\Generated_Source\PSoC4/RTC.h **** #define RTC_DAYS_IN_NOVEMBER    (30u)
 196:.\Generated_Source\PSoC4/RTC.h **** #define RTC_DAYS_IN_DECEMBER    (31u)
 197:.\Generated_Source\PSoC4/RTC.h **** 
 198:.\Generated_Source\PSoC4/RTC.h **** #define RTC_MONTHS_PER_YEAR     (12uL)
 199:.\Generated_Source\PSoC4/RTC.h **** 
 200:.\Generated_Source\PSoC4/RTC.h **** #define RTC_HOURS_PER_DAY       (24uL)
 201:.\Generated_Source\PSoC4/RTC.h **** #define RTC_HOURS_PER_HALF_DAY  (12uL)
 202:.\Generated_Source\PSoC4/RTC.h **** 
 203:.\Generated_Source\PSoC4/RTC.h **** #define RTC_SECONDS_PER_MINUTE  (60uL)
ARM GAS  C:\Users\Vitali\AppData\Local\Temp\ccu81yp2.s 			page 5


 204:.\Generated_Source\PSoC4/RTC.h **** #define RTC_SECONDS_PER_HOUR    (3600uL)
 205:.\Generated_Source\PSoC4/RTC.h **** #define RTC_SECONDS_PER_DAY     (24uL * 3600uL)
 206:.\Generated_Source\PSoC4/RTC.h **** 
 207:.\Generated_Source\PSoC4/RTC.h **** #define RTC_SECONDS_PER_LEAP_YEAR    (366uL * 24uL * 3600uL)
 208:.\Generated_Source\PSoC4/RTC.h **** #define RTC_SECONDS_PER_NONLEAP_YEAR (365uL * 24uL * 3600uL)
 209:.\Generated_Source\PSoC4/RTC.h **** 
 210:.\Generated_Source\PSoC4/RTC.h **** #define RTC_UNIX_TIME_PM   ((12uL * 3600uL) + 1uL)
 211:.\Generated_Source\PSoC4/RTC.h **** 
 212:.\Generated_Source\PSoC4/RTC.h **** /* AM/PM status definitions */
 213:.\Generated_Source\PSoC4/RTC.h **** #define RTC_AM                 (0u)
 214:.\Generated_Source\PSoC4/RTC.h **** #define RTC_PM                 (1u)
 215:.\Generated_Source\PSoC4/RTC.h **** 
 216:.\Generated_Source\PSoC4/RTC.h **** /* Time format definitions */
 217:.\Generated_Source\PSoC4/RTC.h **** #define RTC_12_HOURS_FORMAT    (RTC__HOUR_12)
 218:.\Generated_Source\PSoC4/RTC.h **** #define RTC_24_HOURS_FORMAT    (RTC__HOUR_24)
 219:.\Generated_Source\PSoC4/RTC.h **** 
 220:.\Generated_Source\PSoC4/RTC.h **** /* UNIX time begins in 1970 year.  */
 221:.\Generated_Source\PSoC4/RTC.h **** #define RTC_YEAR_0             (1970u)
 222:.\Generated_Source\PSoC4/RTC.h **** 
 223:.\Generated_Source\PSoC4/RTC.h **** /* Definition of date register fields */
 224:.\Generated_Source\PSoC4/RTC.h **** #if(RTC_INITIAL_DATA_FORMAT == RTC__MM_DD_YYYY)
 225:.\Generated_Source\PSoC4/RTC.h ****     #define RTC_10_MONTH_OFFSET   (28u)
 226:.\Generated_Source\PSoC4/RTC.h ****     #define RTC_MONTH_OFFSET      (24u)
 227:.\Generated_Source\PSoC4/RTC.h ****     #define RTC_10_DAY_OFFSET     (20u)
 228:.\Generated_Source\PSoC4/RTC.h ****     #define RTC_DAY_OFFSET        (16u)
 229:.\Generated_Source\PSoC4/RTC.h ****     #define RTC_1000_YEAR_OFFSET  (12u)
 230:.\Generated_Source\PSoC4/RTC.h ****     #define RTC_100_YEAR_OFFSET   (8u)
 231:.\Generated_Source\PSoC4/RTC.h ****     #define RTC_10_YEAR_OFFSET    (4u)
 232:.\Generated_Source\PSoC4/RTC.h ****     #define RTC_YEAR_OFFSET       (0u)
 233:.\Generated_Source\PSoC4/RTC.h **** #elif(RTC_INITIAL_DATA_FORMAT == RTC__DD_MM_YYYY)
 234:.\Generated_Source\PSoC4/RTC.h ****     #define RTC_10_MONTH_OFFSET   (20u)
 235:.\Generated_Source\PSoC4/RTC.h ****     #define RTC_MONTH_OFFSET      (16u)
 236:.\Generated_Source\PSoC4/RTC.h ****     #define RTC_10_DAY_OFFSET     (28u)
 237:.\Generated_Source\PSoC4/RTC.h ****     #define RTC_DAY_OFFSET        (24u)
 238:.\Generated_Source\PSoC4/RTC.h ****     #define RTC_1000_YEAR_OFFSET  (12u)
 239:.\Generated_Source\PSoC4/RTC.h ****     #define RTC_100_YEAR_OFFSET   (8u)
 240:.\Generated_Source\PSoC4/RTC.h ****     #define RTC_10_YEAR_OFFSET    (4u)
 241:.\Generated_Source\PSoC4/RTC.h ****     #define RTC_YEAR_OFFSET       (0u)
 242:.\Generated_Source\PSoC4/RTC.h **** #else
 243:.\Generated_Source\PSoC4/RTC.h ****     #define RTC_10_MONTH_OFFSET   (12u)
 244:.\Generated_Source\PSoC4/RTC.h ****     #define RTC_MONTH_OFFSET      (8u)
 245:.\Generated_Source\PSoC4/RTC.h ****     #define RTC_10_DAY_OFFSET     (4u)
 246:.\Generated_Source\PSoC4/RTC.h ****     #define RTC_DAY_OFFSET        (0u)
 247:.\Generated_Source\PSoC4/RTC.h ****     #define RTC_1000_YEAR_OFFSET  (28u)
 248:.\Generated_Source\PSoC4/RTC.h ****     #define RTC_100_YEAR_OFFSET   (24u)
 249:.\Generated_Source\PSoC4/RTC.h ****     #define RTC_10_YEAR_OFFSET    (20u)
 250:.\Generated_Source\PSoC4/RTC.h ****     #define RTC_YEAR_OFFSET       (16u)
 251:.\Generated_Source\PSoC4/RTC.h **** #endif /* (RTC_INITIAL_DATA_FORMAT == RTC__MM_DD_YYYY) */
 252:.\Generated_Source\PSoC4/RTC.h **** 
 253:.\Generated_Source\PSoC4/RTC.h **** #define RTC_10_MONTH_MASK          (0x00000001uL << RTC_10_MONTH_OFFSET)
 254:.\Generated_Source\PSoC4/RTC.h **** #define RTC_MONTH_MASK             (0x0000000FuL << RTC_MONTH_OFFSET)
 255:.\Generated_Source\PSoC4/RTC.h **** #define RTC_10_DAY_MASK            (0x00000003uL << RTC_10_DAY_OFFSET)
 256:.\Generated_Source\PSoC4/RTC.h **** #define RTC_DAY_MASK               (0x0000000FuL << RTC_DAY_OFFSET)
 257:.\Generated_Source\PSoC4/RTC.h **** #define RTC_1000_YEAR_MASK         (0x00000003uL << RTC_1000_YEAR_OFFSET)
 258:.\Generated_Source\PSoC4/RTC.h **** #define RTC_100_YEAR_MASK          (0x0000000FuL << RTC_100_YEAR_OFFSET)
 259:.\Generated_Source\PSoC4/RTC.h **** #define RTC_10_YEAR_MASK           (0x0000000FuL << RTC_10_YEAR_OFFSET)
 260:.\Generated_Source\PSoC4/RTC.h **** #define RTC_YEAR_MASK              (0x0000000FuL << RTC_YEAR_OFFSET)
ARM GAS  C:\Users\Vitali\AppData\Local\Temp\ccu81yp2.s 			page 6


 261:.\Generated_Source\PSoC4/RTC.h **** 
 262:.\Generated_Source\PSoC4/RTC.h **** #define  RTC_MONTH_FULL_MASK       (RTC_10_MONTH_MASK  | RTC_MONTH_MASK)
 263:.\Generated_Source\PSoC4/RTC.h **** #define  RTC_DAY_FULL_MASK         (RTC_10_DAY_MASK    | RTC_DAY_MASK)
 264:.\Generated_Source\PSoC4/RTC.h **** #define  RTC_YEAR_FULL_MASK        (RTC_1000_YEAR_MASK | RTC_100_YEAR_MASK |\
 265:.\Generated_Source\PSoC4/RTC.h ****                                                  RTC_10_YEAR_MASK   | RTC_YEAR_MASK)
 266:.\Generated_Source\PSoC4/RTC.h **** 
 267:.\Generated_Source\PSoC4/RTC.h **** 
 268:.\Generated_Source\PSoC4/RTC.h **** /* Definition of time register fields */
 269:.\Generated_Source\PSoC4/RTC.h **** #define RTC_TIME_FORMAT_OFFSET     (23u)
 270:.\Generated_Source\PSoC4/RTC.h **** #define RTC_PERIOD_OF_DAY_OFFSET   (22u)
 271:.\Generated_Source\PSoC4/RTC.h **** #define RTC_10_HOURS_OFFSET        (20u)
 272:.\Generated_Source\PSoC4/RTC.h **** #define RTC_HOURS_OFFSET           (16u)
 273:.\Generated_Source\PSoC4/RTC.h **** #define RTC_10_MINUTES_OFFSET      (12u)
 274:.\Generated_Source\PSoC4/RTC.h **** #define RTC_MINUTES_OFFSET         (8u)
 275:.\Generated_Source\PSoC4/RTC.h **** #define RTC_10_SECONDS_OFFSET      (4u)
 276:.\Generated_Source\PSoC4/RTC.h **** #define RTC_SECONDS_OFFSET         (0u)
 277:.\Generated_Source\PSoC4/RTC.h **** 
 278:.\Generated_Source\PSoC4/RTC.h **** #define RTC_TIME_FORMAT_MASK       (0x00000001uL << RTC_TIME_FORMAT_OFFSET)
 279:.\Generated_Source\PSoC4/RTC.h **** #define RTC_PERIOD_OF_DAY_MASK     (0x00000001uL << RTC_PERIOD_OF_DAY_OFFSET)
 280:.\Generated_Source\PSoC4/RTC.h **** #define RTC_10_HOURS_MASK          (0x00000003uL << RTC_10_HOURS_OFFSET)
 281:.\Generated_Source\PSoC4/RTC.h **** #define RTC_HOURS_MASK             (0x0000000FuL << RTC_HOURS_OFFSET)
 282:.\Generated_Source\PSoC4/RTC.h **** #define RTC_10_MINUTES_MASK        (0x00000007uL << RTC_10_MINUTES_OFFSET)
 283:.\Generated_Source\PSoC4/RTC.h **** #define RTC_MINUTES_MASK           (0x0000000FuL << RTC_MINUTES_OFFSET)
 284:.\Generated_Source\PSoC4/RTC.h **** #define RTC_10_SECONDS_MASK        (0x00000007uL << RTC_10_SECONDS_OFFSET)
 285:.\Generated_Source\PSoC4/RTC.h **** #define RTC_SECONDS_MASK           (0x0000000FuL << RTC_SECONDS_OFFSET)
 286:.\Generated_Source\PSoC4/RTC.h **** 
 287:.\Generated_Source\PSoC4/RTC.h **** #define RTC_HOURS_FULL_MASK        (RTC_10_HOURS_MASK   | RTC_HOURS_MASK)
 288:.\Generated_Source\PSoC4/RTC.h **** #define RTC_MINUTES_FULL_MASK      (RTC_10_MINUTES_MASK | RTC_MINUTES_MASK)
 289:.\Generated_Source\PSoC4/RTC.h **** #define RTC_SECONDS_FULL_MASK      (RTC_10_SECONDS_MASK | RTC_SECONDS_MASK)
 290:.\Generated_Source\PSoC4/RTC.h **** 
 291:.\Generated_Source\PSoC4/RTC.h **** #define RTC_ALARM_SEC_MASK         (0x00000001uL)
 292:.\Generated_Source\PSoC4/RTC.h **** #define RTC_ALARM_MIN_MASK         (0x00000002uL)
 293:.\Generated_Source\PSoC4/RTC.h **** #define RTC_ALARM_HOUR_MASK        (0x00000004uL)
 294:.\Generated_Source\PSoC4/RTC.h **** #define RTC_ALARM_DAYOFWEEK_MASK   (0x00000008uL)
 295:.\Generated_Source\PSoC4/RTC.h **** #define RTC_ALARM_DAYOFMONTH_MASK  (0x00000010uL)
 296:.\Generated_Source\PSoC4/RTC.h **** #define RTC_ALARM_MONTH_MASK       (0x00000020uL)
 297:.\Generated_Source\PSoC4/RTC.h **** #define RTC_ALARM_YEAR_MASK        (0x00000040uL)
 298:.\Generated_Source\PSoC4/RTC.h **** 
 299:.\Generated_Source\PSoC4/RTC.h **** #define RTC_STATUS_DST_OFFSET      (1u)
 300:.\Generated_Source\PSoC4/RTC.h **** #define RTC_STATUS_ALARM_OFFSET    (2u)
 301:.\Generated_Source\PSoC4/RTC.h **** #define RTC_STATUS_LY_OFFSET       (3u)
 302:.\Generated_Source\PSoC4/RTC.h **** #define RTC_STATUS_AM_PM_OFFSET    (4u)
 303:.\Generated_Source\PSoC4/RTC.h **** 
 304:.\Generated_Source\PSoC4/RTC.h **** /* Definition of the RTC status values. */
 305:.\Generated_Source\PSoC4/RTC.h **** #define RTC_STATUS_DST             (1uL << RTC_STATUS_DST_OFFSET)
 306:.\Generated_Source\PSoC4/RTC.h **** #define RTC_STATUS_LY              (1uL << RTC_STATUS_LY_OFFSET)
 307:.\Generated_Source\PSoC4/RTC.h **** #define RTC_STATUS_AM_PM           (1uL << RTC_STATUS_AM_PM_OFFSET)
 308:.\Generated_Source\PSoC4/RTC.h **** 
 309:.\Generated_Source\PSoC4/RTC.h **** /* Number of bits per one BCD digit. */
 310:.\Generated_Source\PSoC4/RTC.h **** #define RTC_BCD_NUMBER_SIZE        (4u)
 311:.\Generated_Source\PSoC4/RTC.h **** #define RTC_BCD_ONE_DIGIT_MASK     (0x0000000FuL)
 312:.\Generated_Source\PSoC4/RTC.h **** 
 313:.\Generated_Source\PSoC4/RTC.h **** /***************************************
 314:.\Generated_Source\PSoC4/RTC.h **** *    Function Prototypes
 315:.\Generated_Source\PSoC4/RTC.h **** ***************************************/
 316:.\Generated_Source\PSoC4/RTC.h **** void   RTC_Start(void);
 317:.\Generated_Source\PSoC4/RTC.h **** void   RTC_Stop(void);
ARM GAS  C:\Users\Vitali\AppData\Local\Temp\ccu81yp2.s 			page 7


 318:.\Generated_Source\PSoC4/RTC.h **** void   RTC_Init(void);
 319:.\Generated_Source\PSoC4/RTC.h **** void   RTC_SetUnixTime(uint64 unixTime);
 320:.\Generated_Source\PSoC4/RTC.h **** uint64 RTC_GetUnixTime(void);
 321:.\Generated_Source\PSoC4/RTC.h **** void   RTC_SetPeriod(uint32 ticks, uint32 refOneSecTicks);
 322:.\Generated_Source\PSoC4/RTC.h **** uint32 RTC_GetPeriod(void);
 323:.\Generated_Source\PSoC4/RTC.h **** uint32 RTC_GetRefOneSec(void);
 324:.\Generated_Source\PSoC4/RTC.h **** void   RTC_SetDateAndTime(uint32 inputTime, uint32 inputDate);
 325:.\Generated_Source\PSoC4/RTC.h **** void   RTC_GetDateAndTime(RTC_DATE_TIME* dateTime);
 326:.\Generated_Source\PSoC4/RTC.h **** uint32 RTC_GetTime(void);
 327:.\Generated_Source\PSoC4/RTC.h **** uint32 RTC_GetDate(void);
 328:.\Generated_Source\PSoC4/RTC.h **** void   RTC_SetAlarmDateAndTime(const RTC_DATE_TIME* alarmTime);
 329:.\Generated_Source\PSoC4/RTC.h **** void   RTC_GetAlarmDateAndTime(RTC_DATE_TIME* alarmTimeDate);
 330:.\Generated_Source\PSoC4/RTC.h **** void   RTC_SetAlarmMask(uint32 mask);
 331:.\Generated_Source\PSoC4/RTC.h **** uint32 RTC_GetAlarmMask(void);
 332:.\Generated_Source\PSoC4/RTC.h **** uint32 RTC_ReadStatus(void);
 333:.\Generated_Source\PSoC4/RTC.h **** uint32 RTC_GetAlarmStatus(void);
 334:.\Generated_Source\PSoC4/RTC.h **** void   RTC_ClearAlarmStatus(void);
 335:.\Generated_Source\PSoC4/RTC.h **** void   RTC_SetDSTStartTime(const RTC_DST_TIME* dstStartTime,
 336:.\Generated_Source\PSoC4/RTC.h ****                                               RTC_DST_DATETYPE_ENUM type);
 337:.\Generated_Source\PSoC4/RTC.h **** void   RTC_SetDSTStopTime(const RTC_DST_TIME* dstStopTime,
 338:.\Generated_Source\PSoC4/RTC.h ****                                              RTC_DST_DATETYPE_ENUM type);
 339:.\Generated_Source\PSoC4/RTC.h **** uint32 RTC_ConvertBCDToDec(uint32 bcdNum);
 340:.\Generated_Source\PSoC4/RTC.h **** uint32 RTC_ConvertDecToBCD(uint32 decNum);
 341:.\Generated_Source\PSoC4/RTC.h **** void   RTC_Update(void);
 342:.\Generated_Source\PSoC4/RTC.h **** void*  RTC_SetAlarmHandler(void (*CallbackFunction)(void));
 343:.\Generated_Source\PSoC4/RTC.h **** 
 344:.\Generated_Source\PSoC4/RTC.h **** static uint32 RTC_ConstructDate(uint32 month, uint32 day, uint32 year);
 345:.\Generated_Source\PSoC4/RTC.h **** static uint32 RTC_ConstructTime(uint32 timeFormat, uint32 stateAmPm, uint32 hour, uint32 min, uint3
 346:.\Generated_Source\PSoC4/RTC.h **** 
 347:.\Generated_Source\PSoC4/RTC.h **** static uint32 RTC_GetTimeFormat(uint32 inputTime);
 348:.\Generated_Source\PSoC4/RTC.h **** static uint32 RTC_SetTimeFormat(uint32 inputTime, uint32 timeFormat);
 349:.\Generated_Source\PSoC4/RTC.h **** 
 350:.\Generated_Source\PSoC4/RTC.h **** static uint32 RTC_LeapYear(uint32 year);
 351:.\Generated_Source\PSoC4/RTC.h **** static uint32 RTC_IsBitSet(uint32 var, uint32 mask);
 352:.\Generated_Source\PSoC4/RTC.h **** static uint32 RTC_GetSecond(uint32 inputTime);
 353:.\Generated_Source\PSoC4/RTC.h **** static uint32 RTC_GetMinutes(uint32 inputTime);
 354:.\Generated_Source\PSoC4/RTC.h **** static uint32 RTC_GetHours(uint32 inputTime);
 355:.\Generated_Source\PSoC4/RTC.h **** static uint32 RTC_GetAmPm(uint32 inputTime);
 356:.\Generated_Source\PSoC4/RTC.h **** static uint32 RTC_GetDay(uint32 date);
 357:.\Generated_Source\PSoC4/RTC.h **** static uint32 RTC_GetMonth(uint32 date);
 358:.\Generated_Source\PSoC4/RTC.h **** static uint32 RTC_GetYear(uint32 date);
 359:.\Generated_Source\PSoC4/RTC.h **** 
 360:.\Generated_Source\PSoC4/RTC.h **** static uint32 RTC_SetSecond(uint32 inputTime, uint32 inputSecond);
 361:.\Generated_Source\PSoC4/RTC.h **** static uint32 RTC_SetMinutes(uint32 inputTime, uint32 inputMinute);
 362:.\Generated_Source\PSoC4/RTC.h **** static uint32 RTC_SetHours(uint32 inputTime, uint32 inputHours);
 363:.\Generated_Source\PSoC4/RTC.h **** static uint32 RTC_SetAmPm(uint32 inputTime, uint32 periodOfDay);
 364:.\Generated_Source\PSoC4/RTC.h **** static uint32 RTC_SetDay(uint32 inputDate, uint32 inputDay);
 365:.\Generated_Source\PSoC4/RTC.h **** static uint32 RTC_SetMonth(uint32 inputDate, uint32 inputMonth);
 366:.\Generated_Source\PSoC4/RTC.h **** static uint32 RTC_SetYear(uint32 inputDate, uint32 inputYear);
 367:.\Generated_Source\PSoC4/RTC.h **** 
 368:.\Generated_Source\PSoC4/RTC.h **** uint64 RTC_ConstructUnixAlarmTime(const RTC_DATE_TIME* alarmTime, uint8 alarmCfgMask);
 369:.\Generated_Source\PSoC4/RTC.h **** uint64 RTC_GetDstUnixTime(const RTC_DST_TIME* dstTime);
 370:.\Generated_Source\PSoC4/RTC.h **** uint64 RTC_GetNexAlarmTime(uint64 curUnixTime, uint8 alarmCfgMask);
 371:.\Generated_Source\PSoC4/RTC.h **** 
 372:.\Generated_Source\PSoC4/RTC.h **** static uint32 RTC_GetNextMinSec(uint32 curVal);
 373:.\Generated_Source\PSoC4/RTC.h **** static uint32 RTC_GetNextHour(uint32 curVal);
 374:.\Generated_Source\PSoC4/RTC.h **** static uint32 RTC_GetNextDay(uint32 curYear, uint32 curMonth, uint32 curDay, uint32 alarmCfgMask);
ARM GAS  C:\Users\Vitali\AppData\Local\Temp\ccu81yp2.s 			page 8


 375:.\Generated_Source\PSoC4/RTC.h **** static uint32 RTC_GetNextMonth(uint32 curMonth);
 376:.\Generated_Source\PSoC4/RTC.h **** static uint32 RTC_GetNextYear(uint32 curYear);
 377:.\Generated_Source\PSoC4/RTC.h **** static uint32 RTC_GetDayOfWeek(uint32 day, uint32 month, uint32 year);
 378:.\Generated_Source\PSoC4/RTC.h **** 
 379:.\Generated_Source\PSoC4/RTC.h **** uint32 RTC_DaysInMonth(uint32 month, uint32 year);
 380:.\Generated_Source\PSoC4/RTC.h **** uint32 RTC_DaysBeforeMonth(uint32 month, uint32 year);
 381:.\Generated_Source\PSoC4/RTC.h **** 
 382:.\Generated_Source\PSoC4/RTC.h **** void   RTC_UnixToDateTime(RTC_DATE_TIME* dateTime, uint64 unixTime, uint32 timeFormat);
 383:.\Generated_Source\PSoC4/RTC.h **** uint64 RTC_DateTimeToUnix(uint32 inputDate, uint32 inputTime);
 384:.\Generated_Source\PSoC4/RTC.h **** uint32 RTC_RelativeToFixed(uint32 dayOfWeek, uint32 weekOfMonth, uint32 month, uint32 year);
 385:.\Generated_Source\PSoC4/RTC.h **** 
 386:.\Generated_Source\PSoC4/RTC.h **** #if defined(CYDEV_RTC_SOURCE_WDT)
 387:.\Generated_Source\PSoC4/RTC.h ****     #if((0u != CYDEV_WDT_GENERATE_ISR) && (0u == RTC_INITIAL_UPDATE_MODE))
 388:.\Generated_Source\PSoC4/RTC.h ****         static void RTC_CySysRtcSetCallback(uint32 wdtNumber);
 389:.\Generated_Source\PSoC4/RTC.h ****         static void RTC_CySysRtcResetCallback(uint32 wdtNumber);
 390:.\Generated_Source\PSoC4/RTC.h ****     #endif /* ((0u != CYDEV_WDT_GENERATE_ISR) && (0u == RTC_INITIAL_UPDATE_MODE)) */
 391:.\Generated_Source\PSoC4/RTC.h **** #endif /* (CYDEV_RTC_SOURCE_WDT) */
 392:.\Generated_Source\PSoC4/RTC.h **** 
 393:.\Generated_Source\PSoC4/RTC.h **** /*******************************************************************************
 394:.\Generated_Source\PSoC4/RTC.h **** * Function Name: RTC_IsBitSet
 395:.\Generated_Source\PSoC4/RTC.h **** ********************************************************************************
 396:.\Generated_Source\PSoC4/RTC.h **** *
 397:.\Generated_Source\PSoC4/RTC.h **** * Summary:
 398:.\Generated_Source\PSoC4/RTC.h **** *  Checks the state of a bit passed through parameter.
 399:.\Generated_Source\PSoC4/RTC.h **** *
 400:.\Generated_Source\PSoC4/RTC.h **** * Parameters:
 401:.\Generated_Source\PSoC4/RTC.h **** *  var:    The variable to be checked.
 402:.\Generated_Source\PSoC4/RTC.h **** *  mask:   The mask for a bit to be checked.
 403:.\Generated_Source\PSoC4/RTC.h **** *
 404:.\Generated_Source\PSoC4/RTC.h **** * Return:
 405:.\Generated_Source\PSoC4/RTC.h **** *  0u - Bit is not set.
 406:.\Generated_Source\PSoC4/RTC.h **** *  1u - Bit is set.
 407:.\Generated_Source\PSoC4/RTC.h **** *
 408:.\Generated_Source\PSoC4/RTC.h **** *******************************************************************************/
 409:.\Generated_Source\PSoC4/RTC.h **** static CY_INLINE uint32 RTC_IsBitSet(uint32 var, uint32 mask)
 410:.\Generated_Source\PSoC4/RTC.h **** {
 411:.\Generated_Source\PSoC4/RTC.h ****     return ((mask == (var & mask)) ? 1Lu : 0Lu);
 412:.\Generated_Source\PSoC4/RTC.h **** }
 413:.\Generated_Source\PSoC4/RTC.h **** 
 414:.\Generated_Source\PSoC4/RTC.h **** 
 415:.\Generated_Source\PSoC4/RTC.h **** /*******************************************************************************
 416:.\Generated_Source\PSoC4/RTC.h **** * Function Name: RTC_LeapYear
 417:.\Generated_Source\PSoC4/RTC.h **** ********************************************************************************
 418:.\Generated_Source\PSoC4/RTC.h **** *
 419:.\Generated_Source\PSoC4/RTC.h **** * Summary:
 420:.\Generated_Source\PSoC4/RTC.h **** * Checks whether the year passed through the parameter is
 421:.\Generated_Source\PSoC4/RTC.h **** * leap or no.
 422:.\Generated_Source\PSoC4/RTC.h **** *
 423:.\Generated_Source\PSoC4/RTC.h **** * Parameters:
 424:.\Generated_Source\PSoC4/RTC.h **** *  year: The year to be checked.
 425:.\Generated_Source\PSoC4/RTC.h **** *
 426:.\Generated_Source\PSoC4/RTC.h **** *
 427:.\Generated_Source\PSoC4/RTC.h **** * Return:
 428:.\Generated_Source\PSoC4/RTC.h **** *  0u - The year is not leap.
 429:.\Generated_Source\PSoC4/RTC.h **** *  1u - The year is leap.
 430:.\Generated_Source\PSoC4/RTC.h **** *
 431:.\Generated_Source\PSoC4/RTC.h **** *******************************************************************************/
ARM GAS  C:\Users\Vitali\AppData\Local\Temp\ccu81yp2.s 			page 9


 432:.\Generated_Source\PSoC4/RTC.h **** static CY_INLINE uint32 RTC_LeapYear(uint32 year)
 433:.\Generated_Source\PSoC4/RTC.h **** {
  26              		.loc 1 433 0
  27              		.cfi_startproc
  28              	.LVL0:
  29 0000 10B5     		push	{r4, lr}
  30              		.cfi_def_cfa_offset 8
  31              		.cfi_offset 4, -8
  32              		.cfi_offset 14, -4
  33              		.loc 1 433 0
  34 0002 041C     		mov	r4, r0
 434:.\Generated_Source\PSoC4/RTC.h ****     uint32 retVal;
 435:.\Generated_Source\PSoC4/RTC.h **** 
 436:.\Generated_Source\PSoC4/RTC.h ****     if(((0u == (year % 4Lu)) && (0u != (year % 100Lu))) || (0u == (year % 400Lu)))
  35              		.loc 1 436 0
  36 0004 8307     		lsl	r3, r0, #30
  37 0006 05D1     		bne	.L2
  38              		.loc 1 436 0 is_stmt 0 discriminator 1
  39 0008 6421     		mov	r1, #100
  40 000a FFF7FEFF 		bl	__aeabi_uidivmod
  41              	.LVL1:
 437:.\Generated_Source\PSoC4/RTC.h ****     {
 438:.\Generated_Source\PSoC4/RTC.h ****         retVal = 1uL;
  42              		.loc 1 438 0 is_stmt 1 discriminator 1
  43 000e 0120     		mov	r0, #1
 436:.\Generated_Source\PSoC4/RTC.h ****     {
  44              		.loc 1 436 0 discriminator 1
  45 0010 0029     		cmp	r1, #0
  46 0012 06D1     		bne	.L3
  47              	.L2:
 436:.\Generated_Source\PSoC4/RTC.h ****     {
  48              		.loc 1 436 0 is_stmt 0 discriminator 3
  49 0014 C821     		mov	r1, #200
  50 0016 201C     		mov	r0, r4
  51 0018 4900     		lsl	r1, r1, #1
  52 001a FFF7FEFF 		bl	__aeabi_uidivmod
  53              	.LVL2:
  54              		.loc 1 438 0 is_stmt 1 discriminator 3
  55 001e 4842     		neg	r0, r1
  56 0020 4841     		adc	r0, r0, r1
  57              	.L3:
  58              	.LVL3:
 439:.\Generated_Source\PSoC4/RTC.h ****     }
 440:.\Generated_Source\PSoC4/RTC.h ****     else
 441:.\Generated_Source\PSoC4/RTC.h ****     {
 442:.\Generated_Source\PSoC4/RTC.h ****         retVal = 0uL;
 443:.\Generated_Source\PSoC4/RTC.h ****     }
 444:.\Generated_Source\PSoC4/RTC.h **** 
 445:.\Generated_Source\PSoC4/RTC.h ****     return(retVal);
 446:.\Generated_Source\PSoC4/RTC.h **** }
  59              		.loc 1 446 0
  60              		@ sp needed
  61              	.LVL4:
  62 0022 10BD     		pop	{r4, pc}
  63              		.cfi_endproc
  64              	.LFE1:
  65              		.size	RTC_LeapYear, .-RTC_LeapYear
ARM GAS  C:\Users\Vitali\AppData\Local\Temp\ccu81yp2.s 			page 10


  66              		.section	.text.RTC_GetMinutes,"ax",%progbits
  67              		.align	1
  68              		.code	16
  69              		.thumb_func
  70              		.type	RTC_GetMinutes, %function
  71              	RTC_GetMinutes:
  72              	.LFB3:
 447:.\Generated_Source\PSoC4/RTC.h **** 
 448:.\Generated_Source\PSoC4/RTC.h **** 
 449:.\Generated_Source\PSoC4/RTC.h **** /*******************************************************************************
 450:.\Generated_Source\PSoC4/RTC.h **** * Function Name: RTC_GetSecond
 451:.\Generated_Source\PSoC4/RTC.h **** ********************************************************************************
 452:.\Generated_Source\PSoC4/RTC.h **** *
 453:.\Generated_Source\PSoC4/RTC.h **** * Summary:
 454:.\Generated_Source\PSoC4/RTC.h **** *  Returns the seconds value from the time value that is passed as a/the parameter.
 455:.\Generated_Source\PSoC4/RTC.h **** *
 456:.\Generated_Source\PSoC4/RTC.h **** * Parameters:
 457:.\Generated_Source\PSoC4/RTC.h **** *  time: The time value.
 458:.\Generated_Source\PSoC4/RTC.h **** *
 459:.\Generated_Source\PSoC4/RTC.h **** * Return:
 460:.\Generated_Source\PSoC4/RTC.h **** *  The seconds value.
 461:.\Generated_Source\PSoC4/RTC.h **** *
 462:.\Generated_Source\PSoC4/RTC.h **** *******************************************************************************/
 463:.\Generated_Source\PSoC4/RTC.h **** static CY_INLINE uint32 RTC_GetSecond(uint32 inputTime)
 464:.\Generated_Source\PSoC4/RTC.h **** {
 465:.\Generated_Source\PSoC4/RTC.h ****     uint32 retVal;
 466:.\Generated_Source\PSoC4/RTC.h **** 
 467:.\Generated_Source\PSoC4/RTC.h ****     retVal  = ((inputTime & RTC_10_SECONDS_MASK) >> RTC_10_SECONDS_OFFSET) * 10u;
 468:.\Generated_Source\PSoC4/RTC.h ****     retVal += (inputTime & RTC_SECONDS_MASK) >> RTC_SECONDS_OFFSET;
 469:.\Generated_Source\PSoC4/RTC.h **** 
 470:.\Generated_Source\PSoC4/RTC.h ****     return (retVal);
 471:.\Generated_Source\PSoC4/RTC.h **** }
 472:.\Generated_Source\PSoC4/RTC.h **** 
 473:.\Generated_Source\PSoC4/RTC.h **** 
 474:.\Generated_Source\PSoC4/RTC.h **** /*******************************************************************************
 475:.\Generated_Source\PSoC4/RTC.h **** * Function Name: RTC_GetMinutes
 476:.\Generated_Source\PSoC4/RTC.h **** ********************************************************************************
 477:.\Generated_Source\PSoC4/RTC.h **** *
 478:.\Generated_Source\PSoC4/RTC.h **** * Summary:
 479:.\Generated_Source\PSoC4/RTC.h **** *  Returns the minutes value from the time value that is passed as a/the parameter.
 480:.\Generated_Source\PSoC4/RTC.h **** *
 481:.\Generated_Source\PSoC4/RTC.h **** * Parameters:
 482:.\Generated_Source\PSoC4/RTC.h **** *  time: The time value.
 483:.\Generated_Source\PSoC4/RTC.h **** *
 484:.\Generated_Source\PSoC4/RTC.h **** * Return:
 485:.\Generated_Source\PSoC4/RTC.h **** *  The minutes value.
 486:.\Generated_Source\PSoC4/RTC.h **** *
 487:.\Generated_Source\PSoC4/RTC.h **** *******************************************************************************/
 488:.\Generated_Source\PSoC4/RTC.h **** static CY_INLINE uint32 RTC_GetMinutes(uint32 inputTime)
 489:.\Generated_Source\PSoC4/RTC.h **** {
  73              		.loc 1 489 0
  74              		.cfi_startproc
  75              	.LVL5:
 490:.\Generated_Source\PSoC4/RTC.h ****     uint32 retVal;
 491:.\Generated_Source\PSoC4/RTC.h **** 
 492:.\Generated_Source\PSoC4/RTC.h ****     retVal  = ((inputTime & RTC_10_MINUTES_MASK) >> RTC_10_MINUTES_OFFSET) * 10u;
  76              		.loc 1 492 0
ARM GAS  C:\Users\Vitali\AppData\Local\Temp\ccu81yp2.s 			page 11


  77 0000 0A22     		mov	r2, #10
  78 0002 4304     		lsl	r3, r0, #17
  79 0004 5B0F     		lsr	r3, r3, #29
  80 0006 5343     		mul	r3, r2
  81              	.LVL6:
 493:.\Generated_Source\PSoC4/RTC.h ****     retVal += (inputTime & RTC_MINUTES_MASK) >> RTC_MINUTES_OFFSET;
  82              		.loc 1 493 0
  83 0008 0005     		lsl	r0, r0, #20
  84              	.LVL7:
  85 000a 000F     		lsr	r0, r0, #28
  86 000c 1818     		add	r0, r3, r0
 494:.\Generated_Source\PSoC4/RTC.h **** 
 495:.\Generated_Source\PSoC4/RTC.h ****     return (retVal);
 496:.\Generated_Source\PSoC4/RTC.h **** }
  87              		.loc 1 496 0
  88              		@ sp needed
  89 000e 7047     		bx	lr
  90              		.cfi_endproc
  91              	.LFE3:
  92              		.size	RTC_GetMinutes, .-RTC_GetMinutes
  93              		.section	.text.RTC_GetHours,"ax",%progbits
  94              		.align	1
  95              		.code	16
  96              		.thumb_func
  97              		.type	RTC_GetHours, %function
  98              	RTC_GetHours:
  99              	.LFB4:
 497:.\Generated_Source\PSoC4/RTC.h **** 
 498:.\Generated_Source\PSoC4/RTC.h **** 
 499:.\Generated_Source\PSoC4/RTC.h **** /*******************************************************************************
 500:.\Generated_Source\PSoC4/RTC.h **** * Function Name: RTC_GetHours
 501:.\Generated_Source\PSoC4/RTC.h **** ********************************************************************************
 502:.\Generated_Source\PSoC4/RTC.h **** *
 503:.\Generated_Source\PSoC4/RTC.h **** * Summary:
 504:.\Generated_Source\PSoC4/RTC.h **** *  Returns the hours value from the time value that is passed as a/the parameter.
 505:.\Generated_Source\PSoC4/RTC.h **** *
 506:.\Generated_Source\PSoC4/RTC.h **** * Parameters:
 507:.\Generated_Source\PSoC4/RTC.h **** *  time: The time value.
 508:.\Generated_Source\PSoC4/RTC.h **** *
 509:.\Generated_Source\PSoC4/RTC.h **** * Return:
 510:.\Generated_Source\PSoC4/RTC.h **** *  Th ehours value.
 511:.\Generated_Source\PSoC4/RTC.h **** *
 512:.\Generated_Source\PSoC4/RTC.h **** *******************************************************************************/
 513:.\Generated_Source\PSoC4/RTC.h **** static CY_INLINE uint32 RTC_GetHours(uint32 inputTime)
 514:.\Generated_Source\PSoC4/RTC.h **** {
 100              		.loc 1 514 0
 101              		.cfi_startproc
 102              	.LVL8:
 515:.\Generated_Source\PSoC4/RTC.h ****     uint32 retVal;
 516:.\Generated_Source\PSoC4/RTC.h **** 
 517:.\Generated_Source\PSoC4/RTC.h ****     retVal  = ((inputTime & RTC_10_HOURS_MASK) >> RTC_10_HOURS_OFFSET) * 10u;
 103              		.loc 1 517 0
 104 0000 0A22     		mov	r2, #10
 105 0002 8302     		lsl	r3, r0, #10
 106 0004 9B0F     		lsr	r3, r3, #30
 107 0006 5343     		mul	r3, r2
 108              	.LVL9:
ARM GAS  C:\Users\Vitali\AppData\Local\Temp\ccu81yp2.s 			page 12


 518:.\Generated_Source\PSoC4/RTC.h ****     retVal += (inputTime & RTC_HOURS_MASK) >> RTC_HOURS_OFFSET;
 109              		.loc 1 518 0
 110 0008 0003     		lsl	r0, r0, #12
 111              	.LVL10:
 112 000a 000F     		lsr	r0, r0, #28
 113 000c 1818     		add	r0, r3, r0
 519:.\Generated_Source\PSoC4/RTC.h **** 
 520:.\Generated_Source\PSoC4/RTC.h ****     return (retVal);
 521:.\Generated_Source\PSoC4/RTC.h **** }
 114              		.loc 1 521 0
 115              		@ sp needed
 116 000e 7047     		bx	lr
 117              		.cfi_endproc
 118              	.LFE4:
 119              		.size	RTC_GetHours, .-RTC_GetHours
 120              		.section	.text.RTC_GetDay,"ax",%progbits
 121              		.align	1
 122              		.code	16
 123              		.thumb_func
 124              		.type	RTC_GetDay, %function
 125              	RTC_GetDay:
 126              	.LFB6:
 522:.\Generated_Source\PSoC4/RTC.h **** 
 523:.\Generated_Source\PSoC4/RTC.h **** 
 524:.\Generated_Source\PSoC4/RTC.h **** /*******************************************************************************
 525:.\Generated_Source\PSoC4/RTC.h **** * Function Name: RTC_GetAmPm
 526:.\Generated_Source\PSoC4/RTC.h **** ********************************************************************************
 527:.\Generated_Source\PSoC4/RTC.h **** *
 528:.\Generated_Source\PSoC4/RTC.h **** * Summary:
 529:.\Generated_Source\PSoC4/RTC.h **** *  Returns the AM/PM status from the time value that is passed as a/the parameter. ?
 530:.\Generated_Source\PSoC4/RTC.h **** *
 531:.\Generated_Source\PSoC4/RTC.h **** * Parameters:
 532:.\Generated_Source\PSoC4/RTC.h **** *  time: The time value.
 533:.\Generated_Source\PSoC4/RTC.h **** *
 534:.\Generated_Source\PSoC4/RTC.h **** * Return:
 535:.\Generated_Source\PSoC4/RTC.h **** *  RTC_AM - AM.
 536:.\Generated_Source\PSoC4/RTC.h **** *  RTC_PM - PM.
 537:.\Generated_Source\PSoC4/RTC.h **** *
 538:.\Generated_Source\PSoC4/RTC.h **** *******************************************************************************/
 539:.\Generated_Source\PSoC4/RTC.h **** static CY_INLINE uint32 RTC_GetAmPm(uint32 inputTime)
 540:.\Generated_Source\PSoC4/RTC.h **** {
 541:.\Generated_Source\PSoC4/RTC.h ****     return (RTC_IsBitSet(inputTime, RTC_PERIOD_OF_DAY_MASK));
 542:.\Generated_Source\PSoC4/RTC.h **** }
 543:.\Generated_Source\PSoC4/RTC.h **** 
 544:.\Generated_Source\PSoC4/RTC.h **** 
 545:.\Generated_Source\PSoC4/RTC.h **** /*******************************************************************************
 546:.\Generated_Source\PSoC4/RTC.h **** * Function Name: RTC_GetDay
 547:.\Generated_Source\PSoC4/RTC.h **** ********************************************************************************
 548:.\Generated_Source\PSoC4/RTC.h **** *
 549:.\Generated_Source\PSoC4/RTC.h **** * Summary:
 550:.\Generated_Source\PSoC4/RTC.h **** *  Returns the day value from the date value that is passed as a/the parameter.  ?
 551:.\Generated_Source\PSoC4/RTC.h **** *
 552:.\Generated_Source\PSoC4/RTC.h **** * Parameters:
 553:.\Generated_Source\PSoC4/RTC.h **** *  date: The date value.
 554:.\Generated_Source\PSoC4/RTC.h **** *
 555:.\Generated_Source\PSoC4/RTC.h **** * Return:
 556:.\Generated_Source\PSoC4/RTC.h **** *  The day value.
ARM GAS  C:\Users\Vitali\AppData\Local\Temp\ccu81yp2.s 			page 13


 557:.\Generated_Source\PSoC4/RTC.h **** *
 558:.\Generated_Source\PSoC4/RTC.h **** *******************************************************************************/
 559:.\Generated_Source\PSoC4/RTC.h **** static CY_INLINE uint32 RTC_GetDay(uint32 date)
 560:.\Generated_Source\PSoC4/RTC.h **** {
 127              		.loc 1 560 0
 128              		.cfi_startproc
 129              	.LVL11:
 561:.\Generated_Source\PSoC4/RTC.h ****     uint32 retVal;
 562:.\Generated_Source\PSoC4/RTC.h **** 
 563:.\Generated_Source\PSoC4/RTC.h ****     retVal  = ((date & RTC_10_DAY_MASK) >> RTC_10_DAY_OFFSET) * 10u;
 130              		.loc 1 563 0
 131 0000 0A22     		mov	r2, #10
 132 0002 8302     		lsl	r3, r0, #10
 133 0004 9B0F     		lsr	r3, r3, #30
 134 0006 5343     		mul	r3, r2
 135              	.LVL12:
 564:.\Generated_Source\PSoC4/RTC.h ****     retVal += (date & RTC_DAY_MASK) >> RTC_DAY_OFFSET;
 136              		.loc 1 564 0
 137 0008 0003     		lsl	r0, r0, #12
 138              	.LVL13:
 139 000a 000F     		lsr	r0, r0, #28
 140 000c 1818     		add	r0, r3, r0
 565:.\Generated_Source\PSoC4/RTC.h **** 
 566:.\Generated_Source\PSoC4/RTC.h ****     return (retVal);
 567:.\Generated_Source\PSoC4/RTC.h **** }
 141              		.loc 1 567 0
 142              		@ sp needed
 143 000e 7047     		bx	lr
 144              		.cfi_endproc
 145              	.LFE6:
 146              		.size	RTC_GetDay, .-RTC_GetDay
 147              		.section	.text.RTC_GetMonth,"ax",%progbits
 148              		.align	1
 149              		.code	16
 150              		.thumb_func
 151              		.type	RTC_GetMonth, %function
 152              	RTC_GetMonth:
 153              	.LFB7:
 568:.\Generated_Source\PSoC4/RTC.h **** 
 569:.\Generated_Source\PSoC4/RTC.h **** 
 570:.\Generated_Source\PSoC4/RTC.h **** /*******************************************************************************
 571:.\Generated_Source\PSoC4/RTC.h **** * Function Name: RTC_GetMonth
 572:.\Generated_Source\PSoC4/RTC.h **** ********************************************************************************
 573:.\Generated_Source\PSoC4/RTC.h **** *
 574:.\Generated_Source\PSoC4/RTC.h **** * Summary:
 575:.\Generated_Source\PSoC4/RTC.h **** *  Returns the month value from the date value that is passed as a/the parameter.
 576:.\Generated_Source\PSoC4/RTC.h **** *
 577:.\Generated_Source\PSoC4/RTC.h **** * Parameters:
 578:.\Generated_Source\PSoC4/RTC.h **** *  date: The date value.
 579:.\Generated_Source\PSoC4/RTC.h **** *
 580:.\Generated_Source\PSoC4/RTC.h **** * Return:
 581:.\Generated_Source\PSoC4/RTC.h **** *  The month value.
 582:.\Generated_Source\PSoC4/RTC.h **** *
 583:.\Generated_Source\PSoC4/RTC.h **** *******************************************************************************/
 584:.\Generated_Source\PSoC4/RTC.h **** static CY_INLINE uint32 RTC_GetMonth(uint32 date)
 585:.\Generated_Source\PSoC4/RTC.h **** {
 154              		.loc 1 585 0
ARM GAS  C:\Users\Vitali\AppData\Local\Temp\ccu81yp2.s 			page 14


 155              		.cfi_startproc
 156              	.LVL14:
 586:.\Generated_Source\PSoC4/RTC.h ****     uint32 retVal;
 587:.\Generated_Source\PSoC4/RTC.h **** 
 588:.\Generated_Source\PSoC4/RTC.h ****     retVal  = ((date & RTC_10_MONTH_MASK) >> RTC_10_MONTH_OFFSET) * 10u;
 157              		.loc 1 588 0
 158 0000 0A22     		mov	r2, #10
 159 0002 C300     		lsl	r3, r0, #3
 160 0004 DB0F     		lsr	r3, r3, #31
 161 0006 5343     		mul	r3, r2
 162              	.LVL15:
 589:.\Generated_Source\PSoC4/RTC.h ****     retVal += (date & RTC_MONTH_MASK) >> RTC_MONTH_OFFSET;
 163              		.loc 1 589 0
 164 0008 0001     		lsl	r0, r0, #4
 165              	.LVL16:
 166 000a 000F     		lsr	r0, r0, #28
 167 000c 1818     		add	r0, r3, r0
 590:.\Generated_Source\PSoC4/RTC.h **** 
 591:.\Generated_Source\PSoC4/RTC.h ****     return (retVal);
 592:.\Generated_Source\PSoC4/RTC.h **** }
 168              		.loc 1 592 0
 169              		@ sp needed
 170 000e 7047     		bx	lr
 171              		.cfi_endproc
 172              	.LFE7:
 173              		.size	RTC_GetMonth, .-RTC_GetMonth
 174              		.section	.text.RTC_GetYear,"ax",%progbits
 175              		.align	1
 176              		.code	16
 177              		.thumb_func
 178              		.type	RTC_GetYear, %function
 179              	RTC_GetYear:
 180              	.LFB8:
 593:.\Generated_Source\PSoC4/RTC.h **** 
 594:.\Generated_Source\PSoC4/RTC.h **** 
 595:.\Generated_Source\PSoC4/RTC.h **** /*******************************************************************************
 596:.\Generated_Source\PSoC4/RTC.h **** * Function Name: RTC_GetYear
 597:.\Generated_Source\PSoC4/RTC.h **** ********************************************************************************
 598:.\Generated_Source\PSoC4/RTC.h **** *
 599:.\Generated_Source\PSoC4/RTC.h **** * Summary:
 600:.\Generated_Source\PSoC4/RTC.h **** *  Returns the year value from the date value that is passed as a/the parameter.?
 601:.\Generated_Source\PSoC4/RTC.h **** *
 602:.\Generated_Source\PSoC4/RTC.h **** * Parameters:
 603:.\Generated_Source\PSoC4/RTC.h **** *  date: The date value.
 604:.\Generated_Source\PSoC4/RTC.h **** *
 605:.\Generated_Source\PSoC4/RTC.h **** * Return:
 606:.\Generated_Source\PSoC4/RTC.h **** *  The year value.
 607:.\Generated_Source\PSoC4/RTC.h **** *
 608:.\Generated_Source\PSoC4/RTC.h **** *******************************************************************************/
 609:.\Generated_Source\PSoC4/RTC.h **** static CY_INLINE uint32 RTC_GetYear(uint32 date)
 610:.\Generated_Source\PSoC4/RTC.h **** {
 181              		.loc 1 610 0
 182              		.cfi_startproc
 183              	.LVL17:
 611:.\Generated_Source\PSoC4/RTC.h ****     uint32 retVal;
 612:.\Generated_Source\PSoC4/RTC.h **** 
 613:.\Generated_Source\PSoC4/RTC.h ****     retVal  = ((date & RTC_1000_YEAR_MASK) >> RTC_1000_YEAR_OFFSET) * 1000u;
ARM GAS  C:\Users\Vitali\AppData\Local\Temp\ccu81yp2.s 			page 15


 184              		.loc 1 613 0
 185 0000 FA21     		mov	r1, #250
 186 0002 8304     		lsl	r3, r0, #18
 187 0004 9B0F     		lsr	r3, r3, #30
 188 0006 8900     		lsl	r1, r1, #2
 189 0008 5943     		mul	r1, r3
 610:.\Generated_Source\PSoC4/RTC.h ****     uint32 retVal;
 190              		.loc 1 610 0
 191 000a 10B5     		push	{r4, lr}
 192              		.cfi_def_cfa_offset 8
 193              		.cfi_offset 4, -8
 194              		.cfi_offset 14, -4
 195              		.loc 1 613 0
 196 000c 0C1C     		mov	r4, r1
 197              	.LVL18:
 614:.\Generated_Source\PSoC4/RTC.h ****     retVal += ((date & RTC_100_YEAR_MASK) >> RTC_100_YEAR_OFFSET) * 100u;
 198              		.loc 1 614 0
 199 000e 6421     		mov	r1, #100
 200              	.LVL19:
 615:.\Generated_Source\PSoC4/RTC.h ****     retVal += ((date & RTC_10_YEAR_MASK) >> RTC_10_YEAR_OFFSET) * 10u;
 616:.\Generated_Source\PSoC4/RTC.h ****     retVal += (date & RTC_YEAR_MASK) >> RTC_YEAR_OFFSET;
 201              		.loc 1 616 0
 202 0010 0F22     		mov	r2, #15
 614:.\Generated_Source\PSoC4/RTC.h ****     retVal += ((date & RTC_100_YEAR_MASK) >> RTC_100_YEAR_OFFSET) * 100u;
 203              		.loc 1 614 0
 204 0012 0305     		lsl	r3, r0, #20
 205 0014 1B0F     		lsr	r3, r3, #28
 206 0016 4B43     		mul	r3, r1
 207              		.loc 1 616 0
 208 0018 0240     		and	r2, r0
 614:.\Generated_Source\PSoC4/RTC.h ****     retVal += ((date & RTC_100_YEAR_MASK) >> RTC_100_YEAR_OFFSET) * 100u;
 209              		.loc 1 614 0
 210 001a E318     		add	r3, r4, r3
 211 001c 9A18     		add	r2, r3, r2
 212              	.LVL20:
 615:.\Generated_Source\PSoC4/RTC.h ****     retVal += ((date & RTC_10_YEAR_MASK) >> RTC_10_YEAR_OFFSET) * 10u;
 213              		.loc 1 615 0
 214 001e 0A23     		mov	r3, #10
 215 0020 0006     		lsl	r0, r0, #24
 216              	.LVL21:
 217 0022 000F     		lsr	r0, r0, #28
 218 0024 5843     		mul	r0, r3
 617:.\Generated_Source\PSoC4/RTC.h **** 
 618:.\Generated_Source\PSoC4/RTC.h ****     return (retVal);
 619:.\Generated_Source\PSoC4/RTC.h **** }
 219              		.loc 1 619 0
 220              		@ sp needed
 616:.\Generated_Source\PSoC4/RTC.h **** 
 221              		.loc 1 616 0
 222 0026 1018     		add	r0, r2, r0
 223              		.loc 1 619 0
 224 0028 10BD     		pop	{r4, pc}
 225              		.cfi_endproc
 226              	.LFE8:
 227              		.size	RTC_GetYear, .-RTC_GetYear
 228              		.global	__aeabi_uidiv
 229              		.section	.text.RTC_SetYear,"ax",%progbits
ARM GAS  C:\Users\Vitali\AppData\Local\Temp\ccu81yp2.s 			page 16


 230              		.align	1
 231              		.code	16
 232              		.thumb_func
 233              		.type	RTC_SetYear, %function
 234              	RTC_SetYear:
 235              	.LFB15:
 620:.\Generated_Source\PSoC4/RTC.h **** 
 621:.\Generated_Source\PSoC4/RTC.h **** 
 622:.\Generated_Source\PSoC4/RTC.h **** /*******************************************************************************
 623:.\Generated_Source\PSoC4/RTC.h **** * Function Name: RTC_SetSecond
 624:.\Generated_Source\PSoC4/RTC.h **** ********************************************************************************
 625:.\Generated_Source\PSoC4/RTC.h **** *
 626:.\Generated_Source\PSoC4/RTC.h **** * Summary:
 627:.\Generated_Source\PSoC4/RTC.h **** *  Updates the time with the new second value.
 628:.\Generated_Source\PSoC4/RTC.h **** *
 629:.\Generated_Source\PSoC4/RTC.h **** * Parameters:
 630:.\Generated_Source\PSoC4/RTC.h **** *  time: The current date.
 631:.\Generated_Source\PSoC4/RTC.h **** *  second: The seconds value to be set to the time variable.
 632:.\Generated_Source\PSoC4/RTC.h **** *
 633:.\Generated_Source\PSoC4/RTC.h **** * Return:
 634:.\Generated_Source\PSoC4/RTC.h **** *  The updated time variable.
 635:.\Generated_Source\PSoC4/RTC.h **** *
 636:.\Generated_Source\PSoC4/RTC.h **** *******************************************************************************/
 637:.\Generated_Source\PSoC4/RTC.h **** static CY_INLINE uint32 RTC_SetSecond(uint32 inputTime, uint32 inputSecond)
 638:.\Generated_Source\PSoC4/RTC.h **** {
 639:.\Generated_Source\PSoC4/RTC.h ****     inputTime &= ~(RTC_SECONDS_FULL_MASK);
 640:.\Generated_Source\PSoC4/RTC.h **** 
 641:.\Generated_Source\PSoC4/RTC.h ****     inputTime |= (inputSecond / 10u) << RTC_10_SECONDS_OFFSET;
 642:.\Generated_Source\PSoC4/RTC.h ****     inputTime |= (inputSecond % 10u) << RTC_SECONDS_OFFSET;
 643:.\Generated_Source\PSoC4/RTC.h **** 
 644:.\Generated_Source\PSoC4/RTC.h ****     return(inputTime);
 645:.\Generated_Source\PSoC4/RTC.h **** }
 646:.\Generated_Source\PSoC4/RTC.h **** 
 647:.\Generated_Source\PSoC4/RTC.h **** 
 648:.\Generated_Source\PSoC4/RTC.h **** /*******************************************************************************
 649:.\Generated_Source\PSoC4/RTC.h **** * Function Name: RTC_SetMinutes
 650:.\Generated_Source\PSoC4/RTC.h **** ********************************************************************************
 651:.\Generated_Source\PSoC4/RTC.h **** *
 652:.\Generated_Source\PSoC4/RTC.h **** * Summary:
 653:.\Generated_Source\PSoC4/RTC.h **** *  Updates the time with the new minute value.
 654:.\Generated_Source\PSoC4/RTC.h **** *
 655:.\Generated_Source\PSoC4/RTC.h **** * Parameters:
 656:.\Generated_Source\PSoC4/RTC.h **** *  time: The current date.
 657:.\Generated_Source\PSoC4/RTC.h **** *  minutes: The minutes value to be set to the time variable.
 658:.\Generated_Source\PSoC4/RTC.h **** *
 659:.\Generated_Source\PSoC4/RTC.h **** * Return:
 660:.\Generated_Source\PSoC4/RTC.h **** *  The updated time variable.
 661:.\Generated_Source\PSoC4/RTC.h **** *
 662:.\Generated_Source\PSoC4/RTC.h **** *******************************************************************************/
 663:.\Generated_Source\PSoC4/RTC.h **** static CY_INLINE uint32 RTC_SetMinutes(uint32 inputTime, uint32 inputMinute)
 664:.\Generated_Source\PSoC4/RTC.h **** {
 665:.\Generated_Source\PSoC4/RTC.h ****     inputTime &= ~(RTC_MINUTES_FULL_MASK);
 666:.\Generated_Source\PSoC4/RTC.h **** 
 667:.\Generated_Source\PSoC4/RTC.h ****     inputTime |= (inputMinute / 10u) << RTC_10_MINUTES_OFFSET;
 668:.\Generated_Source\PSoC4/RTC.h ****     inputTime |= (inputMinute % 10u) << RTC_MINUTES_OFFSET;
 669:.\Generated_Source\PSoC4/RTC.h **** 
 670:.\Generated_Source\PSoC4/RTC.h ****     return(inputTime);
ARM GAS  C:\Users\Vitali\AppData\Local\Temp\ccu81yp2.s 			page 17


 671:.\Generated_Source\PSoC4/RTC.h **** }
 672:.\Generated_Source\PSoC4/RTC.h **** 
 673:.\Generated_Source\PSoC4/RTC.h **** 
 674:.\Generated_Source\PSoC4/RTC.h **** /*******************************************************************************
 675:.\Generated_Source\PSoC4/RTC.h **** * Function Name: RTC_SetHours
 676:.\Generated_Source\PSoC4/RTC.h **** ********************************************************************************
 677:.\Generated_Source\PSoC4/RTC.h **** *
 678:.\Generated_Source\PSoC4/RTC.h **** * Summary:
 679:.\Generated_Source\PSoC4/RTC.h **** *  Updates the time with the new hour value.
 680:.\Generated_Source\PSoC4/RTC.h **** *
 681:.\Generated_Source\PSoC4/RTC.h **** * Parameters:
 682:.\Generated_Source\PSoC4/RTC.h **** *  time: The current date.
 683:.\Generated_Source\PSoC4/RTC.h **** *  hours: The hours value to be set to the time variable.
 684:.\Generated_Source\PSoC4/RTC.h **** *
 685:.\Generated_Source\PSoC4/RTC.h **** * Return:
 686:.\Generated_Source\PSoC4/RTC.h **** *  The updated time variable.
 687:.\Generated_Source\PSoC4/RTC.h **** *
 688:.\Generated_Source\PSoC4/RTC.h **** *******************************************************************************/
 689:.\Generated_Source\PSoC4/RTC.h **** static CY_INLINE uint32 RTC_SetHours(uint32 inputTime, uint32 inputHours)
 690:.\Generated_Source\PSoC4/RTC.h **** {
 691:.\Generated_Source\PSoC4/RTC.h ****     inputTime &= ~(RTC_HOURS_FULL_MASK);
 692:.\Generated_Source\PSoC4/RTC.h **** 
 693:.\Generated_Source\PSoC4/RTC.h ****     inputTime |= (inputHours / 10u) << RTC_10_HOURS_OFFSET;
 694:.\Generated_Source\PSoC4/RTC.h ****     inputTime |= (inputHours % 10u) << RTC_HOURS_OFFSET;
 695:.\Generated_Source\PSoC4/RTC.h **** 
 696:.\Generated_Source\PSoC4/RTC.h ****     return(inputTime);
 697:.\Generated_Source\PSoC4/RTC.h **** }
 698:.\Generated_Source\PSoC4/RTC.h **** 
 699:.\Generated_Source\PSoC4/RTC.h **** 
 700:.\Generated_Source\PSoC4/RTC.h **** /*******************************************************************************
 701:.\Generated_Source\PSoC4/RTC.h **** * Function Name: RTC_SetAmPm
 702:.\Generated_Source\PSoC4/RTC.h **** ********************************************************************************
 703:.\Generated_Source\PSoC4/RTC.h **** *
 704:.\Generated_Source\PSoC4/RTC.h **** * Summary:
 705:.\Generated_Source\PSoC4/RTC.h **** *  Updates the time variable with the AmPm status.
 706:.\Generated_Source\PSoC4/RTC.h **** *
 707:.\Generated_Source\PSoC4/RTC.h **** * Parameters:
 708:.\Generated_Source\PSoC4/RTC.h **** *  time: The current date.
 709:.\Generated_Source\PSoC4/RTC.h **** *  periodOfDay: The AmPm status to be set to the time variable.
 710:.\Generated_Source\PSoC4/RTC.h **** *
 711:.\Generated_Source\PSoC4/RTC.h **** * Return:
 712:.\Generated_Source\PSoC4/RTC.h **** *  The updated time variable.
 713:.\Generated_Source\PSoC4/RTC.h **** *
 714:.\Generated_Source\PSoC4/RTC.h **** *******************************************************************************/
 715:.\Generated_Source\PSoC4/RTC.h **** static CY_INLINE uint32 RTC_SetAmPm(uint32 inputTime, uint32 periodOfDay)
 716:.\Generated_Source\PSoC4/RTC.h **** {
 717:.\Generated_Source\PSoC4/RTC.h ****     if(0u != periodOfDay)
 718:.\Generated_Source\PSoC4/RTC.h ****     {
 719:.\Generated_Source\PSoC4/RTC.h ****         inputTime &= ~(RTC_PERIOD_OF_DAY_MASK);
 720:.\Generated_Source\PSoC4/RTC.h ****     }
 721:.\Generated_Source\PSoC4/RTC.h ****     else
 722:.\Generated_Source\PSoC4/RTC.h ****     {
 723:.\Generated_Source\PSoC4/RTC.h ****         inputTime |= RTC_PERIOD_OF_DAY_MASK;
 724:.\Generated_Source\PSoC4/RTC.h ****     }
 725:.\Generated_Source\PSoC4/RTC.h **** 
 726:.\Generated_Source\PSoC4/RTC.h ****     return(inputTime);
 727:.\Generated_Source\PSoC4/RTC.h **** }
ARM GAS  C:\Users\Vitali\AppData\Local\Temp\ccu81yp2.s 			page 18


 728:.\Generated_Source\PSoC4/RTC.h **** 
 729:.\Generated_Source\PSoC4/RTC.h **** 
 730:.\Generated_Source\PSoC4/RTC.h **** /*******************************************************************************
 731:.\Generated_Source\PSoC4/RTC.h **** * Function Name: RTC_SetDay
 732:.\Generated_Source\PSoC4/RTC.h **** ********************************************************************************
 733:.\Generated_Source\PSoC4/RTC.h **** *
 734:.\Generated_Source\PSoC4/RTC.h **** * Summary:
 735:.\Generated_Source\PSoC4/RTC.h **** *  Updates the date variable with the new day value.
 736:.\Generated_Source\PSoC4/RTC.h **** *
 737:.\Generated_Source\PSoC4/RTC.h **** * Parameters:
 738:.\Generated_Source\PSoC4/RTC.h **** *  date: The current date.
 739:.\Generated_Source\PSoC4/RTC.h **** *  day: The month to be set to the date variable.
 740:.\Generated_Source\PSoC4/RTC.h **** *
 741:.\Generated_Source\PSoC4/RTC.h **** * Return:
 742:.\Generated_Source\PSoC4/RTC.h **** *  The updated date variable.
 743:.\Generated_Source\PSoC4/RTC.h **** *
 744:.\Generated_Source\PSoC4/RTC.h **** *******************************************************************************/
 745:.\Generated_Source\PSoC4/RTC.h **** static CY_INLINE uint32 RTC_SetDay(uint32 inputDate, uint32 inputDay)
 746:.\Generated_Source\PSoC4/RTC.h **** {
 747:.\Generated_Source\PSoC4/RTC.h ****     inputDate &= ~(RTC_DAY_FULL_MASK);
 748:.\Generated_Source\PSoC4/RTC.h **** 
 749:.\Generated_Source\PSoC4/RTC.h ****     inputDate |= (inputDay / 10u) << RTC_10_DAY_OFFSET;
 750:.\Generated_Source\PSoC4/RTC.h ****     inputDate |= (inputDay % 10u) << RTC_DAY_OFFSET;
 751:.\Generated_Source\PSoC4/RTC.h **** 
 752:.\Generated_Source\PSoC4/RTC.h ****     return(inputDate);
 753:.\Generated_Source\PSoC4/RTC.h **** }
 754:.\Generated_Source\PSoC4/RTC.h **** 
 755:.\Generated_Source\PSoC4/RTC.h **** 
 756:.\Generated_Source\PSoC4/RTC.h **** /*******************************************************************************
 757:.\Generated_Source\PSoC4/RTC.h **** * Function Name: RTC_SetMonth
 758:.\Generated_Source\PSoC4/RTC.h **** ********************************************************************************
 759:.\Generated_Source\PSoC4/RTC.h **** *
 760:.\Generated_Source\PSoC4/RTC.h **** * Summary:
 761:.\Generated_Source\PSoC4/RTC.h **** *  Updates the date variable with the new month value.
 762:.\Generated_Source\PSoC4/RTC.h **** *
 763:.\Generated_Source\PSoC4/RTC.h **** * Parameters:
 764:.\Generated_Source\PSoC4/RTC.h **** *  date: The current date.
 765:.\Generated_Source\PSoC4/RTC.h **** *  month: The month that to be set to the date variable.
 766:.\Generated_Source\PSoC4/RTC.h **** *
 767:.\Generated_Source\PSoC4/RTC.h **** * Return:
 768:.\Generated_Source\PSoC4/RTC.h **** *  The updated date variable.
 769:.\Generated_Source\PSoC4/RTC.h **** *
 770:.\Generated_Source\PSoC4/RTC.h **** *******************************************************************************/
 771:.\Generated_Source\PSoC4/RTC.h **** static CY_INLINE uint32 RTC_SetMonth(uint32 inputDate, uint32 inputMonth)
 772:.\Generated_Source\PSoC4/RTC.h **** {
 773:.\Generated_Source\PSoC4/RTC.h ****     inputDate &= ~(RTC_MONTH_FULL_MASK);
 774:.\Generated_Source\PSoC4/RTC.h **** 
 775:.\Generated_Source\PSoC4/RTC.h ****     inputDate |= (inputMonth / 10u) << RTC_10_MONTH_OFFSET;
 776:.\Generated_Source\PSoC4/RTC.h ****     inputDate |= (inputMonth % 10u) << RTC_MONTH_OFFSET;
 777:.\Generated_Source\PSoC4/RTC.h **** 
 778:.\Generated_Source\PSoC4/RTC.h ****     return(inputDate);
 779:.\Generated_Source\PSoC4/RTC.h **** }
 780:.\Generated_Source\PSoC4/RTC.h **** 
 781:.\Generated_Source\PSoC4/RTC.h **** 
 782:.\Generated_Source\PSoC4/RTC.h **** /*******************************************************************************
 783:.\Generated_Source\PSoC4/RTC.h **** * Function Name: RTC_SetYear
 784:.\Generated_Source\PSoC4/RTC.h **** ********************************************************************************
ARM GAS  C:\Users\Vitali\AppData\Local\Temp\ccu81yp2.s 			page 19


 785:.\Generated_Source\PSoC4/RTC.h **** *
 786:.\Generated_Source\PSoC4/RTC.h **** * Summary:
 787:.\Generated_Source\PSoC4/RTC.h **** *  Updates the date variable with the new year value.
 788:.\Generated_Source\PSoC4/RTC.h **** *
 789:.\Generated_Source\PSoC4/RTC.h **** * Parameters:
 790:.\Generated_Source\PSoC4/RTC.h **** *  date: The current date.
 791:.\Generated_Source\PSoC4/RTC.h **** *  year: The year to be set to the date variable.
 792:.\Generated_Source\PSoC4/RTC.h **** *
 793:.\Generated_Source\PSoC4/RTC.h **** * Return:
 794:.\Generated_Source\PSoC4/RTC.h **** *  The updated date variable.
 795:.\Generated_Source\PSoC4/RTC.h **** *
 796:.\Generated_Source\PSoC4/RTC.h **** *******************************************************************************/
 797:.\Generated_Source\PSoC4/RTC.h **** static CY_INLINE uint32 RTC_SetYear(uint32 inputDate, uint32 inputYear)
 798:.\Generated_Source\PSoC4/RTC.h **** {
 236              		.loc 1 798 0
 237              		.cfi_startproc
 238              	.LVL22:
 239 0000 F8B5     		push	{r3, r4, r5, r6, r7, lr}
 240              		.cfi_def_cfa_offset 24
 241              		.cfi_offset 3, -24
 242              		.cfi_offset 4, -20
 243              		.cfi_offset 5, -16
 244              		.cfi_offset 6, -12
 245              		.cfi_offset 7, -8
 246              		.cfi_offset 14, -4
 247              		.loc 1 798 0
 248 0002 0C1C     		mov	r4, r1
 249 0004 061C     		mov	r6, r0
 250              	.LVL23:
 799:.\Generated_Source\PSoC4/RTC.h ****     inputDate  &= ~(RTC_YEAR_FULL_MASK);
 800:.\Generated_Source\PSoC4/RTC.h **** 
 801:.\Generated_Source\PSoC4/RTC.h ****     inputDate |= (inputYear / 1000u) << RTC_1000_YEAR_OFFSET;
 802:.\Generated_Source\PSoC4/RTC.h ****     inputYear %= 1000u;
 251              		.loc 1 802 0
 252 0006 081C     		mov	r0, r1
 253              	.LVL24:
 254 0008 FA21     		mov	r1, #250
 255              	.LVL25:
 256 000a 8900     		lsl	r1, r1, #2
 257 000c FFF7FEFF 		bl	__aeabi_uidivmod
 258              	.LVL26:
 259 0010 0F1C     		mov	r7, r1
 260              	.LVL27:
 803:.\Generated_Source\PSoC4/RTC.h **** 
 804:.\Generated_Source\PSoC4/RTC.h ****     inputDate |= (inputYear / 100u) << RTC_100_YEAR_OFFSET;
 805:.\Generated_Source\PSoC4/RTC.h ****     inputYear %= 100u;
 261              		.loc 1 805 0
 262 0012 081C     		mov	r0, r1
 263 0014 6421     		mov	r1, #100
 264              	.LVL28:
 265 0016 FFF7FEFF 		bl	__aeabi_uidivmod
 266              	.LVL29:
 267 001a 0D1C     		mov	r5, r1
 268              	.LVL30:
 801:.\Generated_Source\PSoC4/RTC.h ****     inputYear %= 1000u;
 269              		.loc 1 801 0
 270 001c FA21     		mov	r1, #250
ARM GAS  C:\Users\Vitali\AppData\Local\Temp\ccu81yp2.s 			page 20


 271              	.LVL31:
 272 001e 201C     		mov	r0, r4
 273 0020 8900     		lsl	r1, r1, #2
 274 0022 FFF7FEFF 		bl	__aeabi_uidiv
 275              	.LVL32:
 804:.\Generated_Source\PSoC4/RTC.h ****     inputYear %= 100u;
 276              		.loc 1 804 0
 277 0026 6421     		mov	r1, #100
 801:.\Generated_Source\PSoC4/RTC.h ****     inputYear %= 1000u;
 278              		.loc 1 801 0
 279 0028 0403     		lsl	r4, r0, #12
 280              	.LVL33:
 804:.\Generated_Source\PSoC4/RTC.h ****     inputYear %= 100u;
 281              		.loc 1 804 0
 282 002a 381C     		mov	r0, r7
 283 002c FFF7FEFF 		bl	__aeabi_uidiv
 284              	.LVL34:
 799:.\Generated_Source\PSoC4/RTC.h **** 
 285              		.loc 1 799 0
 286 0030 B60B     		lsr	r6, r6, #14
 287              	.LVL35:
 288 0032 B603     		lsl	r6, r6, #14
 289 0034 3443     		orr	r4, r6
 804:.\Generated_Source\PSoC4/RTC.h ****     inputYear %= 100u;
 290              		.loc 1 804 0
 291 0036 0002     		lsl	r0, r0, #8
 292 0038 0443     		orr	r4, r0
 806:.\Generated_Source\PSoC4/RTC.h **** 
 807:.\Generated_Source\PSoC4/RTC.h ****     inputDate |= (inputYear / 10u) << RTC_10_YEAR_OFFSET;
 808:.\Generated_Source\PSoC4/RTC.h ****     inputDate |= (inputYear % 10u) << RTC_YEAR_OFFSET;
 293              		.loc 1 808 0
 294 003a 0A21     		mov	r1, #10
 295 003c 281C     		mov	r0, r5
 296 003e FFF7FEFF 		bl	__aeabi_uidivmod
 297              	.LVL36:
 807:.\Generated_Source\PSoC4/RTC.h ****     inputDate |= (inputYear % 10u) << RTC_YEAR_OFFSET;
 298              		.loc 1 807 0
 299 0042 281C     		mov	r0, r5
 300 0044 0C43     		orr	r4, r1
 301              	.LVL37:
 302 0046 0A21     		mov	r1, #10
 303 0048 FFF7FEFF 		bl	__aeabi_uidiv
 304              	.LVL38:
 305 004c 0001     		lsl	r0, r0, #4
 306              		.loc 1 808 0
 307 004e 2043     		orr	r0, r4
 809:.\Generated_Source\PSoC4/RTC.h **** 
 810:.\Generated_Source\PSoC4/RTC.h ****     return(inputDate);
 811:.\Generated_Source\PSoC4/RTC.h **** }
 308              		.loc 1 811 0
 309              		@ sp needed
 310              	.LVL39:
 311              	.LVL40:
 312 0050 F8BD     		pop	{r3, r4, r5, r6, r7, pc}
 313              		.cfi_endproc
 314              	.LFE15:
 315              		.size	RTC_SetYear, .-RTC_SetYear
ARM GAS  C:\Users\Vitali\AppData\Local\Temp\ccu81yp2.s 			page 21


 316              		.section	.text.RTC_ConstructDate,"ax",%progbits
 317              		.align	1
 318              		.code	16
 319              		.thumb_func
 320              		.type	RTC_ConstructDate, %function
 321              	RTC_ConstructDate:
 322              	.LFB24:
 812:.\Generated_Source\PSoC4/RTC.h **** 
 813:.\Generated_Source\PSoC4/RTC.h **** 
 814:.\Generated_Source\PSoC4/RTC.h **** /*******************************************************************************
 815:.\Generated_Source\PSoC4/RTC.h **** * Function Name: RTC_GetNextMinSec
 816:.\Generated_Source\PSoC4/RTC.h **** ********************************************************************************
 817:.\Generated_Source\PSoC4/RTC.h **** *
 818:.\Generated_Source\PSoC4/RTC.h **** * Summary:
 819:.\Generated_Source\PSoC4/RTC.h **** *  This is an internal function that calculates the value of the next Second/Minute
 820:.\Generated_Source\PSoC4/RTC.h **** *  that follows after the current Minute/Second.
 821:.\Generated_Source\PSoC4/RTC.h **** *
 822:.\Generated_Source\PSoC4/RTC.h **** * Parameters:
 823:.\Generated_Source\PSoC4/RTC.h **** *  curVal: The current Second/Minute value.
 824:.\Generated_Source\PSoC4/RTC.h **** *
 825:.\Generated_Source\PSoC4/RTC.h **** * Return:
 826:.\Generated_Source\PSoC4/RTC.h **** *  Returns the Second/Minute which follows after the current Second/Minute.
 827:.\Generated_Source\PSoC4/RTC.h **** *
 828:.\Generated_Source\PSoC4/RTC.h **** *******************************************************************************/
 829:.\Generated_Source\PSoC4/RTC.h **** static CY_INLINE uint32 RTC_GetNextMinSec(uint32 curVal)
 830:.\Generated_Source\PSoC4/RTC.h **** {
 831:.\Generated_Source\PSoC4/RTC.h ****     return((curVal < 59u) ? (curVal + 1u) : 0u);
 832:.\Generated_Source\PSoC4/RTC.h **** }
 833:.\Generated_Source\PSoC4/RTC.h **** 
 834:.\Generated_Source\PSoC4/RTC.h **** 
 835:.\Generated_Source\PSoC4/RTC.h **** /*******************************************************************************
 836:.\Generated_Source\PSoC4/RTC.h **** * Function Name: RTC_GetNextHour
 837:.\Generated_Source\PSoC4/RTC.h **** ********************************************************************************
 838:.\Generated_Source\PSoC4/RTC.h **** *
 839:.\Generated_Source\PSoC4/RTC.h **** * Summary:
 840:.\Generated_Source\PSoC4/RTC.h **** *  This is an internal function that calculates the value of the next Hour
 841:.\Generated_Source\PSoC4/RTC.h **** *  that follows after the current Hour.
 842:.\Generated_Source\PSoC4/RTC.h **** *
 843:.\Generated_Source\PSoC4/RTC.h **** * Parameters:
 844:.\Generated_Source\PSoC4/RTC.h **** *  curVal: The current Hour value.
 845:.\Generated_Source\PSoC4/RTC.h **** *
 846:.\Generated_Source\PSoC4/RTC.h **** * Return:
 847:.\Generated_Source\PSoC4/RTC.h **** *  Returns the Hour which follows after the current Hour.
 848:.\Generated_Source\PSoC4/RTC.h **** *
 849:.\Generated_Source\PSoC4/RTC.h **** *******************************************************************************/
 850:.\Generated_Source\PSoC4/RTC.h **** static CY_INLINE uint32 RTC_GetNextHour(uint32 curVal)
 851:.\Generated_Source\PSoC4/RTC.h **** {
 852:.\Generated_Source\PSoC4/RTC.h ****     return((curVal < 23u) ? (curVal + 1u) : 0u);
 853:.\Generated_Source\PSoC4/RTC.h **** }
 854:.\Generated_Source\PSoC4/RTC.h **** 
 855:.\Generated_Source\PSoC4/RTC.h **** 
 856:.\Generated_Source\PSoC4/RTC.h **** /*******************************************************************************
 857:.\Generated_Source\PSoC4/RTC.h **** * Function Name: RTC_GetNextDay
 858:.\Generated_Source\PSoC4/RTC.h **** ********************************************************************************
 859:.\Generated_Source\PSoC4/RTC.h **** *
 860:.\Generated_Source\PSoC4/RTC.h **** * Summary:
 861:.\Generated_Source\PSoC4/RTC.h **** *  This is an internal function that calculates the value of the next Day
ARM GAS  C:\Users\Vitali\AppData\Local\Temp\ccu81yp2.s 			page 22


 862:.\Generated_Source\PSoC4/RTC.h **** *  that follows after the current Day.
 863:.\Generated_Source\PSoC4/RTC.h **** *
 864:.\Generated_Source\PSoC4/RTC.h **** * Parameters:
 865:.\Generated_Source\PSoC4/RTC.h **** *  curYear         : The current year.
 866:.\Generated_Source\PSoC4/RTC.h **** *  curMonth        : The current month.
 867:.\Generated_Source\PSoC4/RTC.h **** *  curDay       : The current day.
 868:.\Generated_Source\PSoC4/RTC.h **** *  alarmCfgMask : Alarm Config Mask.
 869:.\Generated_Source\PSoC4/RTC.h **** *
 870:.\Generated_Source\PSoC4/RTC.h **** * Return:
 871:.\Generated_Source\PSoC4/RTC.h **** *  Returns the day which follows after the current Day.
 872:.\Generated_Source\PSoC4/RTC.h **** *
 873:.\Generated_Source\PSoC4/RTC.h **** *******************************************************************************/
 874:.\Generated_Source\PSoC4/RTC.h **** static CY_INLINE uint32 RTC_GetNextDay(uint32 curYear, uint32 curMonth, uint32 curDay, uint32 alarm
 875:.\Generated_Source\PSoC4/RTC.h **** {
 876:.\Generated_Source\PSoC4/RTC.h ****     uint32 daysInMonth;
 877:.\Generated_Source\PSoC4/RTC.h ****     uint32 tmpVal;
 878:.\Generated_Source\PSoC4/RTC.h **** 
 879:.\Generated_Source\PSoC4/RTC.h ****     daysInMonth = RTC_DaysInMonth(curMonth, curYear);
 880:.\Generated_Source\PSoC4/RTC.h **** 
 881:.\Generated_Source\PSoC4/RTC.h ****     if(0u != (alarmCfgMask & RTC_ALARM_DAYOFWEEK_MASK))
 882:.\Generated_Source\PSoC4/RTC.h ****     {
 883:.\Generated_Source\PSoC4/RTC.h ****         tmpVal = curDay + RTC_DAYS_PER_WEEK;
 884:.\Generated_Source\PSoC4/RTC.h ****         tmpVal = (tmpVal > daysInMonth) ? (tmpVal - daysInMonth) : tmpVal;
 885:.\Generated_Source\PSoC4/RTC.h ****     }
 886:.\Generated_Source\PSoC4/RTC.h ****     else
 887:.\Generated_Source\PSoC4/RTC.h ****     {
 888:.\Generated_Source\PSoC4/RTC.h ****         tmpVal = (curDay < daysInMonth) ? (curDay + 1u) : 1u;
 889:.\Generated_Source\PSoC4/RTC.h ****     }
 890:.\Generated_Source\PSoC4/RTC.h **** 
 891:.\Generated_Source\PSoC4/RTC.h ****     return(tmpVal);
 892:.\Generated_Source\PSoC4/RTC.h **** }
 893:.\Generated_Source\PSoC4/RTC.h **** 
 894:.\Generated_Source\PSoC4/RTC.h **** 
 895:.\Generated_Source\PSoC4/RTC.h **** /*******************************************************************************
 896:.\Generated_Source\PSoC4/RTC.h **** * Function Name: RTC_GetNextMonth
 897:.\Generated_Source\PSoC4/RTC.h **** ********************************************************************************
 898:.\Generated_Source\PSoC4/RTC.h **** *
 899:.\Generated_Source\PSoC4/RTC.h **** * Summary:
 900:.\Generated_Source\PSoC4/RTC.h **** *  This is an internal function that calculates the value of the next month
 901:.\Generated_Source\PSoC4/RTC.h **** *  that follows after the current month.
 902:.\Generated_Source\PSoC4/RTC.h **** *
 903:.\Generated_Source\PSoC4/RTC.h **** * Parameters:
 904:.\Generated_Source\PSoC4/RTC.h **** *  curMonth : The current month.
 905:.\Generated_Source\PSoC4/RTC.h **** *
 906:.\Generated_Source\PSoC4/RTC.h **** * Return:
 907:.\Generated_Source\PSoC4/RTC.h **** *  Returns the month which follows after the current month.
 908:.\Generated_Source\PSoC4/RTC.h **** *
 909:.\Generated_Source\PSoC4/RTC.h **** *******************************************************************************/
 910:.\Generated_Source\PSoC4/RTC.h **** static CY_INLINE uint32 RTC_GetNextMonth(uint32 curMonth)
 911:.\Generated_Source\PSoC4/RTC.h **** {
 912:.\Generated_Source\PSoC4/RTC.h ****     return((curMonth < 12u) ? (curMonth + 1u) : 1u);
 913:.\Generated_Source\PSoC4/RTC.h **** }
 914:.\Generated_Source\PSoC4/RTC.h **** 
 915:.\Generated_Source\PSoC4/RTC.h **** 
 916:.\Generated_Source\PSoC4/RTC.h **** /*******************************************************************************
 917:.\Generated_Source\PSoC4/RTC.h **** * Function Name: RTC_GetNextYear
 918:.\Generated_Source\PSoC4/RTC.h **** ********************************************************************************
ARM GAS  C:\Users\Vitali\AppData\Local\Temp\ccu81yp2.s 			page 23


 919:.\Generated_Source\PSoC4/RTC.h **** *
 920:.\Generated_Source\PSoC4/RTC.h **** * Summary:
 921:.\Generated_Source\PSoC4/RTC.h **** *  This is an internal function that calculates the value of the next year
 922:.\Generated_Source\PSoC4/RTC.h **** *  that follows after the current year.
 923:.\Generated_Source\PSoC4/RTC.h **** *
 924:.\Generated_Source\PSoC4/RTC.h **** * Parameters:
 925:.\Generated_Source\PSoC4/RTC.h **** *  curYear : The current year.
 926:.\Generated_Source\PSoC4/RTC.h **** *
 927:.\Generated_Source\PSoC4/RTC.h **** * Return:
 928:.\Generated_Source\PSoC4/RTC.h **** *  Returns the year which follows after the current year.
 929:.\Generated_Source\PSoC4/RTC.h **** *
 930:.\Generated_Source\PSoC4/RTC.h **** *******************************************************************************/
 931:.\Generated_Source\PSoC4/RTC.h **** static CY_INLINE uint32 RTC_GetNextYear(uint32 curYear)
 932:.\Generated_Source\PSoC4/RTC.h **** {
 933:.\Generated_Source\PSoC4/RTC.h ****     return(curYear + 1u);
 934:.\Generated_Source\PSoC4/RTC.h **** }
 935:.\Generated_Source\PSoC4/RTC.h **** 
 936:.\Generated_Source\PSoC4/RTC.h **** 
 937:.\Generated_Source\PSoC4/RTC.h **** /*******************************************************************************
 938:.\Generated_Source\PSoC4/RTC.h **** * Function Name: RTC_SetTimeFormat
 939:.\Generated_Source\PSoC4/RTC.h **** ********************************************************************************
 940:.\Generated_Source\PSoC4/RTC.h **** *
 941:.\Generated_Source\PSoC4/RTC.h **** * Summary:
 942:.\Generated_Source\PSoC4/RTC.h **** *  Updates the "Time Format" value in the variable that contains time in the
 943:.\Generated_Source\PSoC4/RTC.h **** *  "HH:MM:SS" format.
 944:.\Generated_Source\PSoC4/RTC.h **** *
 945:.\Generated_Source\PSoC4/RTC.h **** * Parameters:
 946:.\Generated_Source\PSoC4/RTC.h **** *  inputTime: The current value of the time in the "HH:MM:SS" format.
 947:.\Generated_Source\PSoC4/RTC.h **** *
 948:.\Generated_Source\PSoC4/RTC.h **** * Return:
 949:.\Generated_Source\PSoC4/RTC.h **** *  Returns the updated value of the time in the "HH:MM:SS" format.
 950:.\Generated_Source\PSoC4/RTC.h **** *
 951:.\Generated_Source\PSoC4/RTC.h **** *******************************************************************************/
 952:.\Generated_Source\PSoC4/RTC.h **** static CY_INLINE uint32 RTC_SetTimeFormat(uint32 inputTime, uint32 timeFormat)
 953:.\Generated_Source\PSoC4/RTC.h **** {
 954:.\Generated_Source\PSoC4/RTC.h ****     inputTime &= ~(RTC_TIME_FORMAT_MASK);
 955:.\Generated_Source\PSoC4/RTC.h **** 
 956:.\Generated_Source\PSoC4/RTC.h ****     if((uint32)RTC_12_HOURS_FORMAT != timeFormat)
 957:.\Generated_Source\PSoC4/RTC.h ****     {
 958:.\Generated_Source\PSoC4/RTC.h ****         inputTime |= RTC_TIME_FORMAT_MASK;
 959:.\Generated_Source\PSoC4/RTC.h ****     }
 960:.\Generated_Source\PSoC4/RTC.h **** 
 961:.\Generated_Source\PSoC4/RTC.h ****     return(inputTime);
 962:.\Generated_Source\PSoC4/RTC.h **** }
 963:.\Generated_Source\PSoC4/RTC.h **** 
 964:.\Generated_Source\PSoC4/RTC.h **** 
 965:.\Generated_Source\PSoC4/RTC.h **** /*******************************************************************************
 966:.\Generated_Source\PSoC4/RTC.h **** * Function Name: RTC_GetTimeFormat
 967:.\Generated_Source\PSoC4/RTC.h **** ********************************************************************************
 968:.\Generated_Source\PSoC4/RTC.h **** *
 969:.\Generated_Source\PSoC4/RTC.h **** * Summary:
 970:.\Generated_Source\PSoC4/RTC.h **** *  Reads the time format from the variable that contains time in the
 971:.\Generated_Source\PSoC4/RTC.h **** *  "HH:MM:SS" format.
 972:.\Generated_Source\PSoC4/RTC.h **** *
 973:.\Generated_Source\PSoC4/RTC.h **** * Parameters:
 974:.\Generated_Source\PSoC4/RTC.h **** *  inputTime:  The current value of the time in the "HH:MM:SS" format.
 975:.\Generated_Source\PSoC4/RTC.h **** *
ARM GAS  C:\Users\Vitali\AppData\Local\Temp\ccu81yp2.s 			page 24


 976:.\Generated_Source\PSoC4/RTC.h **** * Return:
 977:.\Generated_Source\PSoC4/RTC.h **** *  Returns the time format that is stored in the variable that contains time
 978:.\Generated_Source\PSoC4/RTC.h **** *  in the "HH:MM:SS" format.
 979:.\Generated_Source\PSoC4/RTC.h **** *
 980:.\Generated_Source\PSoC4/RTC.h **** *******************************************************************************/
 981:.\Generated_Source\PSoC4/RTC.h **** static CY_INLINE uint32 RTC_GetTimeFormat(uint32 inputTime)
 982:.\Generated_Source\PSoC4/RTC.h **** {
 983:.\Generated_Source\PSoC4/RTC.h ****     return ((0uL != (inputTime & (1uL << RTC_TIME_FORMAT_OFFSET))) ? (uint32)RTC_12_HOURS_FORMAT :
 984:.\Generated_Source\PSoC4/RTC.h ****                                                                                   (uint32)RTC_24_HO
 985:.\Generated_Source\PSoC4/RTC.h **** }
 986:.\Generated_Source\PSoC4/RTC.h **** 
 987:.\Generated_Source\PSoC4/RTC.h **** 
 988:.\Generated_Source\PSoC4/RTC.h **** /*******************************************************************************
 989:.\Generated_Source\PSoC4/RTC.h **** * Function Name: RTC_ConstructTime
 990:.\Generated_Source\PSoC4/RTC.h **** ********************************************************************************
 991:.\Generated_Source\PSoC4/RTC.h **** *
 992:.\Generated_Source\PSoC4/RTC.h **** * Summary:
 993:.\Generated_Source\PSoC4/RTC.h **** *  Returns the time in the format used in APIs from individual elements
 994:.\Generated_Source\PSoC4/RTC.h **** *  passed (hour, min, sec etc)
 995:.\Generated_Source\PSoC4/RTC.h **** *
 996:.\Generated_Source\PSoC4/RTC.h **** * Parameters:
 997:.\Generated_Source\PSoC4/RTC.h **** *  timeFormat: The 12/24 hours time format:
 998:.\Generated_Source\PSoC4/RTC.h **** *              RTC_24_HOURS_FORMAT - The 24 hours format.
 999:.\Generated_Source\PSoC4/RTC.h **** *               RTC_12_HOURS_FORMAT - The 12 hours format.
1000:.\Generated_Source\PSoC4/RTC.h **** *
1001:.\Generated_Source\PSoC4/RTC.h **** *  stateAmPm:  The AM/PM status:
1002:.\Generated_Source\PSoC4/RTC.h **** *              RTC_AM - AM.
1003:.\Generated_Source\PSoC4/RTC.h **** *              RTC_PM - PM.
1004:.\Generated_Source\PSoC4/RTC.h **** *
1005:.\Generated_Source\PSoC4/RTC.h **** *  hour:       The hour.
1006:.\Generated_Source\PSoC4/RTC.h **** *  min:        The minute.
1007:.\Generated_Source\PSoC4/RTC.h **** *  sec:        The second.
1008:.\Generated_Source\PSoC4/RTC.h **** *
1009:.\Generated_Source\PSoC4/RTC.h **** * Return:
1010:.\Generated_Source\PSoC4/RTC.h **** *  Time in the format used in API.
1011:.\Generated_Source\PSoC4/RTC.h **** *
1012:.\Generated_Source\PSoC4/RTC.h **** *******************************************************************************/
1013:.\Generated_Source\PSoC4/RTC.h **** static CY_INLINE uint32 RTC_ConstructTime(uint32 timeFormat, uint32 stateAmPm, uint32 hour, uint32 
1014:.\Generated_Source\PSoC4/RTC.h **** {
1015:.\Generated_Source\PSoC4/RTC.h ****     uint32 retVal;
1016:.\Generated_Source\PSoC4/RTC.h **** 
1017:.\Generated_Source\PSoC4/RTC.h ****     retVal  = timeFormat << RTC_TIME_FORMAT_OFFSET;
1018:.\Generated_Source\PSoC4/RTC.h ****     retVal |= stateAmPm << RTC_PERIOD_OF_DAY_OFFSET;
1019:.\Generated_Source\PSoC4/RTC.h **** 
1020:.\Generated_Source\PSoC4/RTC.h ****     retVal |= (hour / 10u) << RTC_10_HOURS_OFFSET;
1021:.\Generated_Source\PSoC4/RTC.h ****     retVal |= (hour % 10u) << RTC_HOURS_OFFSET;
1022:.\Generated_Source\PSoC4/RTC.h **** 
1023:.\Generated_Source\PSoC4/RTC.h ****     retVal |= (min / 10u) << RTC_10_MINUTES_OFFSET;
1024:.\Generated_Source\PSoC4/RTC.h ****     retVal |= (min % 10u) << RTC_MINUTES_OFFSET;
1025:.\Generated_Source\PSoC4/RTC.h **** 
1026:.\Generated_Source\PSoC4/RTC.h ****     retVal |= (sec / 10u) << RTC_10_SECONDS_OFFSET;
1027:.\Generated_Source\PSoC4/RTC.h ****     retVal |= (sec % 10u) << RTC_SECONDS_OFFSET;
1028:.\Generated_Source\PSoC4/RTC.h **** 
1029:.\Generated_Source\PSoC4/RTC.h ****     return (retVal);
1030:.\Generated_Source\PSoC4/RTC.h **** }
1031:.\Generated_Source\PSoC4/RTC.h **** 
1032:.\Generated_Source\PSoC4/RTC.h **** 
ARM GAS  C:\Users\Vitali\AppData\Local\Temp\ccu81yp2.s 			page 25


1033:.\Generated_Source\PSoC4/RTC.h **** /*******************************************************************************
1034:.\Generated_Source\PSoC4/RTC.h **** * Function Name: RTC_ConstructDate
1035:.\Generated_Source\PSoC4/RTC.h **** ********************************************************************************
1036:.\Generated_Source\PSoC4/RTC.h **** *
1037:.\Generated_Source\PSoC4/RTC.h **** * Summary:
1038:.\Generated_Source\PSoC4/RTC.h **** *  Returns the date in the format used in APIs from individual elements
1039:.\Generated_Source\PSoC4/RTC.h **** *  passed (day. Month and year)
1040:.\Generated_Source\PSoC4/RTC.h **** *
1041:.\Generated_Source\PSoC4/RTC.h **** * Parameters:
1042:.\Generated_Source\PSoC4/RTC.h **** *  month:       The month.
1043:.\Generated_Source\PSoC4/RTC.h **** *  day:         The day.
1044:.\Generated_Source\PSoC4/RTC.h **** *  year:        The year.
1045:.\Generated_Source\PSoC4/RTC.h **** *
1046:.\Generated_Source\PSoC4/RTC.h **** * Return:
1047:.\Generated_Source\PSoC4/RTC.h **** *  The date in the format used in API.
1048:.\Generated_Source\PSoC4/RTC.h **** *
1049:.\Generated_Source\PSoC4/RTC.h **** *******************************************************************************/
1050:.\Generated_Source\PSoC4/RTC.h **** static CY_INLINE uint32 RTC_ConstructDate(uint32 month, uint32 day, uint32 year)
1051:.\Generated_Source\PSoC4/RTC.h **** {
 323              		.loc 1 1051 0
 324              		.cfi_startproc
 325              	.LVL41:
 326 0000 F7B5     		push	{r0, r1, r2, r4, r5, r6, r7, lr}
 327              		.cfi_def_cfa_offset 32
 328              		.cfi_offset 0, -32
 329              		.cfi_offset 1, -28
 330              		.cfi_offset 2, -24
 331              		.cfi_offset 4, -20
 332              		.cfi_offset 5, -16
 333              		.cfi_offset 6, -12
 334              		.cfi_offset 7, -8
 335              		.cfi_offset 14, -4
 336              		.loc 1 1051 0
 337 0002 0F1C     		mov	r7, r1
1052:.\Generated_Source\PSoC4/RTC.h ****     uint32 retVal;
1053:.\Generated_Source\PSoC4/RTC.h ****     uint32 tmpVal = year;
1054:.\Generated_Source\PSoC4/RTC.h **** 
1055:.\Generated_Source\PSoC4/RTC.h ****     retVal  = (month / 10u) << RTC_10_MONTH_OFFSET;
1056:.\Generated_Source\PSoC4/RTC.h ****     retVal |= (month % 10u) << RTC_MONTH_OFFSET;
1057:.\Generated_Source\PSoC4/RTC.h **** 
1058:.\Generated_Source\PSoC4/RTC.h ****     retVal |= (day / 10u) << RTC_10_DAY_OFFSET;
1059:.\Generated_Source\PSoC4/RTC.h ****     retVal |= (day % 10u) << RTC_DAY_OFFSET;
1060:.\Generated_Source\PSoC4/RTC.h **** 
1061:.\Generated_Source\PSoC4/RTC.h ****     retVal |= (year / 1000u) << RTC_1000_YEAR_OFFSET;
1062:.\Generated_Source\PSoC4/RTC.h ****     tmpVal %= 1000u;
 338              		.loc 1 1062 0
 339 0004 FA21     		mov	r1, #250
 340              	.LVL42:
1051:.\Generated_Source\PSoC4/RTC.h ****     uint32 retVal;
 341              		.loc 1 1051 0
 342 0006 061C     		mov	r6, r0
 343              	.LVL43:
 344              		.loc 1 1062 0
 345 0008 8900     		lsl	r1, r1, #2
 346 000a 101C     		mov	r0, r2
 347              	.LVL44:
1051:.\Generated_Source\PSoC4/RTC.h ****     uint32 retVal;
ARM GAS  C:\Users\Vitali\AppData\Local\Temp\ccu81yp2.s 			page 26


 348              		.loc 1 1051 0
 349 000c 151C     		mov	r5, r2
 350              		.loc 1 1062 0
 351 000e FFF7FEFF 		bl	__aeabi_uidivmod
 352              	.LVL45:
 353 0012 0C1C     		mov	r4, r1
 354              	.LVL46:
1063:.\Generated_Source\PSoC4/RTC.h **** 
1064:.\Generated_Source\PSoC4/RTC.h ****     retVal |= (tmpVal / 100u) << RTC_100_YEAR_OFFSET;
1065:.\Generated_Source\PSoC4/RTC.h ****     tmpVal %= 100u;
 355              		.loc 1 1065 0
 356 0014 081C     		mov	r0, r1
 357 0016 6421     		mov	r1, #100
 358              	.LVL47:
 359 0018 FFF7FEFF 		bl	__aeabi_uidivmod
 360              	.LVL48:
1059:.\Generated_Source\PSoC4/RTC.h **** 
 361              		.loc 1 1059 0
 362 001c 381C     		mov	r0, r7
 363              		.loc 1 1065 0
 364 001e 0091     		str	r1, [sp]
 365              	.LVL49:
1059:.\Generated_Source\PSoC4/RTC.h **** 
 366              		.loc 1 1059 0
 367 0020 0A21     		mov	r1, #10
 368              	.LVL50:
 369 0022 FFF7FEFF 		bl	__aeabi_uidivmod
 370              	.LVL51:
1058:.\Generated_Source\PSoC4/RTC.h ****     retVal |= (day % 10u) << RTC_DAY_OFFSET;
 371              		.loc 1 1058 0
 372 0026 381C     		mov	r0, r7
1059:.\Generated_Source\PSoC4/RTC.h **** 
 373              		.loc 1 1059 0
 374 0028 0B04     		lsl	r3, r1, #16
1058:.\Generated_Source\PSoC4/RTC.h ****     retVal |= (day % 10u) << RTC_DAY_OFFSET;
 375              		.loc 1 1058 0
 376 002a 0A21     		mov	r1, #10
1059:.\Generated_Source\PSoC4/RTC.h **** 
 377              		.loc 1 1059 0
 378 002c 0193     		str	r3, [sp, #4]
1058:.\Generated_Source\PSoC4/RTC.h ****     retVal |= (day % 10u) << RTC_DAY_OFFSET;
 379              		.loc 1 1058 0
 380 002e FFF7FEFF 		bl	__aeabi_uidiv
 381              	.LVL52:
 382 0032 019B     		ldr	r3, [sp, #4]
 383 0034 0705     		lsl	r7, r0, #20
 384              	.LVL53:
1055:.\Generated_Source\PSoC4/RTC.h ****     retVal |= (month % 10u) << RTC_MONTH_OFFSET;
 385              		.loc 1 1055 0
 386 0036 0A21     		mov	r1, #10
 387 0038 301C     		mov	r0, r6
 388 003a 1F43     		orr	r7, r3
 389 003c FFF7FEFF 		bl	__aeabi_uidiv
 390              	.LVL54:
 391 0040 0007     		lsl	r0, r0, #28
 392 0042 0743     		orr	r7, r0
1056:.\Generated_Source\PSoC4/RTC.h **** 
ARM GAS  C:\Users\Vitali\AppData\Local\Temp\ccu81yp2.s 			page 27


 393              		.loc 1 1056 0
 394 0044 0A21     		mov	r1, #10
 395 0046 301C     		mov	r0, r6
 396 0048 FFF7FEFF 		bl	__aeabi_uidivmod
 397              	.LVL55:
 398 004c 0906     		lsl	r1, r1, #24
 399 004e 0F43     		orr	r7, r1
1061:.\Generated_Source\PSoC4/RTC.h ****     tmpVal %= 1000u;
 400              		.loc 1 1061 0
 401 0050 FA21     		mov	r1, #250
 402 0052 281C     		mov	r0, r5
 403 0054 8900     		lsl	r1, r1, #2
 404 0056 FFF7FEFF 		bl	__aeabi_uidiv
 405              	.LVL56:
 406 005a 0003     		lsl	r0, r0, #12
 407 005c 0743     		orr	r7, r0
1064:.\Generated_Source\PSoC4/RTC.h ****     tmpVal %= 100u;
 408              		.loc 1 1064 0
 409 005e 6421     		mov	r1, #100
 410 0060 201C     		mov	r0, r4
 411 0062 FFF7FEFF 		bl	__aeabi_uidiv
 412              	.LVL57:
 413 0066 0002     		lsl	r0, r0, #8
 414 0068 0743     		orr	r7, r0
1066:.\Generated_Source\PSoC4/RTC.h **** 
1067:.\Generated_Source\PSoC4/RTC.h ****     retVal |= (tmpVal / 10u) << RTC_10_YEAR_OFFSET;
1068:.\Generated_Source\PSoC4/RTC.h ****     retVal |= (tmpVal % 10u) << RTC_YEAR_OFFSET;
 415              		.loc 1 1068 0
 416 006a 0A21     		mov	r1, #10
 417 006c 0098     		ldr	r0, [sp]
 418 006e FFF7FEFF 		bl	__aeabi_uidivmod
 419              	.LVL58:
1067:.\Generated_Source\PSoC4/RTC.h ****     retVal |= (tmpVal % 10u) << RTC_YEAR_OFFSET;
 420              		.loc 1 1067 0
 421 0072 0098     		ldr	r0, [sp]
 422 0074 0F43     		orr	r7, r1
 423              	.LVL59:
 424 0076 0A21     		mov	r1, #10
 425 0078 FFF7FEFF 		bl	__aeabi_uidiv
 426              	.LVL60:
 427 007c 0001     		lsl	r0, r0, #4
 428              		.loc 1 1068 0
 429 007e 3843     		orr	r0, r7
1069:.\Generated_Source\PSoC4/RTC.h **** 
1070:.\Generated_Source\PSoC4/RTC.h ****     return (retVal);
1071:.\Generated_Source\PSoC4/RTC.h **** }
 430              		.loc 1 1071 0
 431              		@ sp needed
 432              	.LVL61:
 433              	.LVL62:
 434              	.LVL63:
 435 0080 FEBD     		pop	{r1, r2, r3, r4, r5, r6, r7, pc}
 436              		.cfi_endproc
 437              	.LFE24:
 438              		.size	RTC_ConstructDate, .-RTC_ConstructDate
 439              		.section	.text.RTC_GetDayOfWeek,"ax",%progbits
 440              		.align	1
ARM GAS  C:\Users\Vitali\AppData\Local\Temp\ccu81yp2.s 			page 28


 441              		.code	16
 442              		.thumb_func
 443              		.type	RTC_GetDayOfWeek, %function
 444              	RTC_GetDayOfWeek:
 445              	.LFB25:
1072:.\Generated_Source\PSoC4/RTC.h **** 
1073:.\Generated_Source\PSoC4/RTC.h **** 
1074:.\Generated_Source\PSoC4/RTC.h **** /*******************************************************************************
1075:.\Generated_Source\PSoC4/RTC.h **** * Function Name: RTC_GetDayOfWeek
1076:.\Generated_Source\PSoC4/RTC.h **** ********************************************************************************
1077:.\Generated_Source\PSoC4/RTC.h **** *
1078:.\Generated_Source\PSoC4/RTC.h **** * Summary:
1079:.\Generated_Source\PSoC4/RTC.h **** *  Returns a day of the week for a year, month, and day of month that are passed
1080:.\Generated_Source\PSoC4/RTC.h **** *  through parameters. Zeller's congruence is used to calculate the day of
1081:.\Generated_Source\PSoC4/RTC.h **** *  the week.
1082:.\Generated_Source\PSoC4/RTC.h **** *
1083:.\Generated_Source\PSoC4/RTC.h **** *  For the Georgian calendar, Zeller's congruence is:
1084:.\Generated_Source\PSoC4/RTC.h **** *  h = (q + [13 * (m + 1)] + K + [K/4] + [J/4] - 2J) mod 7
1085:.\Generated_Source\PSoC4/RTC.h **** *
1086:.\Generated_Source\PSoC4/RTC.h **** *  h - The day of the week (0 = Saturday, 1 = Sunday, 2 = Monday, ..., 6 = Friday).
1087:.\Generated_Source\PSoC4/RTC.h **** *  q - The day of the month.
1088:.\Generated_Source\PSoC4/RTC.h **** *  m - The month (3 = March, 4 = April, 5 = May, ..., 14 = February)
1089:.\Generated_Source\PSoC4/RTC.h **** *  K - The year of the century (year \mod 100).
1090:.\Generated_Source\PSoC4/RTC.h **** *  J - The zero-based century (actually [year/100]) For example, the zero-based
1091:.\Generated_Source\PSoC4/RTC.h **** *      centuries for 1995 and 2000 are 19 and 20 respectively (not to be
1092:.\Generated_Source\PSoC4/RTC.h **** *      confused with the common ordinal century enumeration which indicates
1093:.\Generated_Source\PSoC4/RTC.h **** *      20th for both cases).
1094:.\Generated_Source\PSoC4/RTC.h **** *
1095:.\Generated_Source\PSoC4/RTC.h **** * Note: In this algorithm January and February are counted as months 13 and 14
1096:.\Generated_Source\PSoC4/RTC.h **** * of the previous year.
1097:.\Generated_Source\PSoC4/RTC.h **** *
1098:.\Generated_Source\PSoC4/RTC.h **** * Parameters:
1099:.\Generated_Source\PSoC4/RTC.h **** *  day  : The day of the month(1..31)
1100:.\Generated_Source\PSoC4/RTC.h **** *
1101:.\Generated_Source\PSoC4/RTC.h **** *  month: The month of the year:
1102:.\Generated_Source\PSoC4/RTC.h **** *                   RTC_JANUARY
1103:.\Generated_Source\PSoC4/RTC.h **** *                  RTC_FEBRUARY
1104:.\Generated_Source\PSoC4/RTC.h **** *                  RTC_MARCH
1105:.\Generated_Source\PSoC4/RTC.h **** *                  RTC_APRIL
1106:.\Generated_Source\PSoC4/RTC.h **** *                  RTC_MAY
1107:.\Generated_Source\PSoC4/RTC.h **** *                  RTC_JUNE
1108:.\Generated_Source\PSoC4/RTC.h **** *                  RTC_JULY
1109:.\Generated_Source\PSoC4/RTC.h **** *                  RTC_AUGUST
1110:.\Generated_Source\PSoC4/RTC.h **** *                  RTC_SEPTEMBER
1111:.\Generated_Source\PSoC4/RTC.h **** *                  RTC_OCTOBER
1112:.\Generated_Source\PSoC4/RTC.h **** *                  RTC_NOVEMBER
1113:.\Generated_Source\PSoC4/RTC.h **** *                  RTC_DECEMBER
1114:.\Generated_Source\PSoC4/RTC.h **** *
1115:.\Generated_Source\PSoC4/RTC.h **** *  year:  The year value.
1116:.\Generated_Source\PSoC4/RTC.h **** *
1117:.\Generated_Source\PSoC4/RTC.h **** * Return:
1118:.\Generated_Source\PSoC4/RTC.h **** *  Returns a day of the week: ?
1119:.\Generated_Source\PSoC4/RTC.h **** *                RTC_SUNDAY
1120:.\Generated_Source\PSoC4/RTC.h **** *                RTC_MONDAY
1121:.\Generated_Source\PSoC4/RTC.h **** *                RTC_TUESDAY
1122:.\Generated_Source\PSoC4/RTC.h **** *                RTC_WEDNESDAY
1123:.\Generated_Source\PSoC4/RTC.h **** *                RTC_THURSDAY
ARM GAS  C:\Users\Vitali\AppData\Local\Temp\ccu81yp2.s 			page 29


1124:.\Generated_Source\PSoC4/RTC.h **** *                RTC_FRIDAY
1125:.\Generated_Source\PSoC4/RTC.h **** *                RTC_SATURDAY
1126:.\Generated_Source\PSoC4/RTC.h **** *
1127:.\Generated_Source\PSoC4/RTC.h **** *******************************************************************************/
1128:.\Generated_Source\PSoC4/RTC.h **** static CY_INLINE uint32 RTC_GetDayOfWeek(uint32 day, uint32 month, uint32 year)
1129:.\Generated_Source\PSoC4/RTC.h **** {
 446              		.loc 1 1129 0
 447              		.cfi_startproc
 448              	.LVL64:
 449 0000 70B5     		push	{r4, r5, r6, lr}
 450              		.cfi_def_cfa_offset 16
 451              		.cfi_offset 4, -16
 452              		.cfi_offset 5, -12
 453              		.cfi_offset 6, -8
 454              		.cfi_offset 14, -4
 455              		.loc 1 1129 0
 456 0002 0C1C     		mov	r4, r1
 457 0004 151C     		mov	r5, r2
1130:.\Generated_Source\PSoC4/RTC.h ****     uint32 retVal;
1131:.\Generated_Source\PSoC4/RTC.h **** 
1132:.\Generated_Source\PSoC4/RTC.h ****     /* Converts month number from regular convention
1133:.\Generated_Source\PSoC4/RTC.h ****      * (1=January,..., 12=December) to convention required for this
1134:.\Generated_Source\PSoC4/RTC.h ****      * algorithm(January and February are counted as months 13 and 14 of
1135:.\Generated_Source\PSoC4/RTC.h ****      * previous year).
1136:.\Generated_Source\PSoC4/RTC.h ****     */
1137:.\Generated_Source\PSoC4/RTC.h ****     if(month < (uint32)RTC_MARCH)
 458              		.loc 1 1137 0
 459 0006 0229     		cmp	r1, #2
 460 0008 01D8     		bhi	.L14
1138:.\Generated_Source\PSoC4/RTC.h ****     {
1139:.\Generated_Source\PSoC4/RTC.h ****         month = 12u + month;
 461              		.loc 1 1139 0
 462 000a 0C34     		add	r4, r4, #12
 463              	.LVL65:
1140:.\Generated_Source\PSoC4/RTC.h ****         year--;
 464              		.loc 1 1140 0
 465 000c 013D     		sub	r5, r5, #1
 466              	.LVL66:
 467              	.L14:
1141:.\Generated_Source\PSoC4/RTC.h ****     }
1142:.\Generated_Source\PSoC4/RTC.h **** 
1143:.\Generated_Source\PSoC4/RTC.h ****     /* Calculates Day of Week using Zeller's congruence algorithms.
1144:.\Generated_Source\PSoC4/RTC.h ****     */
1145:.\Generated_Source\PSoC4/RTC.h ****     retVal = (day + (((month + 1u) * 26u) / 10u) + year + (year / 4u) + (6u * (year / 100u)) + (yea
 468              		.loc 1 1145 0
 469 000e C821     		mov	r1, #200
 470 0010 AB08     		lsr	r3, r5, #2
 471 0012 2E18     		add	r6, r5, r0
 472 0014 4900     		lsl	r1, r1, #1
 473 0016 281C     		mov	r0, r5
 474              	.LVL67:
 475 0018 F618     		add	r6, r6, r3
 476 001a FFF7FEFF 		bl	__aeabi_uidiv
 477              	.LVL68:
 478 001e 6421     		mov	r1, #100
 479 0020 3618     		add	r6, r6, r0
 480 0022 281C     		mov	r0, r5
ARM GAS  C:\Users\Vitali\AppData\Local\Temp\ccu81yp2.s 			page 30


 481 0024 FFF7FEFF 		bl	__aeabi_uidiv
 482              	.LVL69:
 483 0028 0623     		mov	r3, #6
 484 002a 5843     		mul	r0, r3
 485 002c 3518     		add	r5, r6, r0
 486              	.LVL70:
 487 002e 1A20     		mov	r0, #26
 488 0030 0134     		add	r4, r4, #1
 489              	.LVL71:
 490 0032 0A21     		mov	r1, #10
 491 0034 6043     		mul	r0, r4
 492 0036 FFF7FEFF 		bl	__aeabi_uidiv
 493              	.LVL72:
 494 003a 0721     		mov	r1, #7
 495 003c 2818     		add	r0, r5, r0
 496 003e FFF7FEFF 		bl	__aeabi_uidivmod
 497              	.LVL73:
1146:.\Generated_Source\PSoC4/RTC.h **** 
1147:.\Generated_Source\PSoC4/RTC.h ****     /* Makes correction for Saturday. Saturday number should be 7 instead of 0. */
1148:.\Generated_Source\PSoC4/RTC.h ****     if(0u == retVal)
 498              		.loc 1 1148 0
 499 0042 0029     		cmp	r1, #0
 500 0044 00D1     		bne	.L15
1149:.\Generated_Source\PSoC4/RTC.h ****     {
1150:.\Generated_Source\PSoC4/RTC.h ****         retVal = (uint32)RTC_SATURDAY;
 501              		.loc 1 1150 0
 502 0046 0731     		add	r1, r1, #7
 503              	.LVL74:
 504              	.L15:
1151:.\Generated_Source\PSoC4/RTC.h ****     }
1152:.\Generated_Source\PSoC4/RTC.h **** 
1153:.\Generated_Source\PSoC4/RTC.h ****     return(retVal);
1154:.\Generated_Source\PSoC4/RTC.h **** }
 505              		.loc 1 1154 0
 506 0048 081C     		mov	r0, r1
 507              		@ sp needed
 508              	.LVL75:
 509 004a 70BD     		pop	{r4, r5, r6, pc}
 510              		.cfi_endproc
 511              	.LFE25:
 512              		.size	RTC_GetDayOfWeek, .-RTC_GetDayOfWeek
 513              		.section	.text.RTC_Stop,"ax",%progbits
 514              		.align	1
 515              		.global	RTC_Stop
 516              		.code	16
 517              		.thumb_func
 518              		.type	RTC_Stop, %function
 519              	RTC_Stop:
 520              	.LFB27:
 521              		.file 2 ".\\Generated_Source\\PSoC4\\RTC.c"
   1:.\Generated_Source\PSoC4/RTC.c **** /*******************************************************************************
   2:.\Generated_Source\PSoC4/RTC.c **** * File Name: RTC.c
   3:.\Generated_Source\PSoC4/RTC.c **** * Version 1.0
   4:.\Generated_Source\PSoC4/RTC.c **** *
   5:.\Generated_Source\PSoC4/RTC.c **** * Description:
   6:.\Generated_Source\PSoC4/RTC.c **** *  This file provides the source code to the API for the RTC_P4 Component.
   7:.\Generated_Source\PSoC4/RTC.c **** *
ARM GAS  C:\Users\Vitali\AppData\Local\Temp\ccu81yp2.s 			page 31


   8:.\Generated_Source\PSoC4/RTC.c **** ********************************************************************************
   9:.\Generated_Source\PSoC4/RTC.c **** * Copyright 2015, Cypress Semiconductor Corporation. All rights reserved.
  10:.\Generated_Source\PSoC4/RTC.c **** * You may use this file only in accordance with the license, terms, conditions,
  11:.\Generated_Source\PSoC4/RTC.c **** * disclaimers, and limitations in the end user license agreement accompanying
  12:.\Generated_Source\PSoC4/RTC.c **** * the software package with which this file was provided.
  13:.\Generated_Source\PSoC4/RTC.c **** *******************************************************************************/
  14:.\Generated_Source\PSoC4/RTC.c **** 
  15:.\Generated_Source\PSoC4/RTC.c **** #include "RTC.h"
  16:.\Generated_Source\PSoC4/RTC.c **** 
  17:.\Generated_Source\PSoC4/RTC.c **** uint8  RTC_initVar;
  18:.\Generated_Source\PSoC4/RTC.c **** 
  19:.\Generated_Source\PSoC4/RTC.c **** volatile uint64 RTC_unixTime;
  20:.\Generated_Source\PSoC4/RTC.c **** RTC_DATE_TIME RTC_currentTimeDate;
  21:.\Generated_Source\PSoC4/RTC.c **** 
  22:.\Generated_Source\PSoC4/RTC.c **** static uint32 RTC_updateTimePeriod;
  23:.\Generated_Source\PSoC4/RTC.c **** static uint32 RTC_tickRefOneSec;
  24:.\Generated_Source\PSoC4/RTC.c **** 
  25:.\Generated_Source\PSoC4/RTC.c **** uint8  RTC_dstStatus;
  26:.\Generated_Source\PSoC4/RTC.c **** static uint32 RTC_dstTimeOffset;
  27:.\Generated_Source\PSoC4/RTC.c **** #if(0u != RTC_INITIAL_DST_STATUS)
  28:.\Generated_Source\PSoC4/RTC.c ****     static volatile uint64 RTC_unixTimeDstStart;
  29:.\Generated_Source\PSoC4/RTC.c ****     static volatile uint64 RTC_unixTimeDstStop;
  30:.\Generated_Source\PSoC4/RTC.c ****     RTC_DST_TIME RTC_dstStartTime;
  31:.\Generated_Source\PSoC4/RTC.c ****     RTC_DST_TIME RTC_dstStopTime;
  32:.\Generated_Source\PSoC4/RTC.c **** #endif /* (0u != RTC_INITIAL_DST_STATUS) */
  33:.\Generated_Source\PSoC4/RTC.c **** 
  34:.\Generated_Source\PSoC4/RTC.c **** uint32 RTC_alarmCurStatus;
  35:.\Generated_Source\PSoC4/RTC.c **** #if(0u != RTC_INITIAL_ALARM_STATUS)
  36:.\Generated_Source\PSoC4/RTC.c ****     uint32  RTC_alarmCfgMask = 0xFFu;
  37:.\Generated_Source\PSoC4/RTC.c ****     static volatile uint64 RTC_unixTimeAlarm;
  38:.\Generated_Source\PSoC4/RTC.c ****     RTC_DATE_TIME RTC_alarmCfgTimeDate;
  39:.\Generated_Source\PSoC4/RTC.c ****     void (*RTC_alarmCallbackPtr)(void) = (void *)0;
  40:.\Generated_Source\PSoC4/RTC.c **** #endif /* (0u != RTC_INITIAL_ALARM_STATUS) */
  41:.\Generated_Source\PSoC4/RTC.c **** 
  42:.\Generated_Source\PSoC4/RTC.c **** const uint16 RTC_daysBeforeMonthTbl[RTC_MONTHS_PER_YEAR] = {
  43:.\Generated_Source\PSoC4/RTC.c ****                                                  (0u), /* JANUARY */
  44:.\Generated_Source\PSoC4/RTC.c ****                                                  (0u + 31u), /* FEBRUARY */
  45:.\Generated_Source\PSoC4/RTC.c ****                                                  (0u + 31u + 28u), /* MARCH */
  46:.\Generated_Source\PSoC4/RTC.c ****                                                  (0u + 31u + 28u + 31u), /* APRIL */
  47:.\Generated_Source\PSoC4/RTC.c ****                                                  (0u + 31u + 28u + 31u + 30u), /* MAY */
  48:.\Generated_Source\PSoC4/RTC.c ****                                                  (0u + 31u + 28u + 31u + 30u + 31u), /* JUNE */
  49:.\Generated_Source\PSoC4/RTC.c ****                                                  (0u + 31u + 28u + 31u + 30u + 31u + 30u), /* JULY 
  50:.\Generated_Source\PSoC4/RTC.c ****                                                  (0u + 31u + 28u + 31u + 30u + 31u + 30u + 31u), /*
  51:.\Generated_Source\PSoC4/RTC.c ****                                                  (0u + 31u + 28u + 31u + 30u + 31u + 30u + 31u + 31
  52:.\Generated_Source\PSoC4/RTC.c ****                                                  (0u + 31u + 28u + 31u + 30u + 31u + 30u + 31u + 31
  53:.\Generated_Source\PSoC4/RTC.c ****                                                  (0u + 31u + 28u + 31u + 30u + 31u + 30u + 31u + 31
  54:.\Generated_Source\PSoC4/RTC.c ****                                                  (0u + 31u + 28u + 31u + 30u + 31u + 30u + 31u + 31
  55:.\Generated_Source\PSoC4/RTC.c **** 
  56:.\Generated_Source\PSoC4/RTC.c **** const uint8 RTC_daysInMonthTbl[RTC_MONTHS_PER_YEAR] = {RTC_DAYS_IN_JANUARY,
  57:.\Generated_Source\PSoC4/RTC.c ****                                                                                  RTC_DAYS_IN_FEBRUA
  58:.\Generated_Source\PSoC4/RTC.c ****                                                                                  RTC_DAYS_IN_MARCH,
  59:.\Generated_Source\PSoC4/RTC.c ****                                                                                  RTC_DAYS_IN_APRIL,
  60:.\Generated_Source\PSoC4/RTC.c ****                                                                                  RTC_DAYS_IN_MAY,
  61:.\Generated_Source\PSoC4/RTC.c ****                                                                                  RTC_DAYS_IN_JUNE,
  62:.\Generated_Source\PSoC4/RTC.c ****                                                                                  RTC_DAYS_IN_JULY,
  63:.\Generated_Source\PSoC4/RTC.c ****                                                                                  RTC_DAYS_IN_AUGUST
  64:.\Generated_Source\PSoC4/RTC.c ****                                                                                  RTC_DAYS_IN_SEPTEM
ARM GAS  C:\Users\Vitali\AppData\Local\Temp\ccu81yp2.s 			page 32


  65:.\Generated_Source\PSoC4/RTC.c ****                                                                                  RTC_DAYS_IN_OCTOBE
  66:.\Generated_Source\PSoC4/RTC.c ****                                                                                  RTC_DAYS_IN_NOVEMB
  67:.\Generated_Source\PSoC4/RTC.c ****                                                                                  RTC_DAYS_IN_DECEMB
  68:.\Generated_Source\PSoC4/RTC.c **** 
  69:.\Generated_Source\PSoC4/RTC.c **** 
  70:.\Generated_Source\PSoC4/RTC.c **** /*******************************************************************************
  71:.\Generated_Source\PSoC4/RTC.c **** * Function Name: RTC_Start
  72:.\Generated_Source\PSoC4/RTC.c **** ********************************************************************************
  73:.\Generated_Source\PSoC4/RTC.c **** *
  74:.\Generated_Source\PSoC4/RTC.c **** * Summary:
  75:.\Generated_Source\PSoC4/RTC.c **** *  Performs all the required calculations for the time and date registers and
  76:.\Generated_Source\PSoC4/RTC.c **** *  initializes the component along with the date and time selected in the
  77:.\Generated_Source\PSoC4/RTC.c **** *  customizer. If "Implement RTC update manually" is disabled in the customizer
  78:.\Generated_Source\PSoC4/RTC.c **** *  and if WDT is selected as a source in the clocks configuration window
  79:.\Generated_Source\PSoC4/RTC.c **** *  (low frequency clocks tab), attaches RTC_Update API to a corresponding
  80:.\Generated_Source\PSoC4/RTC.c **** *  WDT's ISR callback.
  81:.\Generated_Source\PSoC4/RTC.c **** *
  82:.\Generated_Source\PSoC4/RTC.c **** * Parameters:
  83:.\Generated_Source\PSoC4/RTC.c **** *  None.
  84:.\Generated_Source\PSoC4/RTC.c **** *
  85:.\Generated_Source\PSoC4/RTC.c **** * Return:
  86:.\Generated_Source\PSoC4/RTC.c **** *  None.
  87:.\Generated_Source\PSoC4/RTC.c **** *
  88:.\Generated_Source\PSoC4/RTC.c **** *******************************************************************************/
  89:.\Generated_Source\PSoC4/RTC.c **** void RTC_Start(void)
  90:.\Generated_Source\PSoC4/RTC.c **** {
  91:.\Generated_Source\PSoC4/RTC.c ****     if(0u == RTC_initVar)
  92:.\Generated_Source\PSoC4/RTC.c ****     {
  93:.\Generated_Source\PSoC4/RTC.c ****         RTC_Init();
  94:.\Generated_Source\PSoC4/RTC.c ****     }
  95:.\Generated_Source\PSoC4/RTC.c **** 
  96:.\Generated_Source\PSoC4/RTC.c ****     #if defined(CYDEV_RTC_SOURCE_WDT)
  97:.\Generated_Source\PSoC4/RTC.c ****         #if((0u != CYDEV_WDT_GENERATE_ISR) && (0u == RTC_INITIAL_UPDATE_MODE))
  98:.\Generated_Source\PSoC4/RTC.c ****             RTC_CySysRtcSetCallback(CYDEV_RTC_SOURCE_WDT);
  99:.\Generated_Source\PSoC4/RTC.c ****         #endif /* ((0u != CYDEV_WDT_GENERATE_ISR) && (0u == RTC_INITIAL_UPDATE_MODE)) */
 100:.\Generated_Source\PSoC4/RTC.c ****     #endif /* (CYDEV_RTC_SOURCE_WDT) */
 101:.\Generated_Source\PSoC4/RTC.c **** }
 102:.\Generated_Source\PSoC4/RTC.c **** 
 103:.\Generated_Source\PSoC4/RTC.c **** 
 104:.\Generated_Source\PSoC4/RTC.c **** /*******************************************************************************
 105:.\Generated_Source\PSoC4/RTC.c **** * Function Name: RTC_Stop
 106:.\Generated_Source\PSoC4/RTC.c **** ********************************************************************************
 107:.\Generated_Source\PSoC4/RTC.c **** *
 108:.\Generated_Source\PSoC4/RTC.c **** * Summary:
 109:.\Generated_Source\PSoC4/RTC.c **** *  Stops the time and date updates.
 110:.\Generated_Source\PSoC4/RTC.c **** *
 111:.\Generated_Source\PSoC4/RTC.c **** * Parameters:
 112:.\Generated_Source\PSoC4/RTC.c **** *  None.
 113:.\Generated_Source\PSoC4/RTC.c **** *
 114:.\Generated_Source\PSoC4/RTC.c **** * Return:
 115:.\Generated_Source\PSoC4/RTC.c **** *  None.
 116:.\Generated_Source\PSoC4/RTC.c **** *
 117:.\Generated_Source\PSoC4/RTC.c **** *******************************************************************************/
 118:.\Generated_Source\PSoC4/RTC.c **** void RTC_Stop(void)
 119:.\Generated_Source\PSoC4/RTC.c **** {
 522              		.loc 2 119 0
 523              		.cfi_startproc
ARM GAS  C:\Users\Vitali\AppData\Local\Temp\ccu81yp2.s 			page 33


 120:.\Generated_Source\PSoC4/RTC.c ****     #if defined(CYDEV_RTC_SOURCE_WDT)
 121:.\Generated_Source\PSoC4/RTC.c ****         #if((0u != CYDEV_WDT_GENERATE_ISR) && (0u == RTC_INITIAL_UPDATE_MODE))
 122:.\Generated_Source\PSoC4/RTC.c ****             RTC_CySysRtcResetCallback(CYDEV_RTC_SOURCE_WDT);
 123:.\Generated_Source\PSoC4/RTC.c ****         #endif /* ((0u != CYDEV_WDT_GENERATE_ISR) && (0u == RTC_INITIAL_UPDATE_MODE)) */
 124:.\Generated_Source\PSoC4/RTC.c ****     #endif /* (CYDEV_RTC_SOURCE_WDT) */
 125:.\Generated_Source\PSoC4/RTC.c **** }
 524              		.loc 2 125 0
 525              		@ sp needed
 526 0000 7047     		bx	lr
 527              		.cfi_endproc
 528              	.LFE27:
 529              		.size	RTC_Stop, .-RTC_Stop
 530              		.section	.text.RTC_GetUnixTime,"ax",%progbits
 531              		.align	1
 532              		.global	RTC_GetUnixTime
 533              		.code	16
 534              		.thumb_func
 535              		.type	RTC_GetUnixTime, %function
 536              	RTC_GetUnixTime:
 537              	.LFB31:
 126:.\Generated_Source\PSoC4/RTC.c **** 
 127:.\Generated_Source\PSoC4/RTC.c **** 
 128:.\Generated_Source\PSoC4/RTC.c **** /*******************************************************************************
 129:.\Generated_Source\PSoC4/RTC.c **** * Function Name: RTC_Init
 130:.\Generated_Source\PSoC4/RTC.c **** ********************************************************************************
 131:.\Generated_Source\PSoC4/RTC.c **** *
 132:.\Generated_Source\PSoC4/RTC.c **** * Summary:
 133:.\Generated_Source\PSoC4/RTC.c **** *  Initializes or restores the component according to the customizer Configure
 134:.\Generated_Source\PSoC4/RTC.c **** *  dialog settings. It is not necessary to call RTC_Init() because
 135:.\Generated_Source\PSoC4/RTC.c **** *  RTC_Start() API calls this function and is the preferred method to begin
 136:.\Generated_Source\PSoC4/RTC.c **** *  component operation.
 137:.\Generated_Source\PSoC4/RTC.c **** *
 138:.\Generated_Source\PSoC4/RTC.c **** * Parameters:
 139:.\Generated_Source\PSoC4/RTC.c **** *  None.
 140:.\Generated_Source\PSoC4/RTC.c **** *
 141:.\Generated_Source\PSoC4/RTC.c **** * Return:
 142:.\Generated_Source\PSoC4/RTC.c **** *  None.
 143:.\Generated_Source\PSoC4/RTC.c **** *
 144:.\Generated_Source\PSoC4/RTC.c **** * Side Effects:
 145:.\Generated_Source\PSoC4/RTC.c **** *  All registers are set to values according to the customizer Configure
 146:.\Generated_Source\PSoC4/RTC.c **** *  dialog. The default date value, if not set by the user before this function call,
 147:.\Generated_Source\PSoC4/RTC.c **** *  is 12:00:00 AM January 1, 2000.
 148:.\Generated_Source\PSoC4/RTC.c **** *
 149:.\Generated_Source\PSoC4/RTC.c **** *******************************************************************************/
 150:.\Generated_Source\PSoC4/RTC.c **** void RTC_Init(void)
 151:.\Generated_Source\PSoC4/RTC.c **** {
 152:.\Generated_Source\PSoC4/RTC.c ****     uint32 tmpDate;
 153:.\Generated_Source\PSoC4/RTC.c ****     uint32 tmpTime;
 154:.\Generated_Source\PSoC4/RTC.c **** 
 155:.\Generated_Source\PSoC4/RTC.c ****     #if(0u != RTC_INITIAL_DST_STATUS)
 156:.\Generated_Source\PSoC4/RTC.c ****         RTC_DST_TIME dstTimeTmp;
 157:.\Generated_Source\PSoC4/RTC.c ****     #endif /* (0u != RTC_INITIAL_DST_STATUS) */
 158:.\Generated_Source\PSoC4/RTC.c **** 
 159:.\Generated_Source\PSoC4/RTC.c ****     RTC_initVar = 1u;
 160:.\Generated_Source\PSoC4/RTC.c ****     RTC_dstTimeOffset = 0uL;
 161:.\Generated_Source\PSoC4/RTC.c ****     RTC_currentTimeDate.status = 0uL;
 162:.\Generated_Source\PSoC4/RTC.c **** 
ARM GAS  C:\Users\Vitali\AppData\Local\Temp\ccu81yp2.s 			page 34


 163:.\Generated_Source\PSoC4/RTC.c ****     RTC_dstStatus      = RTC_INITIAL_DST_STATUS;
 164:.\Generated_Source\PSoC4/RTC.c ****     RTC_alarmCurStatus = RTC_INITIAL_ALARM_STATUS;
 165:.\Generated_Source\PSoC4/RTC.c **** 
 166:.\Generated_Source\PSoC4/RTC.c ****     tmpDate = RTC_ConstructDate(RTC_INITIAL_MONTH,
 167:.\Generated_Source\PSoC4/RTC.c ****                                           RTC_INITIAL_DAY,
 168:.\Generated_Source\PSoC4/RTC.c ****                                           RTC_INITIAL_YEAR);
 169:.\Generated_Source\PSoC4/RTC.c **** 
 170:.\Generated_Source\PSoC4/RTC.c ****     tmpTime = RTC_ConstructTime(RTC_INITIAL_TIME_FORMAT,
 171:.\Generated_Source\PSoC4/RTC.c ****                                           0u,
 172:.\Generated_Source\PSoC4/RTC.c ****                                           RTC_INITIAL_HOUR,
 173:.\Generated_Source\PSoC4/RTC.c ****                                           RTC_INITIAL_MINUTE,
 174:.\Generated_Source\PSoC4/RTC.c ****                                           RTC_INITIAL_SECOND);
 175:.\Generated_Source\PSoC4/RTC.c **** 
 176:.\Generated_Source\PSoC4/RTC.c ****     #if(0u != RTC_INITIAL_DST_STATUS)
 177:.\Generated_Source\PSoC4/RTC.c ****         RTC_dstStatus = 0u;
 178:.\Generated_Source\PSoC4/RTC.c ****         RTC_currentTimeDate.status = (1uL << RTC_STATUS_DST_OFFSET);
 179:.\Generated_Source\PSoC4/RTC.c **** 
 180:.\Generated_Source\PSoC4/RTC.c ****         dstTimeTmp.timeFormat    = RTC_INITIAL_DST_DATE_TYPE;
 181:.\Generated_Source\PSoC4/RTC.c ****         dstTimeTmp.hour          = RTC_INITIAL_DST_START_HRS;
 182:.\Generated_Source\PSoC4/RTC.c ****         dstTimeTmp.dayOfWeek     = RTC_INITIAL_DST_START_DOW;
 183:.\Generated_Source\PSoC4/RTC.c ****         dstTimeTmp.weekOfMonth   = RTC_INITIAL_DST_START_WOM;
 184:.\Generated_Source\PSoC4/RTC.c ****         dstTimeTmp.dayOfMonth    = RTC_INITIAL_DST_START_DOM;
 185:.\Generated_Source\PSoC4/RTC.c ****         dstTimeTmp.month         = RTC_INITIAL_DST_START_MONTH;
 186:.\Generated_Source\PSoC4/RTC.c ****         RTC_SetDSTStartTime(&dstTimeTmp, (RTC_DST_DATETYPE_ENUM)RTC_INITIAL_DST_DATE_TYPE);
 187:.\Generated_Source\PSoC4/RTC.c **** 
 188:.\Generated_Source\PSoC4/RTC.c ****         dstTimeTmp.timeFormat    = RTC_INITIAL_DST_DATE_TYPE;
 189:.\Generated_Source\PSoC4/RTC.c ****         dstTimeTmp.hour          = RTC_INITIAL_DST_STOP_HRS;
 190:.\Generated_Source\PSoC4/RTC.c ****         dstTimeTmp.dayOfWeek     = RTC_INITIAL_DST_STOP_DOW;
 191:.\Generated_Source\PSoC4/RTC.c ****         dstTimeTmp.weekOfMonth   = RTC_INITIAL_DST_STOP_WOM;
 192:.\Generated_Source\PSoC4/RTC.c ****         dstTimeTmp.dayOfMonth    = RTC_INITIAL_DST_STOP_DOM;
 193:.\Generated_Source\PSoC4/RTC.c ****         dstTimeTmp.month         = RTC_INITIAL_DST_STOP_MONTH;
 194:.\Generated_Source\PSoC4/RTC.c ****         RTC_SetDSTStopTime(&dstTimeTmp, (RTC_DST_DATETYPE_ENUM)RTC_INITIAL_DST_DATE_TYPE);
 195:.\Generated_Source\PSoC4/RTC.c **** 
 196:.\Generated_Source\PSoC4/RTC.c ****         RTC_unixTimeDstStart = RTC_GetDstUnixTime(&RTC_dstStartTime);
 197:.\Generated_Source\PSoC4/RTC.c ****         RTC_unixTimeDstStop  = RTC_GetDstUnixTime(&RTC_dstStopTime);
 198:.\Generated_Source\PSoC4/RTC.c **** 
 199:.\Generated_Source\PSoC4/RTC.c ****         if((RTC_unixTime >= RTC_unixTimeDstStart) &&
 200:.\Generated_Source\PSoC4/RTC.c ****            (RTC_unixTime <= RTC_unixTimeDstStop))
 201:.\Generated_Source\PSoC4/RTC.c ****         {
 202:.\Generated_Source\PSoC4/RTC.c ****             RTC_dstStatus = 1u;
 203:.\Generated_Source\PSoC4/RTC.c ****             RTC_dstTimeOffset = RTC_SECONDS_PER_HOUR;
 204:.\Generated_Source\PSoC4/RTC.c ****         }
 205:.\Generated_Source\PSoC4/RTC.c ****     #endif /* (0u != RTC_INITIAL_DST_STATUS) */
 206:.\Generated_Source\PSoC4/RTC.c **** 
 207:.\Generated_Source\PSoC4/RTC.c ****     RTC_SetDateAndTime(tmpTime, tmpDate);
 208:.\Generated_Source\PSoC4/RTC.c **** }
 209:.\Generated_Source\PSoC4/RTC.c **** 
 210:.\Generated_Source\PSoC4/RTC.c **** 
 211:.\Generated_Source\PSoC4/RTC.c **** /*******************************************************************************
 212:.\Generated_Source\PSoC4/RTC.c **** * Function Name: RTC_SetDateAndTime
 213:.\Generated_Source\PSoC4/RTC.c **** ********************************************************************************
 214:.\Generated_Source\PSoC4/RTC.c **** *
 215:.\Generated_Source\PSoC4/RTC.c **** * Summary:
 216:.\Generated_Source\PSoC4/RTC.c **** *  Sets the time and date values as the current time and date.
 217:.\Generated_Source\PSoC4/RTC.c **** *
 218:.\Generated_Source\PSoC4/RTC.c **** * Parameters:
 219:.\Generated_Source\PSoC4/RTC.c **** *  inputTime: The time value in the HH:MM:SS format.
ARM GAS  C:\Users\Vitali\AppData\Local\Temp\ccu81yp2.s 			page 35


 220:.\Generated_Source\PSoC4/RTC.c **** *       "HH"- The 8-bit MSB that denotes the hour value.
 221:.\Generated_Source\PSoC4/RTC.c **** *       (0-23 for the 24-hour format and 1-12 for the 12-hour format. The MSB bit of the
 222:.\Generated_Source\PSoC4/RTC.c **** *       value denotes AM/PM for the 12-hour format (0-AM and 1-PM).
 223:.\Generated_Source\PSoC4/RTC.c **** *       "MM" - The 2nd 8-bit MSB denotes the minutes value, the valid entries -> 0-59.
 224:.\Generated_Source\PSoC4/RTC.c **** *       "SS" - The 3rd 8-bit MSB denotes the seconds value, the valid entries -> 0-59.
 225:.\Generated_Source\PSoC4/RTC.c **** *       Each byte is in the BCD format. Invalid time entries retain the
 226:.\Generated_Source\PSoC4/RTC.c **** *       previously set values.
 227:.\Generated_Source\PSoC4/RTC.c **** *
 228:.\Generated_Source\PSoC4/RTC.c **** *  inputDate: The date value in the format selected in the customizer.
 229:.\Generated_Source\PSoC4/RTC.c **** *        For the MM/DD/YYYY format:
 230:.\Generated_Source\PSoC4/RTC.c **** *        "MM" - The 8-bit MSB denotes the month value in BCD, the valid entries -> 1-12
 231:.\Generated_Source\PSoC4/RTC.c **** *        "DD" - The 2nd 8-bit MSB denotes a day of the month value in BCD, the valid
 232:.\Generated_Source\PSoC4/RTC.c **** *        entries -> 1-31.
 233:.\Generated_Source\PSoC4/RTC.c **** *        "YYYY" - The 16-bit LSB denotes a year in BCD, the valid entries -> 1900-2200.
 234:.\Generated_Source\PSoC4/RTC.c **** *        Each byte is in the BCD format. Invalid date entries retain the
 235:.\Generated_Source\PSoC4/RTC.c **** *        previously set values.
 236:.\Generated_Source\PSoC4/RTC.c **** *
 237:.\Generated_Source\PSoC4/RTC.c **** * Return:
 238:.\Generated_Source\PSoC4/RTC.c **** *  None.
 239:.\Generated_Source\PSoC4/RTC.c **** *
 240:.\Generated_Source\PSoC4/RTC.c **** *******************************************************************************/
 241:.\Generated_Source\PSoC4/RTC.c **** void RTC_SetDateAndTime(uint32 inputTime, uint32 inputDate)
 242:.\Generated_Source\PSoC4/RTC.c **** {
 243:.\Generated_Source\PSoC4/RTC.c ****     uint32 tmpDay;
 244:.\Generated_Source\PSoC4/RTC.c ****     uint32 tmpMonth;
 245:.\Generated_Source\PSoC4/RTC.c ****     uint32 tmpYear;
 246:.\Generated_Source\PSoC4/RTC.c **** 
 247:.\Generated_Source\PSoC4/RTC.c ****     tmpDay   = RTC_GetDay(inputDate);
 248:.\Generated_Source\PSoC4/RTC.c ****     tmpMonth = RTC_GetMonth(inputDate);
 249:.\Generated_Source\PSoC4/RTC.c ****     tmpYear  = RTC_GetYear(inputDate);
 250:.\Generated_Source\PSoC4/RTC.c **** 
 251:.\Generated_Source\PSoC4/RTC.c ****     RTC_unixTime = RTC_DateTimeToUnix(inputDate, inputTime);
 252:.\Generated_Source\PSoC4/RTC.c ****     RTC_currentTimeDate.date = inputDate;
 253:.\Generated_Source\PSoC4/RTC.c ****     RTC_currentTimeDate.time = inputTime;
 254:.\Generated_Source\PSoC4/RTC.c ****     RTC_currentTimeDate.dayOfWeek = RTC_GetDayOfWeek(tmpDay, tmpMonth, tmpYear);
 255:.\Generated_Source\PSoC4/RTC.c **** 
 256:.\Generated_Source\PSoC4/RTC.c ****     #if(0u != RTC_INITIAL_DST_STATUS)
 257:.\Generated_Source\PSoC4/RTC.c ****         RTC_unixTimeDstStart = RTC_GetDstUnixTime(&RTC_dstStartTime);
 258:.\Generated_Source\PSoC4/RTC.c ****         RTC_unixTimeDstStop  = RTC_GetDstUnixTime(&RTC_dstStopTime);
 259:.\Generated_Source\PSoC4/RTC.c **** 
 260:.\Generated_Source\PSoC4/RTC.c ****         if((RTC_unixTime >= RTC_unixTimeDstStart) &&
 261:.\Generated_Source\PSoC4/RTC.c ****            (RTC_unixTime <= RTC_unixTimeDstStop))
 262:.\Generated_Source\PSoC4/RTC.c ****         {
 263:.\Generated_Source\PSoC4/RTC.c ****             RTC_dstStatus = 1u;
 264:.\Generated_Source\PSoC4/RTC.c ****             RTC_dstTimeOffset = RTC_SECONDS_PER_HOUR;
 265:.\Generated_Source\PSoC4/RTC.c ****             RTC_unixTime -= RTC_dstTimeOffset;
 266:.\Generated_Source\PSoC4/RTC.c ****         }
 267:.\Generated_Source\PSoC4/RTC.c ****         else
 268:.\Generated_Source\PSoC4/RTC.c ****         {
 269:.\Generated_Source\PSoC4/RTC.c ****             RTC_dstStatus = 0u;
 270:.\Generated_Source\PSoC4/RTC.c ****             RTC_dstTimeOffset = 0uL;
 271:.\Generated_Source\PSoC4/RTC.c ****         }
 272:.\Generated_Source\PSoC4/RTC.c ****     #endif /* (0u != RTC_INITIAL_DST_STATUS) */
 273:.\Generated_Source\PSoC4/RTC.c **** 
 274:.\Generated_Source\PSoC4/RTC.c ****     #if(0u != RTC_INITIAL_ALARM_STATUS)
 275:.\Generated_Source\PSoC4/RTC.c ****         RTC_unixTimeAlarm = RTC_ConstructUnixAlarmTime(&RTC_alarmCfgTimeDate,
 276:.\Generated_Source\PSoC4/RTC.c ****                                                                                  (uint8)RTC_alarmCf
ARM GAS  C:\Users\Vitali\AppData\Local\Temp\ccu81yp2.s 			page 36


 277:.\Generated_Source\PSoC4/RTC.c ****     #endif /* (0u != RTC_INITIAL_ALARM_STATUS) */
 278:.\Generated_Source\PSoC4/RTC.c **** }
 279:.\Generated_Source\PSoC4/RTC.c **** 
 280:.\Generated_Source\PSoC4/RTC.c **** 
 281:.\Generated_Source\PSoC4/RTC.c **** /*******************************************************************************
 282:.\Generated_Source\PSoC4/RTC.c **** * Function Name: RTC_SetUnixTime
 283:.\Generated_Source\PSoC4/RTC.c **** ********************************************************************************
 284:.\Generated_Source\PSoC4/RTC.c **** *
 285:.\Generated_Source\PSoC4/RTC.c **** * Summary:
 286:.\Generated_Source\PSoC4/RTC.c **** *  Sets the time in the Unix/Epoch time format - the number of seconds elapsed from
 287:.\Generated_Source\PSoC4/RTC.c **** *  January 1, 1970 UTC 00:00 hrs.
 288:.\Generated_Source\PSoC4/RTC.c **** *
 289:.\Generated_Source\PSoC4/RTC.c **** * Parameters:
 290:.\Generated_Source\PSoC4/RTC.c **** *  time: The time value in the Unix time/Epoch time format.
 291:.\Generated_Source\PSoC4/RTC.c **** *
 292:.\Generated_Source\PSoC4/RTC.c **** * Return:
 293:.\Generated_Source\PSoC4/RTC.c **** *  None.
 294:.\Generated_Source\PSoC4/RTC.c **** *
 295:.\Generated_Source\PSoC4/RTC.c **** *******************************************************************************/
 296:.\Generated_Source\PSoC4/RTC.c **** void RTC_SetUnixTime(uint64 unixTime)
 297:.\Generated_Source\PSoC4/RTC.c **** {
 298:.\Generated_Source\PSoC4/RTC.c ****     RTC_DATE_TIME tmpDateTime;
 299:.\Generated_Source\PSoC4/RTC.c **** 
 300:.\Generated_Source\PSoC4/RTC.c ****     RTC_unixTime = unixTime;
 301:.\Generated_Source\PSoC4/RTC.c ****     RTC_UnixToDateTime(&tmpDateTime, unixTime, (uint32)RTC_24_HOURS_FORMAT);
 302:.\Generated_Source\PSoC4/RTC.c **** 
 303:.\Generated_Source\PSoC4/RTC.c ****     #if(0u != RTC_INITIAL_DST_STATUS)
 304:.\Generated_Source\PSoC4/RTC.c ****         RTC_unixTimeDstStart = RTC_GetDstUnixTime(&RTC_dstStartTime);
 305:.\Generated_Source\PSoC4/RTC.c ****         RTC_unixTimeDstStop  = RTC_GetDstUnixTime(&RTC_dstStopTime);
 306:.\Generated_Source\PSoC4/RTC.c **** 
 307:.\Generated_Source\PSoC4/RTC.c ****         if((RTC_unixTime >= RTC_unixTimeDstStart) &&
 308:.\Generated_Source\PSoC4/RTC.c ****            (RTC_unixTime <= RTC_unixTimeDstStop))
 309:.\Generated_Source\PSoC4/RTC.c ****         {
 310:.\Generated_Source\PSoC4/RTC.c ****             RTC_dstStatus = 1u;
 311:.\Generated_Source\PSoC4/RTC.c ****             RTC_dstTimeOffset = RTC_SECONDS_PER_HOUR;
 312:.\Generated_Source\PSoC4/RTC.c ****         }
 313:.\Generated_Source\PSoC4/RTC.c ****         else
 314:.\Generated_Source\PSoC4/RTC.c ****         {
 315:.\Generated_Source\PSoC4/RTC.c ****             RTC_dstStatus = 0u;
 316:.\Generated_Source\PSoC4/RTC.c ****             RTC_dstTimeOffset = 0uL;
 317:.\Generated_Source\PSoC4/RTC.c ****         }
 318:.\Generated_Source\PSoC4/RTC.c ****     #endif /* (0u != RTC_INITIAL_DST_STATUS) */
 319:.\Generated_Source\PSoC4/RTC.c **** }
 320:.\Generated_Source\PSoC4/RTC.c **** 
 321:.\Generated_Source\PSoC4/RTC.c **** 
 322:.\Generated_Source\PSoC4/RTC.c **** /*******************************************************************************
 323:.\Generated_Source\PSoC4/RTC.c **** * Function Name: RTC_GetUnixTime
 324:.\Generated_Source\PSoC4/RTC.c **** ********************************************************************************
 325:.\Generated_Source\PSoC4/RTC.c **** *
 326:.\Generated_Source\PSoC4/RTC.c **** * Summary:
 327:.\Generated_Source\PSoC4/RTC.c **** *  Returns the time in the Unix/Epoch time format - the number of seconds elapsed from
 328:.\Generated_Source\PSoC4/RTC.c **** *  January 1, 1970 UTC 00:00 hrs.
 329:.\Generated_Source\PSoC4/RTC.c **** *
 330:.\Generated_Source\PSoC4/RTC.c **** * Parameters:
 331:.\Generated_Source\PSoC4/RTC.c **** *  None.
 332:.\Generated_Source\PSoC4/RTC.c **** *
 333:.\Generated_Source\PSoC4/RTC.c **** * Return:
ARM GAS  C:\Users\Vitali\AppData\Local\Temp\ccu81yp2.s 			page 37


 334:.\Generated_Source\PSoC4/RTC.c **** *  time: The time value in the Unix time/Epoch time format.
 335:.\Generated_Source\PSoC4/RTC.c **** *
 336:.\Generated_Source\PSoC4/RTC.c **** *******************************************************************************/
 337:.\Generated_Source\PSoC4/RTC.c **** uint64 RTC_GetUnixTime(void)
 338:.\Generated_Source\PSoC4/RTC.c **** {
 538              		.loc 2 338 0
 539              		.cfi_startproc
 339:.\Generated_Source\PSoC4/RTC.c ****     return (RTC_unixTime);
 540              		.loc 2 339 0
 541 0000 014B     		ldr	r3, .L18
 340:.\Generated_Source\PSoC4/RTC.c **** }
 542              		.loc 2 340 0
 543              		@ sp needed
 339:.\Generated_Source\PSoC4/RTC.c ****     return (RTC_unixTime);
 544              		.loc 2 339 0
 545 0002 1868     		ldr	r0, [r3]
 546 0004 5968     		ldr	r1, [r3, #4]
 547              		.loc 2 340 0
 548 0006 7047     		bx	lr
 549              	.L19:
 550              		.align	2
 551              	.L18:
 552 0008 00000000 		.word	RTC_unixTime
 553              		.cfi_endproc
 554              	.LFE31:
 555              		.size	RTC_GetUnixTime, .-RTC_GetUnixTime
 556              		.section	.text.RTC_SetPeriod,"ax",%progbits
 557              		.align	1
 558              		.global	RTC_SetPeriod
 559              		.code	16
 560              		.thumb_func
 561              		.type	RTC_SetPeriod, %function
 562              	RTC_SetPeriod:
 563              	.LFB32:
 341:.\Generated_Source\PSoC4/RTC.c **** 
 342:.\Generated_Source\PSoC4/RTC.c **** 
 343:.\Generated_Source\PSoC4/RTC.c **** /*******************************************************************************
 344:.\Generated_Source\PSoC4/RTC.c **** * Function Name: RTC_SetPeriod
 345:.\Generated_Source\PSoC4/RTC.c **** ********************************************************************************
 346:.\Generated_Source\PSoC4/RTC.c **** *
 347:.\Generated_Source\PSoC4/RTC.c **** * Summary:
 348:.\Generated_Source\PSoC4/RTC.c **** *  Sets the RTC time update API period. The user needs to pass the period as
 349:.\Generated_Source\PSoC4/RTC.c **** *  a number of ticks and also a reference number of ticks taken by the same clock
 350:.\Generated_Source\PSoC4/RTC.c **** *  source for one second. For instance, for a 32 kHz clock source and RTC
 351:.\Generated_Source\PSoC4/RTC.c **** *  period of 100 ms, the "ticks" value is 3200 and the "refOneSecTicks" value
 352:.\Generated_Source\PSoC4/RTC.c **** *  is 32000. This value is used to increment the time every time
 353:.\Generated_Source\PSoC4/RTC.c **** *  RTC_Update() API is called.
 354:.\Generated_Source\PSoC4/RTC.c **** *
 355:.\Generated_Source\PSoC4/RTC.c **** * Parameters:
 356:.\Generated_Source\PSoC4/RTC.c **** *  ticks: The clock period taken as a number of ticks.
 357:.\Generated_Source\PSoC4/RTC.c **** *
 358:.\Generated_Source\PSoC4/RTC.c **** *  refOneSecTicks: The reference number of ticks taken by the same clock source
 359:.\Generated_Source\PSoC4/RTC.c **** *                  for one second (the input clock frequency in Hz).
 360:.\Generated_Source\PSoC4/RTC.c **** *
 361:.\Generated_Source\PSoC4/RTC.c **** * Return:
 362:.\Generated_Source\PSoC4/RTC.c **** *  None.
 363:.\Generated_Source\PSoC4/RTC.c **** *
ARM GAS  C:\Users\Vitali\AppData\Local\Temp\ccu81yp2.s 			page 38


 364:.\Generated_Source\PSoC4/RTC.c **** *******************************************************************************/
 365:.\Generated_Source\PSoC4/RTC.c **** void RTC_SetPeriod(uint32 ticks, uint32 refOneSecTicks)
 366:.\Generated_Source\PSoC4/RTC.c **** {
 564              		.loc 2 366 0
 565              		.cfi_startproc
 566              	.LVL76:
 367:.\Generated_Source\PSoC4/RTC.c ****     RTC_updateTimePeriod = ticks;
 567              		.loc 2 367 0
 568 0000 014B     		ldr	r3, .L21
 368:.\Generated_Source\PSoC4/RTC.c ****     RTC_tickRefOneSec    = refOneSecTicks;
 369:.\Generated_Source\PSoC4/RTC.c **** }
 569              		.loc 2 369 0
 570              		@ sp needed
 368:.\Generated_Source\PSoC4/RTC.c ****     RTC_tickRefOneSec    = refOneSecTicks;
 571              		.loc 2 368 0
 572 0002 03C3     		stmia	r3!, {r0, r1}
 573              		.loc 2 369 0
 574 0004 7047     		bx	lr
 575              	.L22:
 576 0006 C046     		.align	2
 577              	.L21:
 578 0008 00000000 		.word	.LANCHOR0
 579              		.cfi_endproc
 580              	.LFE32:
 581              		.size	RTC_SetPeriod, .-RTC_SetPeriod
 582              		.section	.text.RTC_GetPeriod,"ax",%progbits
 583              		.align	1
 584              		.global	RTC_GetPeriod
 585              		.code	16
 586              		.thumb_func
 587              		.type	RTC_GetPeriod, %function
 588              	RTC_GetPeriod:
 589              	.LFB33:
 370:.\Generated_Source\PSoC4/RTC.c **** 
 371:.\Generated_Source\PSoC4/RTC.c **** 
 372:.\Generated_Source\PSoC4/RTC.c **** /*******************************************************************************
 373:.\Generated_Source\PSoC4/RTC.c **** * Function Name: RTC_SetPeriod
 374:.\Generated_Source\PSoC4/RTC.c **** ********************************************************************************
 375:.\Generated_Source\PSoC4/RTC.c **** *
 376:.\Generated_Source\PSoC4/RTC.c **** * Summary:
 377:.\Generated_Source\PSoC4/RTC.c **** *  Gets the RTC time update API period.
 378:.\Generated_Source\PSoC4/RTC.c **** *
 379:.\Generated_Source\PSoC4/RTC.c **** * Parameters:
 380:.\Generated_Source\PSoC4/RTC.c **** *  None.
 381:.\Generated_Source\PSoC4/RTC.c **** *
 382:.\Generated_Source\PSoC4/RTC.c **** * Return:
 383:.\Generated_Source\PSoC4/RTC.c **** *  period: The clock period taken as a number of ticks.
 384:.\Generated_Source\PSoC4/RTC.c **** *
 385:.\Generated_Source\PSoC4/RTC.c **** *******************************************************************************/
 386:.\Generated_Source\PSoC4/RTC.c **** uint32 RTC_GetPeriod(void)
 387:.\Generated_Source\PSoC4/RTC.c **** {
 590              		.loc 2 387 0
 591              		.cfi_startproc
 388:.\Generated_Source\PSoC4/RTC.c ****     return(RTC_updateTimePeriod);
 592              		.loc 2 388 0
 593 0000 014B     		ldr	r3, .L24
 389:.\Generated_Source\PSoC4/RTC.c **** }
ARM GAS  C:\Users\Vitali\AppData\Local\Temp\ccu81yp2.s 			page 39


 594              		.loc 2 389 0
 595              		@ sp needed
 388:.\Generated_Source\PSoC4/RTC.c ****     return(RTC_updateTimePeriod);
 596              		.loc 2 388 0
 597 0002 1868     		ldr	r0, [r3]
 598              		.loc 2 389 0
 599 0004 7047     		bx	lr
 600              	.L25:
 601 0006 C046     		.align	2
 602              	.L24:
 603 0008 00000000 		.word	.LANCHOR0
 604              		.cfi_endproc
 605              	.LFE33:
 606              		.size	RTC_GetPeriod, .-RTC_GetPeriod
 607              		.section	.text.RTC_GetRefOneSec,"ax",%progbits
 608              		.align	1
 609              		.global	RTC_GetRefOneSec
 610              		.code	16
 611              		.thumb_func
 612              		.type	RTC_GetRefOneSec, %function
 613              	RTC_GetRefOneSec:
 614              	.LFB34:
 390:.\Generated_Source\PSoC4/RTC.c **** 
 391:.\Generated_Source\PSoC4/RTC.c **** 
 392:.\Generated_Source\PSoC4/RTC.c **** /*******************************************************************************
 393:.\Generated_Source\PSoC4/RTC.c **** * Function Name: RTC_GetRefOneSec
 394:.\Generated_Source\PSoC4/RTC.c **** ********************************************************************************
 395:.\Generated_Source\PSoC4/RTC.c **** *
 396:.\Generated_Source\PSoC4/RTC.c **** * Summary:
 397:.\Generated_Source\PSoC4/RTC.c **** *  Gets the RTC time update API period.
 398:.\Generated_Source\PSoC4/RTC.c **** *
 399:.\Generated_Source\PSoC4/RTC.c **** * Parameters:
 400:.\Generated_Source\PSoC4/RTC.c **** *  None.
 401:.\Generated_Source\PSoC4/RTC.c **** *
 402:.\Generated_Source\PSoC4/RTC.c **** * Return:
 403:.\Generated_Source\PSoC4/RTC.c **** *  period: The reference number of ticks taken by the RTC clock source for one
 404:.\Generated_Source\PSoC4/RTC.c **** *          second.
 405:.\Generated_Source\PSoC4/RTC.c **** *
 406:.\Generated_Source\PSoC4/RTC.c **** *******************************************************************************/
 407:.\Generated_Source\PSoC4/RTC.c **** uint32 RTC_GetRefOneSec(void)
 408:.\Generated_Source\PSoC4/RTC.c **** {
 615              		.loc 2 408 0
 616              		.cfi_startproc
 409:.\Generated_Source\PSoC4/RTC.c ****     return(RTC_tickRefOneSec);
 617              		.loc 2 409 0
 618 0000 014B     		ldr	r3, .L27
 410:.\Generated_Source\PSoC4/RTC.c **** }
 619              		.loc 2 410 0
 620              		@ sp needed
 409:.\Generated_Source\PSoC4/RTC.c ****     return(RTC_tickRefOneSec);
 621              		.loc 2 409 0
 622 0002 5868     		ldr	r0, [r3, #4]
 623              		.loc 2 410 0
 624 0004 7047     		bx	lr
 625              	.L28:
 626 0006 C046     		.align	2
 627              	.L27:
ARM GAS  C:\Users\Vitali\AppData\Local\Temp\ccu81yp2.s 			page 40


 628 0008 00000000 		.word	.LANCHOR0
 629              		.cfi_endproc
 630              	.LFE34:
 631              		.size	RTC_GetRefOneSec, .-RTC_GetRefOneSec
 632              		.section	.text.RTC_GetAlarmDateAndTime,"ax",%progbits
 633              		.align	1
 634              		.global	RTC_GetAlarmDateAndTime
 635              		.code	16
 636              		.thumb_func
 637              		.type	RTC_GetAlarmDateAndTime, %function
 638              	RTC_GetAlarmDateAndTime:
 639              	.LFB39:
 411:.\Generated_Source\PSoC4/RTC.c **** 
 412:.\Generated_Source\PSoC4/RTC.c **** 
 413:.\Generated_Source\PSoC4/RTC.c **** /*******************************************************************************
 414:.\Generated_Source\PSoC4/RTC.c **** * Function Name: RTC_GetDateAndTime
 415:.\Generated_Source\PSoC4/RTC.c **** ********************************************************************************
 416:.\Generated_Source\PSoC4/RTC.c **** *
 417:.\Generated_Source\PSoC4/RTC.c **** * Summary:
 418:.\Generated_Source\PSoC4/RTC.c **** *  Reads the current time and date.
 419:.\Generated_Source\PSoC4/RTC.c **** *
 420:.\Generated_Source\PSoC4/RTC.c **** * Parameters:
 421:.\Generated_Source\PSoC4/RTC.c **** *  dateTime: The pointer to the RTC_date_time structure to which time and date is
 422:.\Generated_Source\PSoC4/RTC.c **** *            returned.
 423:.\Generated_Source\PSoC4/RTC.c **** *
 424:.\Generated_Source\PSoC4/RTC.c **** * Return:
 425:.\Generated_Source\PSoC4/RTC.c **** *  None.
 426:.\Generated_Source\PSoC4/RTC.c **** *
 427:.\Generated_Source\PSoC4/RTC.c **** *******************************************************************************/
 428:.\Generated_Source\PSoC4/RTC.c **** void RTC_GetDateAndTime(RTC_DATE_TIME* dateTime)
 429:.\Generated_Source\PSoC4/RTC.c **** {
 430:.\Generated_Source\PSoC4/RTC.c ****     RTC_UnixToDateTime(dateTime, (RTC_unixTime  + RTC_dstTimeOffset),
 431:.\Generated_Source\PSoC4/RTC.c ****                                                                             RTC_INITIAL_TIME_FORMAT
 432:.\Generated_Source\PSoC4/RTC.c **** }
 433:.\Generated_Source\PSoC4/RTC.c **** 
 434:.\Generated_Source\PSoC4/RTC.c **** 
 435:.\Generated_Source\PSoC4/RTC.c **** /*******************************************************************************
 436:.\Generated_Source\PSoC4/RTC.c **** * Function Name: RTC_GetTime
 437:.\Generated_Source\PSoC4/RTC.c **** ********************************************************************************
 438:.\Generated_Source\PSoC4/RTC.c **** *
 439:.\Generated_Source\PSoC4/RTC.c **** * Summary:
 440:.\Generated_Source\PSoC4/RTC.c **** *  Reads the current time.
 441:.\Generated_Source\PSoC4/RTC.c **** *
 442:.\Generated_Source\PSoC4/RTC.c **** * Parameters:
 443:.\Generated_Source\PSoC4/RTC.c **** *  None.
 444:.\Generated_Source\PSoC4/RTC.c **** *
 445:.\Generated_Source\PSoC4/RTC.c **** * Return:
 446:.\Generated_Source\PSoC4/RTC.c **** *  date: The value of date in the user selected format. The date value is available
 447:.\Generated_Source\PSoC4/RTC.c **** *        in the BCD format.
 448:.\Generated_Source\PSoC4/RTC.c **** *
 449:.\Generated_Source\PSoC4/RTC.c **** * Side Effects:
 450:.\Generated_Source\PSoC4/RTC.c **** *  Using RTC_GetTime and RTC_GetDate API separately might result
 451:.\Generated_Source\PSoC4/RTC.c **** *  in errors when the time wraps around the end of the day. To avoid this,
 452:.\Generated_Source\PSoC4/RTC.c **** *  use RTC_GetDateAndTime API.
 453:.\Generated_Source\PSoC4/RTC.c **** *
 454:.\Generated_Source\PSoC4/RTC.c **** *******************************************************************************/
 455:.\Generated_Source\PSoC4/RTC.c **** uint32 RTC_GetTime(void)
ARM GAS  C:\Users\Vitali\AppData\Local\Temp\ccu81yp2.s 			page 41


 456:.\Generated_Source\PSoC4/RTC.c **** {
 457:.\Generated_Source\PSoC4/RTC.c ****     RTC_UnixToDateTime(&RTC_currentTimeDate,
 458:.\Generated_Source\PSoC4/RTC.c ****                                     (RTC_unixTime  + RTC_dstTimeOffset),
 459:.\Generated_Source\PSoC4/RTC.c ****                                      RTC_INITIAL_TIME_FORMAT);
 460:.\Generated_Source\PSoC4/RTC.c **** 
 461:.\Generated_Source\PSoC4/RTC.c ****     return(RTC_currentTimeDate.time);
 462:.\Generated_Source\PSoC4/RTC.c **** }
 463:.\Generated_Source\PSoC4/RTC.c **** 
 464:.\Generated_Source\PSoC4/RTC.c **** 
 465:.\Generated_Source\PSoC4/RTC.c **** /*******************************************************************************
 466:.\Generated_Source\PSoC4/RTC.c **** * Function Name: RTC_GetDate
 467:.\Generated_Source\PSoC4/RTC.c **** ********************************************************************************
 468:.\Generated_Source\PSoC4/RTC.c **** *
 469:.\Generated_Source\PSoC4/RTC.c **** * Summary:
 470:.\Generated_Source\PSoC4/RTC.c **** *  Reads the current time.
 471:.\Generated_Source\PSoC4/RTC.c **** *
 472:.\Generated_Source\PSoC4/RTC.c **** * Parameters:
 473:.\Generated_Source\PSoC4/RTC.c **** *  None.
 474:.\Generated_Source\PSoC4/RTC.c **** *
 475:.\Generated_Source\PSoC4/RTC.c **** * Return:
 476:.\Generated_Source\PSoC4/RTC.c **** *  time: The time value in the format selected by the user (12/24 hr);
 477:.\Generated_Source\PSoC4/RTC.c **** *        The time value is available in the BCD format.
 478:.\Generated_Source\PSoC4/RTC.c **** *
 479:.\Generated_Source\PSoC4/RTC.c **** * Side Effects:
 480:.\Generated_Source\PSoC4/RTC.c **** *  Using RTC_GetTime and RTC_GetDate API separately
 481:.\Generated_Source\PSoC4/RTC.c **** *  might result in errors when the time wraps around the end of the day. To
 482:.\Generated_Source\PSoC4/RTC.c **** *  avoid this, use RTC_GetDateAndTime API.
 483:.\Generated_Source\PSoC4/RTC.c **** *
 484:.\Generated_Source\PSoC4/RTC.c **** *******************************************************************************/
 485:.\Generated_Source\PSoC4/RTC.c **** uint32 RTC_GetDate(void)
 486:.\Generated_Source\PSoC4/RTC.c **** {
 487:.\Generated_Source\PSoC4/RTC.c ****     RTC_UnixToDateTime(&RTC_currentTimeDate,
 488:.\Generated_Source\PSoC4/RTC.c ****                                     (RTC_unixTime  + RTC_dstTimeOffset),
 489:.\Generated_Source\PSoC4/RTC.c ****                                      RTC_INITIAL_TIME_FORMAT);
 490:.\Generated_Source\PSoC4/RTC.c **** 
 491:.\Generated_Source\PSoC4/RTC.c ****     return(RTC_currentTimeDate.date);
 492:.\Generated_Source\PSoC4/RTC.c **** }
 493:.\Generated_Source\PSoC4/RTC.c **** 
 494:.\Generated_Source\PSoC4/RTC.c **** 
 495:.\Generated_Source\PSoC4/RTC.c **** #if(0u != RTC_INITIAL_ALARM_STATUS)
 496:.\Generated_Source\PSoC4/RTC.c ****     /*******************************************************************************
 497:.\Generated_Source\PSoC4/RTC.c ****     * Function Name: RTC_SetAlarmDateAndTime
 498:.\Generated_Source\PSoC4/RTC.c ****     ********************************************************************************
 499:.\Generated_Source\PSoC4/RTC.c ****     *
 500:.\Generated_Source\PSoC4/RTC.c ****     * Summary:
 501:.\Generated_Source\PSoC4/RTC.c ****     *  Writes the time and date values as the current alarm time and date.
 502:.\Generated_Source\PSoC4/RTC.c ****     *
 503:.\Generated_Source\PSoC4/RTC.c ****     * Parameters:
 504:.\Generated_Source\PSoC4/RTC.c ****     *  alarmTime: The pointer to the RTC_date_time global structure where
 505:.\Generated_Source\PSoC4/RTC.c ****     *  new values of the alarm time and date are stored.
 506:.\Generated_Source\PSoC4/RTC.c ****     *
 507:.\Generated_Source\PSoC4/RTC.c ****     * Return:
 508:.\Generated_Source\PSoC4/RTC.c ****     *  None.
 509:.\Generated_Source\PSoC4/RTC.c ****     *
 510:.\Generated_Source\PSoC4/RTC.c ****     * Side Effects:
 511:.\Generated_Source\PSoC4/RTC.c ****     *  Invalid time entries are written with "00:00:00:00" for the 24-hour format and
 512:.\Generated_Source\PSoC4/RTC.c ****     *  "AM 12:00:00:00" for the 12-hour format. Invalid date entries are written with
ARM GAS  C:\Users\Vitali\AppData\Local\Temp\ccu81yp2.s 			page 42


 513:.\Generated_Source\PSoC4/RTC.c ****     *  a date equivalent to 01-JAN-2000.
 514:.\Generated_Source\PSoC4/RTC.c ****     *
 515:.\Generated_Source\PSoC4/RTC.c ****     *******************************************************************************/
 516:.\Generated_Source\PSoC4/RTC.c ****     void RTC_SetAlarmDateAndTime(const RTC_DATE_TIME* alarmTime)
 517:.\Generated_Source\PSoC4/RTC.c ****     {
 518:.\Generated_Source\PSoC4/RTC.c ****         RTC_alarmCfgTimeDate = *alarmTime;
 519:.\Generated_Source\PSoC4/RTC.c ****         RTC_unixTimeAlarm = RTC_ConstructUnixAlarmTime(alarmTime, (uint8)RTC_alarmCfgMask);
 520:.\Generated_Source\PSoC4/RTC.c ****     }
 521:.\Generated_Source\PSoC4/RTC.c **** 
 522:.\Generated_Source\PSoC4/RTC.c **** 
 523:.\Generated_Source\PSoC4/RTC.c ****     /*******************************************************************************
 524:.\Generated_Source\PSoC4/RTC.c ****     * Function Name: RTC_GetAlarmDateAndTime
 525:.\Generated_Source\PSoC4/RTC.c ****     ********************************************************************************
 526:.\Generated_Source\PSoC4/RTC.c ****     *
 527:.\Generated_Source\PSoC4/RTC.c ****     * Summary:
 528:.\Generated_Source\PSoC4/RTC.c ****     *  Reads the current alarm time and date.
 529:.\Generated_Source\PSoC4/RTC.c ****     *
 530:.\Generated_Source\PSoC4/RTC.c ****     * Parameters:
 531:.\Generated_Source\PSoC4/RTC.c ****     *  alarmTimeDate: The pointer to the RTC_date_time structure to which
 532:.\Generated_Source\PSoC4/RTC.c ****     *  the alarm date and time are returned.
 533:.\Generated_Source\PSoC4/RTC.c ****     *
 534:.\Generated_Source\PSoC4/RTC.c ****     * Return:
 535:.\Generated_Source\PSoC4/RTC.c ****     *  None.
 536:.\Generated_Source\PSoC4/RTC.c ****     *
 537:.\Generated_Source\PSoC4/RTC.c ****     *******************************************************************************/
 538:.\Generated_Source\PSoC4/RTC.c ****     void RTC_GetAlarmDateAndTime(RTC_DATE_TIME* alarmTimeDate)
 539:.\Generated_Source\PSoC4/RTC.c ****     {
 640              		.loc 2 539 0
 641              		.cfi_startproc
 642              	.LVL77:
 540:.\Generated_Source\PSoC4/RTC.c ****         *alarmTimeDate = RTC_alarmCfgTimeDate;
 643              		.loc 2 540 0
 644 0000 021C     		mov	r2, r0
 539:.\Generated_Source\PSoC4/RTC.c ****         *alarmTimeDate = RTC_alarmCfgTimeDate;
 645              		.loc 2 539 0
 646 0002 10B5     		push	{r4, lr}
 647              		.cfi_def_cfa_offset 8
 648              		.cfi_offset 4, -8
 649              		.cfi_offset 14, -4
 650              		.loc 2 540 0
 651 0004 024B     		ldr	r3, .L30
 541:.\Generated_Source\PSoC4/RTC.c ****     }
 652              		.loc 2 541 0
 653              		@ sp needed
 540:.\Generated_Source\PSoC4/RTC.c ****         *alarmTimeDate = RTC_alarmCfgTimeDate;
 654              		.loc 2 540 0
 655 0006 13CB     		ldmia	r3!, {r0, r1, r4}
 656 0008 13C2     		stmia	r2!, {r0, r1, r4}
 657              	.LVL78:
 658 000a 1B68     		ldr	r3, [r3]
 659 000c 1360     		str	r3, [r2]
 660              		.loc 2 541 0
 661 000e 10BD     		pop	{r4, pc}
 662              	.L31:
 663              		.align	2
 664              	.L30:
 665 0010 00000000 		.word	RTC_alarmCfgTimeDate
ARM GAS  C:\Users\Vitali\AppData\Local\Temp\ccu81yp2.s 			page 43


 666              		.cfi_endproc
 667              	.LFE39:
 668              		.size	RTC_GetAlarmDateAndTime, .-RTC_GetAlarmDateAndTime
 669              		.section	.text.RTC_GetAlarmMask,"ax",%progbits
 670              		.align	1
 671              		.global	RTC_GetAlarmMask
 672              		.code	16
 673              		.thumb_func
 674              		.type	RTC_GetAlarmMask, %function
 675              	RTC_GetAlarmMask:
 676              	.LFB41:
 542:.\Generated_Source\PSoC4/RTC.c **** 
 543:.\Generated_Source\PSoC4/RTC.c **** 
 544:.\Generated_Source\PSoC4/RTC.c ****     /*******************************************************************************
 545:.\Generated_Source\PSoC4/RTC.c ****     * Function Name: RTC_SetAlarmMask
 546:.\Generated_Source\PSoC4/RTC.c ****     ********************************************************************************
 547:.\Generated_Source\PSoC4/RTC.c ****     *
 548:.\Generated_Source\PSoC4/RTC.c ****     * Summary:
 549:.\Generated_Source\PSoC4/RTC.c ****     *  Writes the Alarm Mask software register with one bit per time/date entry.
 550:.\Generated_Source\PSoC4/RTC.c ****     *  The alarm is true when all masked time/date values match the Alarm values.
 551:.\Generated_Source\PSoC4/RTC.c ****     *  Generated only if the alarm functionality is enabled.
 552:.\Generated_Source\PSoC4/RTC.c ****     *
 553:.\Generated_Source\PSoC4/RTC.c ****     * Parameters:
 554:.\Generated_Source\PSoC4/RTC.c ****     *  mask: The Alarm Mask software register value. The values shown below can be
 555:.\Generated_Source\PSoC4/RTC.c ****     *        OR'ed and passed as an argument as well.
 556:.\Generated_Source\PSoC4/RTC.c ****     *
 557:.\Generated_Source\PSoC4/RTC.c ****     *       RTC_ALARM_SEC_MASK       - The second alarm mask allows
 558:.\Generated_Source\PSoC4/RTC.c ****     *                                               matching the alarm second
 559:.\Generated_Source\PSoC4/RTC.c ****     *                                               register with the current second
 560:.\Generated_Source\PSoC4/RTC.c ****     *                                               register.
 561:.\Generated_Source\PSoC4/RTC.c ****     *
 562:.\Generated_Source\PSoC4/RTC.c ****     *       RTC_ALARM_MIN_MASK       - The minute alarm mask allows
 563:.\Generated_Source\PSoC4/RTC.c ****     *                                               matching the alarm minute
 564:.\Generated_Source\PSoC4/RTC.c ****     *                                               register with the current minute
 565:.\Generated_Source\PSoC4/RTC.c ****     *                                               register.
 566:.\Generated_Source\PSoC4/RTC.c ****     *
 567:.\Generated_Source\PSoC4/RTC.c ****     *       RTC_ALARM_HOUR_MASK      - The hour alarm mask allows
 568:.\Generated_Source\PSoC4/RTC.c ****     *                                               matching the alarm hour register
 569:.\Generated_Source\PSoC4/RTC.c ****     *                                               with the current hour register.
 570:.\Generated_Source\PSoC4/RTC.c ****     *
 571:.\Generated_Source\PSoC4/RTC.c ****     *       RTC_ALARM_DAYOFWEEK_MASK - The day of the week alarm mask
 572:.\Generated_Source\PSoC4/RTC.c ****     *                                               allows matching the alarm
 573:.\Generated_Source\PSoC4/RTC.c ****     *                                               day of the week register with the
 574:.\Generated_Source\PSoC4/RTC.c ****     *                                               current day of the week register.
 575:.\Generated_Source\PSoC4/RTC.c ****     *
 576:.\Generated_Source\PSoC4/RTC.c ****     *       RTC_ALARM_DAYOFMONTH_MASK  - The day of the month alarm mask
 577:.\Generated_Source\PSoC4/RTC.c ****     *                                                 allows matching the alarm
 578:.\Generated_Source\PSoC4/RTC.c ****     *                                                 day of the month register with the
 579:.\Generated_Source\PSoC4/RTC.c ****     *                                                 current day of the month register.
 580:.\Generated_Source\PSoC4/RTC.c ****     *
 581:.\Generated_Source\PSoC4/RTC.c ****     *       RTC_ALARM_MONTH_MASK    - The month alarm mask allows
 582:.\Generated_Source\PSoC4/RTC.c ****     *                                              matching the alarm month register
 583:.\Generated_Source\PSoC4/RTC.c ****     *                                              with the current month register.
 584:.\Generated_Source\PSoC4/RTC.c ****     *
 585:.\Generated_Source\PSoC4/RTC.c ****     *       RTC_ALARM_YEAR_MASK      - The year alarm mask allows
 586:.\Generated_Source\PSoC4/RTC.c ****     *                                               matching the alarm year register
 587:.\Generated_Source\PSoC4/RTC.c ****     *                                               with the current year register.
ARM GAS  C:\Users\Vitali\AppData\Local\Temp\ccu81yp2.s 			page 44


 588:.\Generated_Source\PSoC4/RTC.c ****     *
 589:.\Generated_Source\PSoC4/RTC.c ****     * Return:
 590:.\Generated_Source\PSoC4/RTC.c ****     *  None.
 591:.\Generated_Source\PSoC4/RTC.c ****     *
 592:.\Generated_Source\PSoC4/RTC.c ****     *******************************************************************************/
 593:.\Generated_Source\PSoC4/RTC.c ****     void RTC_SetAlarmMask(uint32 mask)
 594:.\Generated_Source\PSoC4/RTC.c ****     {
 595:.\Generated_Source\PSoC4/RTC.c ****         RTC_alarmCfgMask = (uint8)mask;
 596:.\Generated_Source\PSoC4/RTC.c ****         RTC_unixTimeAlarm = RTC_ConstructUnixAlarmTime(&RTC_alarmCfgTimeDate, (uint8)mask);
 597:.\Generated_Source\PSoC4/RTC.c ****     }
 598:.\Generated_Source\PSoC4/RTC.c **** 
 599:.\Generated_Source\PSoC4/RTC.c **** 
 600:.\Generated_Source\PSoC4/RTC.c ****     /*******************************************************************************
 601:.\Generated_Source\PSoC4/RTC.c ****     * Function Name: RTC_GetAlarmMask
 602:.\Generated_Source\PSoC4/RTC.c ****     ********************************************************************************
 603:.\Generated_Source\PSoC4/RTC.c ****     *
 604:.\Generated_Source\PSoC4/RTC.c ****     * Summary:
 605:.\Generated_Source\PSoC4/RTC.c ****     *  Reads the Alarm Mask software register. Generated only if the alarm functionality
 606:.\Generated_Source\PSoC4/RTC.c ****     *  is enabled.
 607:.\Generated_Source\PSoC4/RTC.c ****     *
 608:.\Generated_Source\PSoC4/RTC.c ****     * Parameters:
 609:.\Generated_Source\PSoC4/RTC.c ****     *  None.
 610:.\Generated_Source\PSoC4/RTC.c ****     *
 611:.\Generated_Source\PSoC4/RTC.c ****     * Return:
 612:.\Generated_Source\PSoC4/RTC.c ****     *  The Alarm Mask value with each bit representing the status of the alarm time/date
 613:.\Generated_Source\PSoC4/RTC.c ****     *  match enable.
 614:.\Generated_Source\PSoC4/RTC.c ****     *
 615:.\Generated_Source\PSoC4/RTC.c ****     *  RTC_ALARM_SEC_MASK        - The second alarm mask allows
 616:.\Generated_Source\PSoC4/RTC.c ****     *                                           matching the alarm second register with
 617:.\Generated_Source\PSoC4/RTC.c ****     *                                           the current second register.
 618:.\Generated_Source\PSoC4/RTC.c ****     *
 619:.\Generated_Source\PSoC4/RTC.c ****     *  RTC_ALARM_MIN_MASK        - The minute alarm mask allows
 620:.\Generated_Source\PSoC4/RTC.c ****     *                                           matching the alarm minute register with
 621:.\Generated_Source\PSoC4/RTC.c ****     *                                           the current minute register.
 622:.\Generated_Source\PSoC4/RTC.c ****     *
 623:.\Generated_Source\PSoC4/RTC.c ****     *  RTC_ALARM_HOUR_MASK       - The hour alarm mask allows
 624:.\Generated_Source\PSoC4/RTC.c ****     *                                           matching the alarm hour register with
 625:.\Generated_Source\PSoC4/RTC.c ****     *                                           the current hour register.
 626:.\Generated_Source\PSoC4/RTC.c ****     *
 627:.\Generated_Source\PSoC4/RTC.c ****     *  RTC_ALARM_DAYOFWEEK_MASK  - The day of the week alarm mask allows
 628:.\Generated_Source\PSoC4/RTC.c ****     *                                           matching the alarm day of the week
 629:.\Generated_Source\PSoC4/RTC.c ****     *                                           register with the current day of
 630:.\Generated_Source\PSoC4/RTC.c ****     *                                           the week register.
 631:.\Generated_Source\PSoC4/RTC.c ****     *
 632:.\Generated_Source\PSoC4/RTC.c ****     *  RTC_ALARM_DAYOFMONTH_MASK - The day of the month alarm mask allows
 633:.\Generated_Source\PSoC4/RTC.c ****     *                                           matching the alarm day of the month
 634:.\Generated_Source\PSoC4/RTC.c ****     *                                           register with the current day of
 635:.\Generated_Source\PSoC4/RTC.c ****     *                                           the month register.
 636:.\Generated_Source\PSoC4/RTC.c ****     *
 637:.\Generated_Source\PSoC4/RTC.c ****     *  RTC_ALARM_MONTH_MASK      - The month alarm mask allows
 638:.\Generated_Source\PSoC4/RTC.c ****     *                                           matching the alarm month register with
 639:.\Generated_Source\PSoC4/RTC.c ****     *                                           the current month register.
 640:.\Generated_Source\PSoC4/RTC.c ****     *
 641:.\Generated_Source\PSoC4/RTC.c ****     *  RTC_ALARM_YEAR_MASK       - The year alarm mask allows
 642:.\Generated_Source\PSoC4/RTC.c ****     *                                           matching the alarm year register with
 643:.\Generated_Source\PSoC4/RTC.c ****     *                                           the current year register.
 644:.\Generated_Source\PSoC4/RTC.c ****     *
ARM GAS  C:\Users\Vitali\AppData\Local\Temp\ccu81yp2.s 			page 45


 645:.\Generated_Source\PSoC4/RTC.c ****     *******************************************************************************/
 646:.\Generated_Source\PSoC4/RTC.c ****     uint32 RTC_GetAlarmMask(void)
 647:.\Generated_Source\PSoC4/RTC.c ****     {
 677              		.loc 2 647 0
 678              		.cfi_startproc
 648:.\Generated_Source\PSoC4/RTC.c ****         return((uint32)RTC_alarmCfgMask);
 679              		.loc 2 648 0
 680 0000 014B     		ldr	r3, .L33
 649:.\Generated_Source\PSoC4/RTC.c ****     }
 681              		.loc 2 649 0
 682              		@ sp needed
 648:.\Generated_Source\PSoC4/RTC.c ****         return((uint32)RTC_alarmCfgMask);
 683              		.loc 2 648 0
 684 0002 1868     		ldr	r0, [r3]
 685              		.loc 2 649 0
 686 0004 7047     		bx	lr
 687              	.L34:
 688 0006 C046     		.align	2
 689              	.L33:
 690 0008 00000000 		.word	.LANCHOR1
 691              		.cfi_endproc
 692              	.LFE41:
 693              		.size	RTC_GetAlarmMask, .-RTC_GetAlarmMask
 694              		.section	.text.RTC_GetAlarmStatus,"ax",%progbits
 695              		.align	1
 696              		.global	RTC_GetAlarmStatus
 697              		.code	16
 698              		.thumb_func
 699              		.type	RTC_GetAlarmStatus, %function
 700              	RTC_GetAlarmStatus:
 701              	.LFB42:
 650:.\Generated_Source\PSoC4/RTC.c **** 
 651:.\Generated_Source\PSoC4/RTC.c **** 
 652:.\Generated_Source\PSoC4/RTC.c ****     /*******************************************************************************
 653:.\Generated_Source\PSoC4/RTC.c ****     * Function Name: RTC_GetAlarmStatus
 654:.\Generated_Source\PSoC4/RTC.c ****     ********************************************************************************
 655:.\Generated_Source\PSoC4/RTC.c ****     *
 656:.\Generated_Source\PSoC4/RTC.c ****     * Summary:
 657:.\Generated_Source\PSoC4/RTC.c ****     *  Returns the alarm status of RTC.
 658:.\Generated_Source\PSoC4/RTC.c ****     *
 659:.\Generated_Source\PSoC4/RTC.c ****     * Parameters:
 660:.\Generated_Source\PSoC4/RTC.c ****     *  None.
 661:.\Generated_Source\PSoC4/RTC.c ****     *
 662:.\Generated_Source\PSoC4/RTC.c ****     * Return:
 663:.\Generated_Source\PSoC4/RTC.c ****     *  The Alarm active status. This bit is high when the current time and date match the alarm
 664:.\Generated_Source\PSoC4/RTC.c ****     *  time and date.
 665:.\Generated_Source\PSoC4/RTC.c ****     *
 666:.\Generated_Source\PSoC4/RTC.c ****     *  0 - The Alarm status is not active.
 667:.\Generated_Source\PSoC4/RTC.c ****     *  1 - The Alarm status is active.
 668:.\Generated_Source\PSoC4/RTC.c ****     *
 669:.\Generated_Source\PSoC4/RTC.c ****     *******************************************************************************/
 670:.\Generated_Source\PSoC4/RTC.c ****     uint32 RTC_GetAlarmStatus(void)
 671:.\Generated_Source\PSoC4/RTC.c ****     {
 702              		.loc 2 671 0
 703              		.cfi_startproc
 672:.\Generated_Source\PSoC4/RTC.c ****         return((0uL != (RTC_currentTimeDate.status & (1uL << RTC_STATUS_ALARM_OFFSET))) ? 1uL : 0uL
 704              		.loc 2 672 0
ARM GAS  C:\Users\Vitali\AppData\Local\Temp\ccu81yp2.s 			page 46


 705 0000 024B     		ldr	r3, .L36
 673:.\Generated_Source\PSoC4/RTC.c ****     }
 706              		.loc 2 673 0
 707              		@ sp needed
 672:.\Generated_Source\PSoC4/RTC.c ****         return((0uL != (RTC_currentTimeDate.status & (1uL << RTC_STATUS_ALARM_OFFSET))) ? 1uL : 0uL
 708              		.loc 2 672 0
 709 0002 D868     		ldr	r0, [r3, #12]
 710 0004 4007     		lsl	r0, r0, #29
 711 0006 C00F     		lsr	r0, r0, #31
 712              		.loc 2 673 0
 713 0008 7047     		bx	lr
 714              	.L37:
 715 000a C046     		.align	2
 716              	.L36:
 717 000c 00000000 		.word	RTC_currentTimeDate
 718              		.cfi_endproc
 719              	.LFE42:
 720              		.size	RTC_GetAlarmStatus, .-RTC_GetAlarmStatus
 721              		.section	.text.RTC_ClearAlarmStatus,"ax",%progbits
 722              		.align	1
 723              		.global	RTC_ClearAlarmStatus
 724              		.code	16
 725              		.thumb_func
 726              		.type	RTC_ClearAlarmStatus, %function
 727              	RTC_ClearAlarmStatus:
 728              	.LFB43:
 674:.\Generated_Source\PSoC4/RTC.c **** 
 675:.\Generated_Source\PSoC4/RTC.c **** 
 676:.\Generated_Source\PSoC4/RTC.c ****     /*******************************************************************************
 677:.\Generated_Source\PSoC4/RTC.c ****     * Function Name: RTC_ClearAlarmStatus
 678:.\Generated_Source\PSoC4/RTC.c ****     ********************************************************************************
 679:.\Generated_Source\PSoC4/RTC.c ****     *
 680:.\Generated_Source\PSoC4/RTC.c ****     * Summary:
 681:.\Generated_Source\PSoC4/RTC.c ****     *  Clears the alarm status of RTC.
 682:.\Generated_Source\PSoC4/RTC.c ****     *
 683:.\Generated_Source\PSoC4/RTC.c ****     * Parameters:
 684:.\Generated_Source\PSoC4/RTC.c ****     *  None.
 685:.\Generated_Source\PSoC4/RTC.c ****     *
 686:.\Generated_Source\PSoC4/RTC.c ****     * Return:
 687:.\Generated_Source\PSoC4/RTC.c ****     *  None.
 688:.\Generated_Source\PSoC4/RTC.c ****     *
 689:.\Generated_Source\PSoC4/RTC.c ****     * Side Effects:
 690:.\Generated_Source\PSoC4/RTC.c ****     *  The Alarm active (AA) flag clears after read. This bit will be set in the next
 691:.\Generated_Source\PSoC4/RTC.c ****     *  alarm match event only. If Alarm is set on only minutes and the alarm
 692:.\Generated_Source\PSoC4/RTC.c ****     *  minutes is 20 minutes - the alarm triggers once every 20th minute of
 693:.\Generated_Source\PSoC4/RTC.c ****     *  every hour.
 694:.\Generated_Source\PSoC4/RTC.c ****     *
 695:.\Generated_Source\PSoC4/RTC.c ****     *******************************************************************************/
 696:.\Generated_Source\PSoC4/RTC.c ****     void RTC_ClearAlarmStatus(void)
 697:.\Generated_Source\PSoC4/RTC.c ****     {
 729              		.loc 2 697 0
 730              		.cfi_startproc
 698:.\Generated_Source\PSoC4/RTC.c ****         RTC_currentTimeDate.status &= (~(1uL << RTC_STATUS_ALARM_OFFSET));
 731              		.loc 2 698 0
 732 0000 0423     		mov	r3, #4
 733 0002 044A     		ldr	r2, .L39
 699:.\Generated_Source\PSoC4/RTC.c ****         RTC_alarmCurStatus = 0u;
ARM GAS  C:\Users\Vitali\AppData\Local\Temp\ccu81yp2.s 			page 47


 700:.\Generated_Source\PSoC4/RTC.c ****     }
 734              		.loc 2 700 0
 735              		@ sp needed
 698:.\Generated_Source\PSoC4/RTC.c ****         RTC_currentTimeDate.status &= (~(1uL << RTC_STATUS_ALARM_OFFSET));
 736              		.loc 2 698 0
 737 0004 D168     		ldr	r1, [r2, #12]
 738 0006 9943     		bic	r1, r3
 739 0008 D160     		str	r1, [r2, #12]
 699:.\Generated_Source\PSoC4/RTC.c ****         RTC_alarmCurStatus = 0u;
 740              		.loc 2 699 0
 741 000a 0022     		mov	r2, #0
 742 000c 024B     		ldr	r3, .L39+4
 743 000e 1A60     		str	r2, [r3]
 744              		.loc 2 700 0
 745 0010 7047     		bx	lr
 746              	.L40:
 747 0012 C046     		.align	2
 748              	.L39:
 749 0014 00000000 		.word	RTC_currentTimeDate
 750 0018 00000000 		.word	RTC_alarmCurStatus
 751              		.cfi_endproc
 752              	.LFE43:
 753              		.size	RTC_ClearAlarmStatus, .-RTC_ClearAlarmStatus
 754              		.section	.text.RTC_SetAlarmHandler,"ax",%progbits
 755              		.align	1
 756              		.global	RTC_SetAlarmHandler
 757              		.code	16
 758              		.thumb_func
 759              		.type	RTC_SetAlarmHandler, %function
 760              	RTC_SetAlarmHandler:
 761              	.LFB44:
 701:.\Generated_Source\PSoC4/RTC.c **** 
 702:.\Generated_Source\PSoC4/RTC.c **** 
 703:.\Generated_Source\PSoC4/RTC.c ****     /*******************************************************************************
 704:.\Generated_Source\PSoC4/RTC.c ****     * Function Name: RTC_SetAlarmHandler
 705:.\Generated_Source\PSoC4/RTC.c ****     ********************************************************************************
 706:.\Generated_Source\PSoC4/RTC.c ****     *
 707:.\Generated_Source\PSoC4/RTC.c ****     * Summary:
 708:.\Generated_Source\PSoC4/RTC.c ****     *  This API sets the function to be called when the alarm goes off / triggers.
 709:.\Generated_Source\PSoC4/RTC.c ****     *  This API is generated only if the alarm functionality is enabled in the
 710:.\Generated_Source\PSoC4/RTC.c ****     *  customizer.
 711:.\Generated_Source\PSoC4/RTC.c ****     *
 712:.\Generated_Source\PSoC4/RTC.c ****     * Parameters:
 713:.\Generated_Source\PSoC4/RTC.c ****     *  CallbackFunction: The callback function address.
 714:.\Generated_Source\PSoC4/RTC.c ****     *
 715:.\Generated_Source\PSoC4/RTC.c ****     * Return:
 716:.\Generated_Source\PSoC4/RTC.c ****     *  A previous callback function address.
 717:.\Generated_Source\PSoC4/RTC.c ****     *
 718:.\Generated_Source\PSoC4/RTC.c ****     *******************************************************************************/
 719:.\Generated_Source\PSoC4/RTC.c ****     void* RTC_SetAlarmHandler(void (*CallbackFunction)(void))
 720:.\Generated_Source\PSoC4/RTC.c ****     {
 762              		.loc 2 720 0
 763              		.cfi_startproc
 764              	.LVL79:
 721:.\Generated_Source\PSoC4/RTC.c ****         void (*tmpCallbackPtr)(void);
 722:.\Generated_Source\PSoC4/RTC.c **** 
 723:.\Generated_Source\PSoC4/RTC.c ****         tmpCallbackPtr = RTC_alarmCallbackPtr;
ARM GAS  C:\Users\Vitali\AppData\Local\Temp\ccu81yp2.s 			page 48


 765              		.loc 2 723 0
 766 0000 024B     		ldr	r3, .L42
 724:.\Generated_Source\PSoC4/RTC.c ****         RTC_alarmCallbackPtr = CallbackFunction;
 725:.\Generated_Source\PSoC4/RTC.c **** 
 726:.\Generated_Source\PSoC4/RTC.c ****         return((void*)tmpCallbackPtr);
 727:.\Generated_Source\PSoC4/RTC.c ****     }
 767              		.loc 2 727 0
 768              		@ sp needed
 723:.\Generated_Source\PSoC4/RTC.c ****         RTC_alarmCallbackPtr = CallbackFunction;
 769              		.loc 2 723 0
 770 0002 9A68     		ldr	r2, [r3, #8]
 771              	.LVL80:
 724:.\Generated_Source\PSoC4/RTC.c ****         RTC_alarmCallbackPtr = CallbackFunction;
 772              		.loc 2 724 0
 773 0004 9860     		str	r0, [r3, #8]
 774              		.loc 2 727 0
 775 0006 101C     		mov	r0, r2
 776              	.LVL81:
 777 0008 7047     		bx	lr
 778              	.L43:
 779 000a C046     		.align	2
 780              	.L42:
 781 000c 00000000 		.word	.LANCHOR0
 782              		.cfi_endproc
 783              	.LFE44:
 784              		.size	RTC_SetAlarmHandler, .-RTC_SetAlarmHandler
 785              		.section	.text.RTC_ConvertBCDToDec,"ax",%progbits
 786              		.align	1
 787              		.global	RTC_ConvertBCDToDec
 788              		.code	16
 789              		.thumb_func
 790              		.type	RTC_ConvertBCDToDec, %function
 791              	RTC_ConvertBCDToDec:
 792              	.LFB48:
 728:.\Generated_Source\PSoC4/RTC.c **** 
 729:.\Generated_Source\PSoC4/RTC.c **** 
 730:.\Generated_Source\PSoC4/RTC.c ****     /*******************************************************************************
 731:.\Generated_Source\PSoC4/RTC.c ****     * Function Name: RTC_GetNexAlarmTime
 732:.\Generated_Source\PSoC4/RTC.c ****     ********************************************************************************
 733:.\Generated_Source\PSoC4/RTC.c ****     *
 734:.\Generated_Source\PSoC4/RTC.c ****     * Summary:
 735:.\Generated_Source\PSoC4/RTC.c ****     *  This is an internal function that calculates the time of the next alarm
 736:.\Generated_Source\PSoC4/RTC.c ****     *  in the UNIX format taking into account the current "Alarm Config Mask".
 737:.\Generated_Source\PSoC4/RTC.c ****     *
 738:.\Generated_Source\PSoC4/RTC.c ****     * Parameters:
 739:.\Generated_Source\PSoC4/RTC.c ****     *  curUnixTime  - The current time value in the UNIX format.
 740:.\Generated_Source\PSoC4/RTC.c ****     *  alarmCfgMask - The current Alarm Config Mask.
 741:.\Generated_Source\PSoC4/RTC.c ****     *
 742:.\Generated_Source\PSoC4/RTC.c ****     * Return:
 743:.\Generated_Source\PSoC4/RTC.c ****     *  Returns time of the next alarm in the UNIX format.
 744:.\Generated_Source\PSoC4/RTC.c ****     *
 745:.\Generated_Source\PSoC4/RTC.c ****     *******************************************************************************/
 746:.\Generated_Source\PSoC4/RTC.c ****     uint64 RTC_GetNexAlarmTime(uint64 curUnixTime, uint8 alarmCfgMask)
 747:.\Generated_Source\PSoC4/RTC.c ****     {
 748:.\Generated_Source\PSoC4/RTC.c ****         uint32 prevVal;
 749:.\Generated_Source\PSoC4/RTC.c ****         uint32 nextVal;
 750:.\Generated_Source\PSoC4/RTC.c ****         uint32 carryFlag;
ARM GAS  C:\Users\Vitali\AppData\Local\Temp\ccu81yp2.s 			page 49


 751:.\Generated_Source\PSoC4/RTC.c ****         uint32 daysInMonth;
 752:.\Generated_Source\PSoC4/RTC.c ****         RTC_DATE_TIME curDateTime;
 753:.\Generated_Source\PSoC4/RTC.c **** 
 754:.\Generated_Source\PSoC4/RTC.c ****         carryFlag = 1u;
 755:.\Generated_Source\PSoC4/RTC.c ****         RTC_UnixToDateTime(&curDateTime, curUnixTime, (uint32)RTC_24_HOURS_FORMAT);
 756:.\Generated_Source\PSoC4/RTC.c **** 
 757:.\Generated_Source\PSoC4/RTC.c ****         /* Calculates Second value of next alarm time based on current time and Alarm Config Mask. 
 758:.\Generated_Source\PSoC4/RTC.c ****         if(0uL != ((~((uint32)alarmCfgMask)) & RTC_ALARM_SEC_MASK))
 759:.\Generated_Source\PSoC4/RTC.c ****         {
 760:.\Generated_Source\PSoC4/RTC.c ****             prevVal = RTC_GetSecond(curDateTime.time);
 761:.\Generated_Source\PSoC4/RTC.c ****             nextVal = RTC_GetNextMinSec(prevVal);
 762:.\Generated_Source\PSoC4/RTC.c ****             curDateTime.time = RTC_SetSecond(curDateTime.time, nextVal);
 763:.\Generated_Source\PSoC4/RTC.c ****             carryFlag = (nextVal < prevVal) ? 1u : 0u;
 764:.\Generated_Source\PSoC4/RTC.c ****         }
 765:.\Generated_Source\PSoC4/RTC.c **** 
 766:.\Generated_Source\PSoC4/RTC.c ****         /* Calculates Minute value of next alarm time based on current time and Alarm Config Mask. 
 767:.\Generated_Source\PSoC4/RTC.c ****         if((0uL != carryFlag) && (0uL != ((~((uint32)alarmCfgMask)) & RTC_ALARM_MIN_MASK)))
 768:.\Generated_Source\PSoC4/RTC.c ****         {
 769:.\Generated_Source\PSoC4/RTC.c ****             prevVal = RTC_GetMinutes(curDateTime.time);
 770:.\Generated_Source\PSoC4/RTC.c ****             nextVal = RTC_GetNextMinSec(prevVal);
 771:.\Generated_Source\PSoC4/RTC.c ****             curDateTime.time = RTC_SetMinutes(curDateTime.time, nextVal);
 772:.\Generated_Source\PSoC4/RTC.c ****             carryFlag = (nextVal < prevVal) ? 1u : 0u;
 773:.\Generated_Source\PSoC4/RTC.c ****         }
 774:.\Generated_Source\PSoC4/RTC.c **** 
 775:.\Generated_Source\PSoC4/RTC.c ****         /* Calculates Hour value of next alarm time based on current time and Alarm Config Mask. */
 776:.\Generated_Source\PSoC4/RTC.c ****         if((0uL != carryFlag) && (0uL != ((~((uint32)alarmCfgMask)) & RTC_ALARM_HOUR_MASK)))
 777:.\Generated_Source\PSoC4/RTC.c ****         {
 778:.\Generated_Source\PSoC4/RTC.c ****             prevVal = RTC_GetHours(curDateTime.time);
 779:.\Generated_Source\PSoC4/RTC.c ****             nextVal = RTC_GetNextHour(prevVal);
 780:.\Generated_Source\PSoC4/RTC.c ****             curDateTime.time = RTC_SetHours(curDateTime.time, nextVal);
 781:.\Generated_Source\PSoC4/RTC.c ****             carryFlag = (nextVal < prevVal) ? 1u : 0u;
 782:.\Generated_Source\PSoC4/RTC.c ****         }
 783:.\Generated_Source\PSoC4/RTC.c **** 
 784:.\Generated_Source\PSoC4/RTC.c ****         /* Calculates Day value of next alarm time based on current time and Alarm Config Mask. */
 785:.\Generated_Source\PSoC4/RTC.c ****         if((0uL != carryFlag) && (0uL != ((~((uint32)alarmCfgMask)) & RTC_ALARM_DAYOFMONTH_MASK)))
 786:.\Generated_Source\PSoC4/RTC.c ****         {
 787:.\Generated_Source\PSoC4/RTC.c ****             prevVal = RTC_GetDay(curDateTime.date);
 788:.\Generated_Source\PSoC4/RTC.c ****             if(0u != (alarmCfgMask & RTC_ALARM_DAYOFWEEK_MASK))
 789:.\Generated_Source\PSoC4/RTC.c ****             {
 790:.\Generated_Source\PSoC4/RTC.c ****                 daysInMonth = RTC_DaysInMonth(RTC_GetMonth(curDateTime.date),
 791:.\Generated_Source\PSoC4/RTC.c ****                                                            RTC_GetYear(curDateTime.date));
 792:.\Generated_Source\PSoC4/RTC.c ****                 nextVal = prevVal + RTC_DAYS_PER_WEEK;
 793:.\Generated_Source\PSoC4/RTC.c ****                 nextVal = (nextVal > daysInMonth) ? (nextVal - daysInMonth) : nextVal;
 794:.\Generated_Source\PSoC4/RTC.c ****             }
 795:.\Generated_Source\PSoC4/RTC.c ****             else
 796:.\Generated_Source\PSoC4/RTC.c ****             {
 797:.\Generated_Source\PSoC4/RTC.c ****                 nextVal = RTC_GetNextDay(RTC_GetYear(curDateTime.date),
 798:.\Generated_Source\PSoC4/RTC.c ****                                                       RTC_GetMonth(curDateTime.date),
 799:.\Generated_Source\PSoC4/RTC.c ****                                                       RTC_GetDay(curDateTime.date),
 800:.\Generated_Source\PSoC4/RTC.c ****                                                       (~((uint32)alarmCfgMask)));
 801:.\Generated_Source\PSoC4/RTC.c ****             }
 802:.\Generated_Source\PSoC4/RTC.c ****             curDateTime.date = RTC_SetDay(curDateTime.date, nextVal);
 803:.\Generated_Source\PSoC4/RTC.c ****             carryFlag = (nextVal < prevVal) ? 1u : 0u;
 804:.\Generated_Source\PSoC4/RTC.c ****         }
 805:.\Generated_Source\PSoC4/RTC.c **** 
 806:.\Generated_Source\PSoC4/RTC.c ****         /* Calculates Month value of next alarm time based on current time and Alarm Config Mask. *
 807:.\Generated_Source\PSoC4/RTC.c ****         if((0uL != carryFlag) && (0uL != ((~((uint32)alarmCfgMask)) & RTC_ALARM_MONTH_MASK)))
ARM GAS  C:\Users\Vitali\AppData\Local\Temp\ccu81yp2.s 			page 50


 808:.\Generated_Source\PSoC4/RTC.c ****         {
 809:.\Generated_Source\PSoC4/RTC.c ****             prevVal = RTC_GetMonth(curDateTime.date);
 810:.\Generated_Source\PSoC4/RTC.c ****             nextVal = RTC_GetNextMonth(prevVal);
 811:.\Generated_Source\PSoC4/RTC.c ****             curDateTime.date = RTC_SetMonth(curDateTime.date, nextVal);
 812:.\Generated_Source\PSoC4/RTC.c ****             carryFlag = (nextVal < prevVal) ? 1u : 0u;
 813:.\Generated_Source\PSoC4/RTC.c ****         }
 814:.\Generated_Source\PSoC4/RTC.c **** 
 815:.\Generated_Source\PSoC4/RTC.c ****         /* Calculates Year value of next alarm time based on current time and Alarm Config Mask. */
 816:.\Generated_Source\PSoC4/RTC.c ****         if((0uL != carryFlag) && (0uL != ((~((uint32)alarmCfgMask)) & RTC_ALARM_YEAR_MASK)))
 817:.\Generated_Source\PSoC4/RTC.c ****         {
 818:.\Generated_Source\PSoC4/RTC.c ****             prevVal = RTC_GetYear(curDateTime.date);
 819:.\Generated_Source\PSoC4/RTC.c ****             nextVal = RTC_GetNextYear(prevVal);
 820:.\Generated_Source\PSoC4/RTC.c ****             curDateTime.date = RTC_SetYear(curDateTime.date, nextVal);
 821:.\Generated_Source\PSoC4/RTC.c ****         }
 822:.\Generated_Source\PSoC4/RTC.c **** 
 823:.\Generated_Source\PSoC4/RTC.c ****         return(RTC_DateTimeToUnix(curDateTime.date, curDateTime.time));
 824:.\Generated_Source\PSoC4/RTC.c ****     }
 825:.\Generated_Source\PSoC4/RTC.c **** 
 826:.\Generated_Source\PSoC4/RTC.c **** 
 827:.\Generated_Source\PSoC4/RTC.c ****     /*******************************************************************************
 828:.\Generated_Source\PSoC4/RTC.c ****     * Function Name: RTC_ConstructUnixAlarmTime
 829:.\Generated_Source\PSoC4/RTC.c ****     ********************************************************************************
 830:.\Generated_Source\PSoC4/RTC.c ****     *
 831:.\Generated_Source\PSoC4/RTC.c ****     * Summary:
 832:.\Generated_Source\PSoC4/RTC.c ****     *  This is an internal function that calculates the time of the first alarm
 833:.\Generated_Source\PSoC4/RTC.c ****     *  in the UNIX format taking into account the current "Alarm Config Mask".
 834:.\Generated_Source\PSoC4/RTC.c ****     *
 835:.\Generated_Source\PSoC4/RTC.c ****     * Parameters:
 836:.\Generated_Source\PSoC4/RTC.c ****     *  alarmTime - Desired alarm time in the regular time format.
 837:.\Generated_Source\PSoC4/RTC.c ****     *
 838:.\Generated_Source\PSoC4/RTC.c ****     * Return:
 839:.\Generated_Source\PSoC4/RTC.c ****     *  Returns time of the first alarm in the UNIX format.
 840:.\Generated_Source\PSoC4/RTC.c ****     *
 841:.\Generated_Source\PSoC4/RTC.c ****     *******************************************************************************/
 842:.\Generated_Source\PSoC4/RTC.c ****     uint64 RTC_ConstructUnixAlarmTime(const RTC_DATE_TIME* alarmTime, uint8 alarmCfgMask)
 843:.\Generated_Source\PSoC4/RTC.c ****     {
 844:.\Generated_Source\PSoC4/RTC.c ****         uint32 tmpCurVal;
 845:.\Generated_Source\PSoC4/RTC.c ****         uint32 tmpNextVal;
 846:.\Generated_Source\PSoC4/RTC.c ****         uint32 carryFlag;
 847:.\Generated_Source\PSoC4/RTC.c ****         uint32 tmpAlarmDate;
 848:.\Generated_Source\PSoC4/RTC.c ****         uint32 tmpAlarmTime;
 849:.\Generated_Source\PSoC4/RTC.c ****         uint32 daysInMonth;
 850:.\Generated_Source\PSoC4/RTC.c ****         RTC_DATE_TIME curDateTime;
 851:.\Generated_Source\PSoC4/RTC.c **** 
 852:.\Generated_Source\PSoC4/RTC.c ****         tmpAlarmDate = 0u;
 853:.\Generated_Source\PSoC4/RTC.c ****         tmpAlarmTime = 0u;
 854:.\Generated_Source\PSoC4/RTC.c ****         RTC_UnixToDateTime(&curDateTime, RTC_unixTime, (uint32)RTC_24_HOURS_FORMAT);
 855:.\Generated_Source\PSoC4/RTC.c **** 
 856:.\Generated_Source\PSoC4/RTC.c ****         /* Calculates Seconds value of first Alarm based on current time and Alarm Config Mask. */
 857:.\Generated_Source\PSoC4/RTC.c ****         tmpCurVal =  RTC_GetSecond(curDateTime.time);
 858:.\Generated_Source\PSoC4/RTC.c ****         tmpNextVal = RTC_GetSecond(alarmTime->time);
 859:.\Generated_Source\PSoC4/RTC.c ****         carryFlag = (tmpCurVal > tmpNextVal) ? 1u : 0u;
 860:.\Generated_Source\PSoC4/RTC.c ****         if(0u != ((~((uint32)alarmCfgMask)) & RTC_ALARM_SEC_MASK))
 861:.\Generated_Source\PSoC4/RTC.c ****         {
 862:.\Generated_Source\PSoC4/RTC.c ****             tmpNextVal = (0u != carryFlag) ? 0u : tmpCurVal;
 863:.\Generated_Source\PSoC4/RTC.c ****         }
 864:.\Generated_Source\PSoC4/RTC.c ****         tmpAlarmTime = RTC_SetSecond(tmpAlarmTime, tmpNextVal);
ARM GAS  C:\Users\Vitali\AppData\Local\Temp\ccu81yp2.s 			page 51


 865:.\Generated_Source\PSoC4/RTC.c **** 
 866:.\Generated_Source\PSoC4/RTC.c ****         /* Calculates Minutes value of first Alarm based on current time and Alarm Config Mask. */
 867:.\Generated_Source\PSoC4/RTC.c ****         tmpCurVal  = RTC_GetMinutes(curDateTime.time);
 868:.\Generated_Source\PSoC4/RTC.c ****         if(0u != ((~((uint32)alarmCfgMask)) & RTC_ALARM_MIN_MASK))
 869:.\Generated_Source\PSoC4/RTC.c ****         {
 870:.\Generated_Source\PSoC4/RTC.c ****             tmpNextVal = (0u != carryFlag) ? RTC_GetNextMinSec(tmpCurVal) : tmpCurVal;
 871:.\Generated_Source\PSoC4/RTC.c ****         }
 872:.\Generated_Source\PSoC4/RTC.c ****         else
 873:.\Generated_Source\PSoC4/RTC.c ****         {
 874:.\Generated_Source\PSoC4/RTC.c ****             tmpNextVal = RTC_GetMinutes(alarmTime->time);
 875:.\Generated_Source\PSoC4/RTC.c ****         }
 876:.\Generated_Source\PSoC4/RTC.c ****         carryFlag  = (tmpNextVal < tmpCurVal) ? 1u : 0u;
 877:.\Generated_Source\PSoC4/RTC.c ****         tmpAlarmTime =  RTC_SetMinutes(tmpAlarmTime, tmpNextVal);
 878:.\Generated_Source\PSoC4/RTC.c **** 
 879:.\Generated_Source\PSoC4/RTC.c ****         /* Calculates Hours value of first Alarm based on current time and Alarm Config Mask. */
 880:.\Generated_Source\PSoC4/RTC.c ****         tmpCurVal  = RTC_GetHours(curDateTime.time);
 881:.\Generated_Source\PSoC4/RTC.c ****         if(0u != ((~((uint32)alarmCfgMask)) & RTC_ALARM_HOUR_MASK))
 882:.\Generated_Source\PSoC4/RTC.c ****         {
 883:.\Generated_Source\PSoC4/RTC.c ****             tmpNextVal = (0u != carryFlag) ? RTC_GetNextHour(tmpCurVal) : tmpCurVal;
 884:.\Generated_Source\PSoC4/RTC.c ****         }
 885:.\Generated_Source\PSoC4/RTC.c ****         else
 886:.\Generated_Source\PSoC4/RTC.c ****         {
 887:.\Generated_Source\PSoC4/RTC.c ****             tmpNextVal = RTC_GetHours(alarmTime->time);
 888:.\Generated_Source\PSoC4/RTC.c ****             if((uint32)RTC_24_HOURS_FORMAT != RTC_GetTimeFormat(alarmTime->time))
 889:.\Generated_Source\PSoC4/RTC.c ****             {
 890:.\Generated_Source\PSoC4/RTC.c ****                 if((uint32)RTC_AM != RTC_GetAmPm(alarmTime->time))
 891:.\Generated_Source\PSoC4/RTC.c ****                 {
 892:.\Generated_Source\PSoC4/RTC.c ****                     tmpNextVal += RTC_HOURS_PER_HALF_DAY;
 893:.\Generated_Source\PSoC4/RTC.c ****                 }
 894:.\Generated_Source\PSoC4/RTC.c ****             }
 895:.\Generated_Source\PSoC4/RTC.c ****         }
 896:.\Generated_Source\PSoC4/RTC.c ****         carryFlag  = (tmpNextVal < tmpCurVal) ? 1u : 0u;
 897:.\Generated_Source\PSoC4/RTC.c ****         tmpAlarmTime =  RTC_SetHours(tmpAlarmTime, tmpNextVal);
 898:.\Generated_Source\PSoC4/RTC.c **** 
 899:.\Generated_Source\PSoC4/RTC.c ****         /* Calculates Day value of first Alarm based on current time and Alarm Config Mask. */
 900:.\Generated_Source\PSoC4/RTC.c ****         tmpCurVal  = RTC_GetDay(curDateTime.date);
 901:.\Generated_Source\PSoC4/RTC.c ****         tmpNextVal = RTC_GetDay(alarmTime->date);
 902:.\Generated_Source\PSoC4/RTC.c ****         if(0u != ((~((uint32)alarmCfgMask)) & RTC_ALARM_DAYOFMONTH_MASK))
 903:.\Generated_Source\PSoC4/RTC.c ****         {
 904:.\Generated_Source\PSoC4/RTC.c ****             if(0u != (alarmCfgMask & RTC_ALARM_DAYOFWEEK_MASK))
 905:.\Generated_Source\PSoC4/RTC.c ****             {
 906:.\Generated_Source\PSoC4/RTC.c ****                 daysInMonth = RTC_DaysInMonth(RTC_GetMonth(curDateTime.date),
 907:.\Generated_Source\PSoC4/RTC.c ****                                                            RTC_GetYear(curDateTime.date));
 908:.\Generated_Source\PSoC4/RTC.c ****                 tmpNextVal = (curDateTime.dayOfWeek <= alarmTime->dayOfWeek) ? (alarmTime->dayOfWee
 909:.\Generated_Source\PSoC4/RTC.c ****                                 ((RTC_DAYS_PER_WEEK - curDateTime.dayOfWeek) + alarmTime->dayOfWeek
 910:.\Generated_Source\PSoC4/RTC.c ****                 tmpNextVal = tmpCurVal + tmpNextVal;
 911:.\Generated_Source\PSoC4/RTC.c ****                 tmpNextVal = (tmpNextVal > daysInMonth) ? (tmpNextVal - daysInMonth) : tmpNextVal;
 912:.\Generated_Source\PSoC4/RTC.c ****             }
 913:.\Generated_Source\PSoC4/RTC.c ****             else
 914:.\Generated_Source\PSoC4/RTC.c ****             {
 915:.\Generated_Source\PSoC4/RTC.c ****                 tmpNextVal = (0u == carryFlag) ? tmpCurVal : RTC_GetNextDay(RTC_GetYear(curDateTime
 916:.\Generated_Source\PSoC4/RTC.c ****                                                               RTC_GetMonth(curDateTime.date),
 917:.\Generated_Source\PSoC4/RTC.c ****                                                                tmpCurVal,
 918:.\Generated_Source\PSoC4/RTC.c ****                                                               RTC_ALARM_DAYOFMONTH_MASK);
 919:.\Generated_Source\PSoC4/RTC.c ****             }
 920:.\Generated_Source\PSoC4/RTC.c ****         }
 921:.\Generated_Source\PSoC4/RTC.c ****         carryFlag  = (tmpNextVal < tmpCurVal) ? 1u : 0u;
ARM GAS  C:\Users\Vitali\AppData\Local\Temp\ccu81yp2.s 			page 52


 922:.\Generated_Source\PSoC4/RTC.c ****         tmpAlarmDate =  RTC_SetDay(tmpAlarmDate, tmpNextVal);
 923:.\Generated_Source\PSoC4/RTC.c **** 
 924:.\Generated_Source\PSoC4/RTC.c ****         /* Calculates Month value of first Alarm based on current time and Alarm Config Mask. */
 925:.\Generated_Source\PSoC4/RTC.c ****         tmpCurVal  = RTC_GetMonth(curDateTime.date);
 926:.\Generated_Source\PSoC4/RTC.c ****         if(0u != ((~((uint32)alarmCfgMask)) & RTC_ALARM_MONTH_MASK))
 927:.\Generated_Source\PSoC4/RTC.c ****         {
 928:.\Generated_Source\PSoC4/RTC.c ****             tmpNextVal = (0u != carryFlag) ? RTC_GetNextMonth(tmpCurVal) : tmpCurVal;
 929:.\Generated_Source\PSoC4/RTC.c ****         }
 930:.\Generated_Source\PSoC4/RTC.c ****         else
 931:.\Generated_Source\PSoC4/RTC.c ****         {
 932:.\Generated_Source\PSoC4/RTC.c ****             tmpNextVal = RTC_GetMonth(alarmTime->date);
 933:.\Generated_Source\PSoC4/RTC.c ****         }
 934:.\Generated_Source\PSoC4/RTC.c ****         carryFlag  = (tmpNextVal < tmpCurVal) ? 1u : 0u;
 935:.\Generated_Source\PSoC4/RTC.c ****         tmpAlarmDate =  RTC_SetMonth(tmpAlarmDate, tmpNextVal);
 936:.\Generated_Source\PSoC4/RTC.c **** 
 937:.\Generated_Source\PSoC4/RTC.c ****         /* Calculates Year value of first Alarm based on current time and Alarm Config Mask. */
 938:.\Generated_Source\PSoC4/RTC.c ****         tmpCurVal  = RTC_GetYear(curDateTime.date);
 939:.\Generated_Source\PSoC4/RTC.c ****         if(0u != ((~((uint32)alarmCfgMask)) & RTC_ALARM_MONTH_MASK))
 940:.\Generated_Source\PSoC4/RTC.c ****         {
 941:.\Generated_Source\PSoC4/RTC.c ****             tmpNextVal = (0u != carryFlag) ? RTC_GetNextYear(tmpCurVal) : tmpCurVal;
 942:.\Generated_Source\PSoC4/RTC.c ****         }
 943:.\Generated_Source\PSoC4/RTC.c ****         else
 944:.\Generated_Source\PSoC4/RTC.c ****         {
 945:.\Generated_Source\PSoC4/RTC.c ****             tmpNextVal = RTC_GetYear(alarmTime->date);
 946:.\Generated_Source\PSoC4/RTC.c ****         }
 947:.\Generated_Source\PSoC4/RTC.c ****         tmpAlarmDate =  RTC_SetYear(tmpAlarmDate, tmpNextVal);
 948:.\Generated_Source\PSoC4/RTC.c **** 
 949:.\Generated_Source\PSoC4/RTC.c ****         return(RTC_DateTimeToUnix(tmpAlarmDate, tmpAlarmTime));
 950:.\Generated_Source\PSoC4/RTC.c ****     }
 951:.\Generated_Source\PSoC4/RTC.c **** #endif/* (0u != RTC_INITIAL_ALARM_STATUS) */
 952:.\Generated_Source\PSoC4/RTC.c **** 
 953:.\Generated_Source\PSoC4/RTC.c **** 
 954:.\Generated_Source\PSoC4/RTC.c **** /*******************************************************************************
 955:.\Generated_Source\PSoC4/RTC.c **** * Function Name: RTC_ReadStatus
 956:.\Generated_Source\PSoC4/RTC.c **** ********************************************************************************
 957:.\Generated_Source\PSoC4/RTC.c **** *
 958:.\Generated_Source\PSoC4/RTC.c **** * Summary:
 959:.\Generated_Source\PSoC4/RTC.c **** *  Reads the Status software register, which has flags for DST (DST),
 960:.\Generated_Source\PSoC4/RTC.c **** *  Leap Year (LY), AM/PM (AM_PM).
 961:.\Generated_Source\PSoC4/RTC.c **** *
 962:.\Generated_Source\PSoC4/RTC.c **** * Parameters:
 963:.\Generated_Source\PSoC4/RTC.c **** *  None.
 964:.\Generated_Source\PSoC4/RTC.c **** *
 965:.\Generated_Source\PSoC4/RTC.c **** * Return:
 966:.\Generated_Source\PSoC4/RTC.c **** *  The values shown below are OR'ed and returned if more than one status
 967:.\Generated_Source\PSoC4/RTC.c **** *  bits are set.
 968:.\Generated_Source\PSoC4/RTC.c **** *
 969:.\Generated_Source\PSoC4/RTC.c **** *  RTC_STATUS_DST   - Status of Daylight Saving Time. This bit
 970:.\Generated_Source\PSoC4/RTC.c **** *                                  goes high when the current time and date
 971:.\Generated_Source\PSoC4/RTC.c **** *                                  match the DST time and date and the time is
 972:.\Generated_Source\PSoC4/RTC.c **** *                                  incremented. This bit goes low after the
 973:.\Generated_Source\PSoC4/RTC.c **** *                                  DST interval and the time is decremented.
 974:.\Generated_Source\PSoC4/RTC.c **** *
 975:.\Generated_Source\PSoC4/RTC.c **** *  RTC_STATUS_LY    - Status of Leap Year. This bit goes high
 976:.\Generated_Source\PSoC4/RTC.c **** *                                  when the current year is a leap year.
 977:.\Generated_Source\PSoC4/RTC.c **** *
 978:.\Generated_Source\PSoC4/RTC.c **** *  RTC_STATUS_AM_PM - Status of Current Time. This bit is low
ARM GAS  C:\Users\Vitali\AppData\Local\Temp\ccu81yp2.s 			page 53


 979:.\Generated_Source\PSoC4/RTC.c **** *                                  from midnight to noon and high from noon
 980:.\Generated_Source\PSoC4/RTC.c **** *                                  to midnight.
 981:.\Generated_Source\PSoC4/RTC.c **** *
 982:.\Generated_Source\PSoC4/RTC.c **** * Side Effects:
 983:.\Generated_Source\PSoC4/RTC.c **** *  Reading the status without sync with the date and time read may cause an
 984:.\Generated_Source\PSoC4/RTC.c **** *  error due to a roll-over at AM/PM, the end of a year, the end of a day;
 985:.\Generated_Source\PSoC4/RTC.c **** *  RTC_GetDateAndTime() API is used to obtain the status and
 986:.\Generated_Source\PSoC4/RTC.c **** *  the status member of the returned structure can be checked with the masks.
 987:.\Generated_Source\PSoC4/RTC.c **** *
 988:.\Generated_Source\PSoC4/RTC.c **** *******************************************************************************/
 989:.\Generated_Source\PSoC4/RTC.c **** uint32 RTC_ReadStatus(void)
 990:.\Generated_Source\PSoC4/RTC.c **** {
 991:.\Generated_Source\PSoC4/RTC.c ****     uint32 tmpYear;
 992:.\Generated_Source\PSoC4/RTC.c ****     RTC_DATE_TIME tmpTimeDate;
 993:.\Generated_Source\PSoC4/RTC.c **** 
 994:.\Generated_Source\PSoC4/RTC.c ****     RTC_GetDateAndTime(&tmpTimeDate);
 995:.\Generated_Source\PSoC4/RTC.c ****     tmpYear = RTC_GetYear(tmpTimeDate.date);
 996:.\Generated_Source\PSoC4/RTC.c **** 
 997:.\Generated_Source\PSoC4/RTC.c ****     if(0uL != RTC_LeapYear(tmpYear))
 998:.\Generated_Source\PSoC4/RTC.c ****     {
 999:.\Generated_Source\PSoC4/RTC.c ****         RTC_currentTimeDate.status |= (1uL << RTC_STATUS_LY_OFFSET);
1000:.\Generated_Source\PSoC4/RTC.c ****     }
1001:.\Generated_Source\PSoC4/RTC.c ****     else
1002:.\Generated_Source\PSoC4/RTC.c ****     {
1003:.\Generated_Source\PSoC4/RTC.c ****         RTC_currentTimeDate.status &= ~(1uL << RTC_STATUS_LY_OFFSET);
1004:.\Generated_Source\PSoC4/RTC.c ****     }
1005:.\Generated_Source\PSoC4/RTC.c **** 
1006:.\Generated_Source\PSoC4/RTC.c **** 
1007:.\Generated_Source\PSoC4/RTC.c ****     if(0uL != RTC_GetAmPm(tmpTimeDate.time))
1008:.\Generated_Source\PSoC4/RTC.c ****     {
1009:.\Generated_Source\PSoC4/RTC.c ****         RTC_currentTimeDate.status |= (1uL << RTC_STATUS_AM_PM_OFFSET);
1010:.\Generated_Source\PSoC4/RTC.c ****     }
1011:.\Generated_Source\PSoC4/RTC.c ****     else
1012:.\Generated_Source\PSoC4/RTC.c ****     {
1013:.\Generated_Source\PSoC4/RTC.c ****         RTC_currentTimeDate.status &= ~(1uL << RTC_STATUS_AM_PM_OFFSET);
1014:.\Generated_Source\PSoC4/RTC.c ****     }
1015:.\Generated_Source\PSoC4/RTC.c **** 
1016:.\Generated_Source\PSoC4/RTC.c ****     return(RTC_currentTimeDate.status);
1017:.\Generated_Source\PSoC4/RTC.c **** }
1018:.\Generated_Source\PSoC4/RTC.c **** 
1019:.\Generated_Source\PSoC4/RTC.c **** 
1020:.\Generated_Source\PSoC4/RTC.c **** #if(0u != RTC_INITIAL_DST_STATUS)
1021:.\Generated_Source\PSoC4/RTC.c ****     /*******************************************************************************
1022:.\Generated_Source\PSoC4/RTC.c ****     * Function Name: RTC_SetDSTStartTime
1023:.\Generated_Source\PSoC4/RTC.c ****     ********************************************************************************
1024:.\Generated_Source\PSoC4/RTC.c ****     *
1025:.\Generated_Source\PSoC4/RTC.c ****     * Summary:
1026:.\Generated_Source\PSoC4/RTC.c ****     *  Stores the DST Start time. Only generated if DST is enabled. The date passed
1027:.\Generated_Source\PSoC4/RTC.c ****     *  can be relative or fixed. For a relative date, the user needs to provide
1028:.\Generated_Source\PSoC4/RTC.c ****     *  a valid day of a week, a week of a month and a month in the dstStartTime structure.
1029:.\Generated_Source\PSoC4/RTC.c ****     *  For a fixed date, the user needs to enter a valid day of a month and a month in
1030:.\Generated_Source\PSoC4/RTC.c ****     *  the dstStartTime structure. The hour value is optional and if invalid
1031:.\Generated_Source\PSoC4/RTC.c ****     *  taken as 00 hrs. Invalid entries are not stored and the DST start date
1032:.\Generated_Source\PSoC4/RTC.c ****     *  retains a previous value or no value at all.
1033:.\Generated_Source\PSoC4/RTC.c ****     *
1034:.\Generated_Source\PSoC4/RTC.c ****     * Parameters:
1035:.\Generated_Source\PSoC4/RTC.c ****     *  dstStartTime: The DST Start time register value.
ARM GAS  C:\Users\Vitali\AppData\Local\Temp\ccu81yp2.s 			page 54


1036:.\Generated_Source\PSoC4/RTC.c ****     *  type:          Defines the DST operation mode:
1037:.\Generated_Source\PSoC4/RTC.c ****     *                DST_DATE_RELATIVE  - The DST start time is relative.
1038:.\Generated_Source\PSoC4/RTC.c ****     *                DST_DATE_FIXED     - The DST start time is fixed.
1039:.\Generated_Source\PSoC4/RTC.c ****     *
1040:.\Generated_Source\PSoC4/RTC.c ****     * Return:
1041:.\Generated_Source\PSoC4/RTC.c ****     *  None.
1042:.\Generated_Source\PSoC4/RTC.c ****     *
1043:.\Generated_Source\PSoC4/RTC.c ****     *******************************************************************************/
1044:.\Generated_Source\PSoC4/RTC.c ****     void RTC_SetDSTStartTime(const RTC_DST_TIME* dstStartTime,
1045:.\Generated_Source\PSoC4/RTC.c ****                                                 RTC_DST_DATETYPE_ENUM type)
1046:.\Generated_Source\PSoC4/RTC.c ****     {
1047:.\Generated_Source\PSoC4/RTC.c ****         RTC_dstStartTime.timeFormat    = (uint8)type;
1048:.\Generated_Source\PSoC4/RTC.c ****         RTC_dstStartTime.hour          = dstStartTime->hour;
1049:.\Generated_Source\PSoC4/RTC.c ****         RTC_dstStartTime.dayOfWeek     = dstStartTime->dayOfWeek;
1050:.\Generated_Source\PSoC4/RTC.c ****         RTC_dstStartTime.weekOfMonth   = dstStartTime->weekOfMonth;
1051:.\Generated_Source\PSoC4/RTC.c ****         RTC_dstStartTime.dayOfMonth    = dstStartTime->dayOfMonth;
1052:.\Generated_Source\PSoC4/RTC.c ****         RTC_dstStartTime.month         = dstStartTime->month;
1053:.\Generated_Source\PSoC4/RTC.c **** 
1054:.\Generated_Source\PSoC4/RTC.c ****         RTC_unixTimeDstStart = RTC_GetDstUnixTime(&RTC_dstStartTime);
1055:.\Generated_Source\PSoC4/RTC.c **** 
1056:.\Generated_Source\PSoC4/RTC.c ****         if((RTC_unixTime >= RTC_unixTimeDstStart) &&
1057:.\Generated_Source\PSoC4/RTC.c ****            (RTC_unixTime <= RTC_unixTimeDstStop))
1058:.\Generated_Source\PSoC4/RTC.c ****         {
1059:.\Generated_Source\PSoC4/RTC.c ****             RTC_dstStatus = 1u;
1060:.\Generated_Source\PSoC4/RTC.c ****             RTC_dstTimeOffset = RTC_SECONDS_PER_HOUR;
1061:.\Generated_Source\PSoC4/RTC.c ****         }
1062:.\Generated_Source\PSoC4/RTC.c ****         else
1063:.\Generated_Source\PSoC4/RTC.c ****         {
1064:.\Generated_Source\PSoC4/RTC.c ****             RTC_dstStatus = 0u;
1065:.\Generated_Source\PSoC4/RTC.c ****             RTC_dstTimeOffset = 0uL;
1066:.\Generated_Source\PSoC4/RTC.c ****         }
1067:.\Generated_Source\PSoC4/RTC.c ****     }
1068:.\Generated_Source\PSoC4/RTC.c **** 
1069:.\Generated_Source\PSoC4/RTC.c **** 
1070:.\Generated_Source\PSoC4/RTC.c ****     /*******************************************************************************
1071:.\Generated_Source\PSoC4/RTC.c ****     * Function Name: RTC_SetDSTStopTime
1072:.\Generated_Source\PSoC4/RTC.c ****     ********************************************************************************
1073:.\Generated_Source\PSoC4/RTC.c ****     *
1074:.\Generated_Source\PSoC4/RTC.c ****     * Summary:
1075:.\Generated_Source\PSoC4/RTC.c ****     *  Stores the DST Stop time. Only generated if DST is enabled. The date passed
1076:.\Generated_Source\PSoC4/RTC.c ****     *  can be relative or fixed. For a relative date, the user needs to provide
1077:.\Generated_Source\PSoC4/RTC.c ****     *  a valid day of a week, a week of a month and a month in the dstStopTime structure.
1078:.\Generated_Source\PSoC4/RTC.c ****     *  For a fixed date, the user needs to enter a valid day of a month and a month in the
1079:.\Generated_Source\PSoC4/RTC.c ****     *  dstSoptTime structure. The hour value is optional and if invalid taken
1080:.\Generated_Source\PSoC4/RTC.c ****     *  as 00 hrs. Invalid entries are not stored and the DST start date retains
1081:.\Generated_Source\PSoC4/RTC.c ****     *  a previous value or no value at all.
1082:.\Generated_Source\PSoC4/RTC.c ****     *
1083:.\Generated_Source\PSoC4/RTC.c ****     * Parameters:
1084:.\Generated_Source\PSoC4/RTC.c ****     *  dstStopTime: DST Stop time register values.
1085:.\Generated_Source\PSoC4/RTC.c ****     *  type:         Defines the DST operation mode:
1086:.\Generated_Source\PSoC4/RTC.c ****     *               DST_DATE_RELATIVE  - The DST start time is relative.
1087:.\Generated_Source\PSoC4/RTC.c ****     *               DST_DATE_FIXED     - The DST start time is fixed.
1088:.\Generated_Source\PSoC4/RTC.c ****     *
1089:.\Generated_Source\PSoC4/RTC.c ****     * Return:
1090:.\Generated_Source\PSoC4/RTC.c ****     *  None.
1091:.\Generated_Source\PSoC4/RTC.c ****     *
1092:.\Generated_Source\PSoC4/RTC.c ****     *******************************************************************************/
ARM GAS  C:\Users\Vitali\AppData\Local\Temp\ccu81yp2.s 			page 55


1093:.\Generated_Source\PSoC4/RTC.c ****     void RTC_SetDSTStopTime(const RTC_DST_TIME* dstStopTime,
1094:.\Generated_Source\PSoC4/RTC.c ****                                                RTC_DST_DATETYPE_ENUM type)
1095:.\Generated_Source\PSoC4/RTC.c ****     {
1096:.\Generated_Source\PSoC4/RTC.c **** 
1097:.\Generated_Source\PSoC4/RTC.c ****         RTC_dstStopTime.timeFormat  = (uint8)type;
1098:.\Generated_Source\PSoC4/RTC.c ****         RTC_dstStopTime.hour           = dstStopTime->hour;
1099:.\Generated_Source\PSoC4/RTC.c ****         RTC_dstStopTime.dayOfWeek      = dstStopTime->dayOfWeek;
1100:.\Generated_Source\PSoC4/RTC.c ****         RTC_dstStopTime.weekOfMonth = dstStopTime->weekOfMonth;
1101:.\Generated_Source\PSoC4/RTC.c ****         RTC_dstStopTime.dayOfMonth     = dstStopTime->dayOfMonth;
1102:.\Generated_Source\PSoC4/RTC.c ****         RTC_dstStopTime.month         = dstStopTime->month;
1103:.\Generated_Source\PSoC4/RTC.c **** 
1104:.\Generated_Source\PSoC4/RTC.c ****         RTC_unixTimeDstStop  = RTC_GetDstUnixTime(&RTC_dstStopTime);
1105:.\Generated_Source\PSoC4/RTC.c **** 
1106:.\Generated_Source\PSoC4/RTC.c ****         if((RTC_unixTime >= RTC_unixTimeDstStart) &&
1107:.\Generated_Source\PSoC4/RTC.c ****            (RTC_unixTime <= RTC_unixTimeDstStop))
1108:.\Generated_Source\PSoC4/RTC.c ****         {
1109:.\Generated_Source\PSoC4/RTC.c ****             RTC_dstStatus = 1u;
1110:.\Generated_Source\PSoC4/RTC.c ****             RTC_dstTimeOffset = RTC_SECONDS_PER_HOUR;
1111:.\Generated_Source\PSoC4/RTC.c ****         }
1112:.\Generated_Source\PSoC4/RTC.c ****         else
1113:.\Generated_Source\PSoC4/RTC.c ****         {
1114:.\Generated_Source\PSoC4/RTC.c ****             RTC_dstStatus = 0u;
1115:.\Generated_Source\PSoC4/RTC.c ****             RTC_dstTimeOffset = 0uL;
1116:.\Generated_Source\PSoC4/RTC.c ****         }
1117:.\Generated_Source\PSoC4/RTC.c ****     }
1118:.\Generated_Source\PSoC4/RTC.c **** 
1119:.\Generated_Source\PSoC4/RTC.c **** 
1120:.\Generated_Source\PSoC4/RTC.c ****     /*******************************************************************************
1121:.\Generated_Source\PSoC4/RTC.c ****     * Function Name: RTC_GetDstUnixTime
1122:.\Generated_Source\PSoC4/RTC.c ****     ********************************************************************************
1123:.\Generated_Source\PSoC4/RTC.c ****     *
1124:.\Generated_Source\PSoC4/RTC.c ****     * Summary:
1125:.\Generated_Source\PSoC4/RTC.c ****     *  Calculates the DST Start/Stop time in the UNIX format.
1126:.\Generated_Source\PSoC4/RTC.c ****     *
1127:.\Generated_Source\PSoC4/RTC.c ****     * Parameters:
1128:.\Generated_Source\PSoC4/RTC.c ****     *  dstTime: The DST Start/Stop time in the regular time format.
1129:.\Generated_Source\PSoC4/RTC.c ****     *
1130:.\Generated_Source\PSoC4/RTC.c ****     * Return:
1131:.\Generated_Source\PSoC4/RTC.c ****     *  The DST Start/Stop time in the UNIX format.
1132:.\Generated_Source\PSoC4/RTC.c ****     *
1133:.\Generated_Source\PSoC4/RTC.c ****     *******************************************************************************/
1134:.\Generated_Source\PSoC4/RTC.c ****     uint64 RTC_GetDstUnixTime(const RTC_DST_TIME* dstTime)
1135:.\Generated_Source\PSoC4/RTC.c ****     {
1136:.\Generated_Source\PSoC4/RTC.c ****         uint32 tmpYear;
1137:.\Generated_Source\PSoC4/RTC.c ****         uint32 tmpDate;
1138:.\Generated_Source\PSoC4/RTC.c ****         uint64 dstUnixTime;
1139:.\Generated_Source\PSoC4/RTC.c **** 
1140:.\Generated_Source\PSoC4/RTC.c ****         RTC_DATE_TIME tmpTimeDate;
1141:.\Generated_Source\PSoC4/RTC.c **** 
1142:.\Generated_Source\PSoC4/RTC.c ****         RTC_UnixToDateTime(&tmpTimeDate, RTC_unixTime, RTC_INITIAL_TIME_FORMAT);
1143:.\Generated_Source\PSoC4/RTC.c ****         tmpYear = RTC_GetYear(tmpTimeDate.date);
1144:.\Generated_Source\PSoC4/RTC.c **** 
1145:.\Generated_Source\PSoC4/RTC.c ****         if(dstTime->timeFormat == (uint8)RTC_DST_DATE_FIXED)
1146:.\Generated_Source\PSoC4/RTC.c ****         {
1147:.\Generated_Source\PSoC4/RTC.c ****             tmpDate =     RTC_ConstructDate(dstTime->month, dstTime->dayOfMonth, tmpYear);
1148:.\Generated_Source\PSoC4/RTC.c ****         }
1149:.\Generated_Source\PSoC4/RTC.c ****         else
ARM GAS  C:\Users\Vitali\AppData\Local\Temp\ccu81yp2.s 			page 56


1150:.\Generated_Source\PSoC4/RTC.c ****         {
1151:.\Generated_Source\PSoC4/RTC.c ****             tmpDate = RTC_RelativeToFixed(dstTime->dayOfWeek, dstTime->weekOfMonth, dstTime->month,
1152:.\Generated_Source\PSoC4/RTC.c ****         }
1153:.\Generated_Source\PSoC4/RTC.c **** 
1154:.\Generated_Source\PSoC4/RTC.c ****         tmpTimeDate.time = RTC_ConstructTime((uint32)RTC_24_HOURS_FORMAT, 0u, dstTime->hour, 0u, 0u
1155:.\Generated_Source\PSoC4/RTC.c ****         dstUnixTime = RTC_DateTimeToUnix(tmpDate, tmpTimeDate.time);
1156:.\Generated_Source\PSoC4/RTC.c **** 
1157:.\Generated_Source\PSoC4/RTC.c ****         return(dstUnixTime);
1158:.\Generated_Source\PSoC4/RTC.c ****     }
1159:.\Generated_Source\PSoC4/RTC.c **** 
1160:.\Generated_Source\PSoC4/RTC.c **** 
1161:.\Generated_Source\PSoC4/RTC.c **** #endif /* (0u != RTC_INITIAL_DST_STATUS) */
1162:.\Generated_Source\PSoC4/RTC.c **** 
1163:.\Generated_Source\PSoC4/RTC.c **** 
1164:.\Generated_Source\PSoC4/RTC.c **** /*******************************************************************************
1165:.\Generated_Source\PSoC4/RTC.c **** * Function Name: RTC_ConvertBCDToDec
1166:.\Generated_Source\PSoC4/RTC.c **** ********************************************************************************
1167:.\Generated_Source\PSoC4/RTC.c **** *
1168:.\Generated_Source\PSoC4/RTC.c **** * Summary:
1169:.\Generated_Source\PSoC4/RTC.c **** *  Converts a 4-byte BCD number into a 4-byte hexadecimal number. Each byte is
1170:.\Generated_Source\PSoC4/RTC.c **** *  converted individually and returned as an individual byte in the 32-bit
1171:.\Generated_Source\PSoC4/RTC.c **** *  variable.
1172:.\Generated_Source\PSoC4/RTC.c **** *
1173:.\Generated_Source\PSoC4/RTC.c **** * Parameters:
1174:.\Generated_Source\PSoC4/RTC.c **** *  bcdNum: A 4-byte BCD number. Each byte represents BCD.
1175:.\Generated_Source\PSoC4/RTC.c **** *          0x11223344 -> 4 bytes 0x11, 0x22, 0x33 and 0x44 the in BCD format.
1176:.\Generated_Source\PSoC4/RTC.c **** *
1177:.\Generated_Source\PSoC4/RTC.c **** * Return:
1178:.\Generated_Source\PSoC4/RTC.c **** *  decNum: A 4-byte hexadecimal equivalent number of the BCD number.
1179:.\Generated_Source\PSoC4/RTC.c **** *          BCD number 0x11223344 -> returned hexadecimal number 0x0B16212C.
1180:.\Generated_Source\PSoC4/RTC.c **** *
1181:.\Generated_Source\PSoC4/RTC.c **** *******************************************************************************/
1182:.\Generated_Source\PSoC4/RTC.c **** uint32 RTC_ConvertBCDToDec(uint32 bcdNum)
1183:.\Generated_Source\PSoC4/RTC.c **** {
 793              		.loc 2 1183 0
 794              		.cfi_startproc
 795              	.LVL82:
 796 0000 10B5     		push	{r4, lr}
 797              		.cfi_def_cfa_offset 8
 798              		.cfi_offset 4, -8
 799              		.cfi_offset 14, -4
 800              		.loc 2 1183 0
 801 0002 1021     		mov	r1, #16
1184:.\Generated_Source\PSoC4/RTC.c ****     uint32 i;
1185:.\Generated_Source\PSoC4/RTC.c ****     uint32 mult;
1186:.\Generated_Source\PSoC4/RTC.c ****     uint32 retVal;
1187:.\Generated_Source\PSoC4/RTC.c **** 
1188:.\Generated_Source\PSoC4/RTC.c ****     mult   = 1u;
1189:.\Generated_Source\PSoC4/RTC.c ****     retVal = 0u;
 802              		.loc 2 1189 0
 803 0004 0022     		mov	r2, #0
1188:.\Generated_Source\PSoC4/RTC.c ****     retVal = 0u;
 804              		.loc 2 1188 0
 805 0006 0124     		mov	r4, #1
 806              	.LVL83:
 807              	.L45:
1190:.\Generated_Source\PSoC4/RTC.c **** 
ARM GAS  C:\Users\Vitali\AppData\Local\Temp\ccu81yp2.s 			page 57


1191:.\Generated_Source\PSoC4/RTC.c ****     for(i = 0u; i < 16u; i++)
1192:.\Generated_Source\PSoC4/RTC.c ****     {
1193:.\Generated_Source\PSoC4/RTC.c ****         retVal += (bcdNum & RTC_BCD_ONE_DIGIT_MASK) * mult;
 808              		.loc 2 1193 0 discriminator 3
 809 0008 0F23     		mov	r3, #15
 810 000a 0340     		and	r3, r0
 811 000c 6343     		mul	r3, r4
 812 000e D218     		add	r2, r2, r3
 813              	.LVL84:
1194:.\Generated_Source\PSoC4/RTC.c ****         bcdNum >>= RTC_BCD_NUMBER_SIZE;
1195:.\Generated_Source\PSoC4/RTC.c ****         mult *= 10u;
 814              		.loc 2 1195 0 discriminator 3
 815 0010 0A23     		mov	r3, #10
 816 0012 0139     		sub	r1, r1, #1
 817              	.LVL85:
1194:.\Generated_Source\PSoC4/RTC.c ****         bcdNum >>= RTC_BCD_NUMBER_SIZE;
 818              		.loc 2 1194 0 discriminator 3
 819 0014 0009     		lsr	r0, r0, #4
 820              	.LVL86:
 821              		.loc 2 1195 0 discriminator 3
 822 0016 5C43     		mul	r4, r3
 823              	.LVL87:
1191:.\Generated_Source\PSoC4/RTC.c ****     {
 824              		.loc 2 1191 0 discriminator 3
 825 0018 0029     		cmp	r1, #0
 826 001a F5D1     		bne	.L45
1196:.\Generated_Source\PSoC4/RTC.c ****     }
1197:.\Generated_Source\PSoC4/RTC.c **** 
1198:.\Generated_Source\PSoC4/RTC.c ****     return(retVal);
1199:.\Generated_Source\PSoC4/RTC.c **** }
 827              		.loc 2 1199 0
 828 001c 101C     		mov	r0, r2
 829              	.LVL88:
 830              		@ sp needed
 831              	.LVL89:
 832 001e 10BD     		pop	{r4, pc}
 833              		.cfi_endproc
 834              	.LFE48:
 835              		.size	RTC_ConvertBCDToDec, .-RTC_ConvertBCDToDec
 836              		.section	.text.RTC_ConvertDecToBCD,"ax",%progbits
 837              		.align	1
 838              		.global	RTC_ConvertDecToBCD
 839              		.code	16
 840              		.thumb_func
 841              		.type	RTC_ConvertDecToBCD, %function
 842              	RTC_ConvertDecToBCD:
 843              	.LFB49:
1200:.\Generated_Source\PSoC4/RTC.c **** 
1201:.\Generated_Source\PSoC4/RTC.c **** 
1202:.\Generated_Source\PSoC4/RTC.c **** /*******************************************************************************
1203:.\Generated_Source\PSoC4/RTC.c **** * Function Name: RTC_ConvertDecToBCD
1204:.\Generated_Source\PSoC4/RTC.c **** ********************************************************************************
1205:.\Generated_Source\PSoC4/RTC.c **** *
1206:.\Generated_Source\PSoC4/RTC.c **** * Summary:
1207:.\Generated_Source\PSoC4/RTC.c **** *  Converts a 4-byte hexadecimal number into a 4-byte BCD number. Each byte
1208:.\Generated_Source\PSoC4/RTC.c **** *  is converted individually and returned as an individual byte in the 32-bit
1209:.\Generated_Source\PSoC4/RTC.c **** *  variable.
ARM GAS  C:\Users\Vitali\AppData\Local\Temp\ccu81yp2.s 			page 58


1210:.\Generated_Source\PSoC4/RTC.c **** *
1211:.\Generated_Source\PSoC4/RTC.c **** * Parameters:
1212:.\Generated_Source\PSoC4/RTC.c **** *  decNum: A 4-byte hexadecimal number. Each byte is represented in hex.
1213:.\Generated_Source\PSoC4/RTC.c **** *          0x11223344 -> 4 bytes 0x11, 0x22, 0x33 and 0x44 in the hex format.
1214:.\Generated_Source\PSoC4/RTC.c **** *
1215:.\Generated_Source\PSoC4/RTC.c **** * Return:
1216:.\Generated_Source\PSoC4/RTC.c **** *  bcdNum: A 4-byte BCD equivalent of the passed hexadecimal number. Hexadecimal
1217:.\Generated_Source\PSoC4/RTC.c **** *  number 0x11223344 -> returned BCD number 0x17345168.
1218:.\Generated_Source\PSoC4/RTC.c **** *
1219:.\Generated_Source\PSoC4/RTC.c **** *******************************************************************************/
1220:.\Generated_Source\PSoC4/RTC.c **** uint32 RTC_ConvertDecToBCD(uint32 decNum)
1221:.\Generated_Source\PSoC4/RTC.c **** {
 844              		.loc 2 1221 0
 845              		.cfi_startproc
 846              	.LVL90:
 847 0000 70B5     		push	{r4, r5, r6, lr}
 848              		.cfi_def_cfa_offset 16
 849              		.cfi_offset 4, -16
 850              		.cfi_offset 5, -12
 851              		.cfi_offset 6, -8
 852              		.cfi_offset 14, -4
1222:.\Generated_Source\PSoC4/RTC.c ****     uint32 shift;
1223:.\Generated_Source\PSoC4/RTC.c ****     uint32 tmpVal;
1224:.\Generated_Source\PSoC4/RTC.c ****     uint32 retVal;
1225:.\Generated_Source\PSoC4/RTC.c **** 
1226:.\Generated_Source\PSoC4/RTC.c ****     shift  = 0u;
1227:.\Generated_Source\PSoC4/RTC.c ****     retVal = 0u;
 853              		.loc 2 1227 0
 854 0002 0025     		mov	r5, #0
1221:.\Generated_Source\PSoC4/RTC.c ****     uint32 shift;
 855              		.loc 2 1221 0
 856 0004 041C     		mov	r4, r0
 857              	.LVL91:
1226:.\Generated_Source\PSoC4/RTC.c ****     retVal = 0u;
 858              		.loc 2 1226 0
 859 0006 2E1C     		mov	r6, r5
 860              	.LVL92:
 861              	.L47:
1228:.\Generated_Source\PSoC4/RTC.c ****     tmpVal = decNum;
1229:.\Generated_Source\PSoC4/RTC.c **** 
1230:.\Generated_Source\PSoC4/RTC.c ****     do
1231:.\Generated_Source\PSoC4/RTC.c ****     {
1232:.\Generated_Source\PSoC4/RTC.c ****         retVal |= ((tmpVal % 10u) << shift);
 862              		.loc 2 1232 0 discriminator 1
 863 0008 201C     		mov	r0, r4
 864 000a 0A21     		mov	r1, #10
 865 000c FFF7FEFF 		bl	__aeabi_uidivmod
 866              	.LVL93:
 867 0010 B140     		lsl	r1, r1, r6
1233:.\Generated_Source\PSoC4/RTC.c ****         tmpVal /= 10u;
 868              		.loc 2 1233 0 discriminator 1
 869 0012 201C     		mov	r0, r4
1232:.\Generated_Source\PSoC4/RTC.c ****         tmpVal /= 10u;
 870              		.loc 2 1232 0 discriminator 1
 871 0014 0D43     		orr	r5, r1
 872              	.LVL94:
 873              		.loc 2 1233 0 discriminator 1
ARM GAS  C:\Users\Vitali\AppData\Local\Temp\ccu81yp2.s 			page 59


 874 0016 0A21     		mov	r1, #10
 875 0018 FFF7FEFF 		bl	__aeabi_uidiv
 876              	.LVL95:
1234:.\Generated_Source\PSoC4/RTC.c ****         shift  += RTC_BCD_NUMBER_SIZE;
 877              		.loc 2 1234 0 discriminator 1
 878 001c 0436     		add	r6, r6, #4
 879              	.LVL96:
1233:.\Generated_Source\PSoC4/RTC.c ****         tmpVal /= 10u;
 880              		.loc 2 1233 0 discriminator 1
 881 001e 041E     		sub	r4, r0, #0
 882              	.LVL97:
1235:.\Generated_Source\PSoC4/RTC.c ****     }
1236:.\Generated_Source\PSoC4/RTC.c ****     while(tmpVal >= 10u);
 883              		.loc 2 1236 0 discriminator 1
 884 0020 092C     		cmp	r4, #9
 885 0022 F1D8     		bhi	.L47
 886              	.LVL98:
1237:.\Generated_Source\PSoC4/RTC.c **** 
1238:.\Generated_Source\PSoC4/RTC.c ****     retVal |= (tmpVal << shift);
 887              		.loc 2 1238 0
 888 0024 B040     		lsl	r0, r0, r6
 889              	.LVL99:
1239:.\Generated_Source\PSoC4/RTC.c **** 
1240:.\Generated_Source\PSoC4/RTC.c ****     return(retVal);
1241:.\Generated_Source\PSoC4/RTC.c **** }
 890              		.loc 2 1241 0
 891              		@ sp needed
1238:.\Generated_Source\PSoC4/RTC.c **** 
 892              		.loc 2 1238 0
 893 0026 2843     		orr	r0, r5
 894              	.LVL100:
 895              	.LVL101:
 896              	.LVL102:
 897              		.loc 2 1241 0
 898 0028 70BD     		pop	{r4, r5, r6, pc}
 899              		.cfi_endproc
 900              	.LFE49:
 901              		.size	RTC_ConvertDecToBCD, .-RTC_ConvertDecToBCD
 902              		.section	.text.RTC_DateTimeToUnix,"ax",%progbits
 903              		.align	1
 904              		.global	RTC_DateTimeToUnix
 905              		.code	16
 906              		.thumb_func
 907              		.type	RTC_DateTimeToUnix, %function
 908              	RTC_DateTimeToUnix:
 909              	.LFB51:
1242:.\Generated_Source\PSoC4/RTC.c **** 
1243:.\Generated_Source\PSoC4/RTC.c **** 
1244:.\Generated_Source\PSoC4/RTC.c **** /*******************************************************************************
1245:.\Generated_Source\PSoC4/RTC.c **** * Function Name: RTC_Update
1246:.\Generated_Source\PSoC4/RTC.c **** ********************************************************************************
1247:.\Generated_Source\PSoC4/RTC.c **** *
1248:.\Generated_Source\PSoC4/RTC.c **** * Summary:
1249:.\Generated_Source\PSoC4/RTC.c **** *  This API updates the time registers and performs alarm/DST check.
1250:.\Generated_Source\PSoC4/RTC.c **** *  This function increments the time/date registers by an input clock period.
1251:.\Generated_Source\PSoC4/RTC.c **** *  The period is set by RTC_SetPeriod() API or WDT period selected for RTC
1252:.\Generated_Source\PSoC4/RTC.c **** *  in the clocks configuration window (low frequency clocks tab) interface
ARM GAS  C:\Users\Vitali\AppData\Local\Temp\ccu81yp2.s 			page 60


1253:.\Generated_Source\PSoC4/RTC.c **** *  every time it is called.
1254:.\Generated_Source\PSoC4/RTC.c **** *
1255:.\Generated_Source\PSoC4/RTC.c **** *  API is automatically mapped to the WDT's callback slot and period if the
1256:.\Generated_Source\PSoC4/RTC.c **** *  configuration is as follows: 1) Option "Implement RTC update manually" in
1257:.\Generated_Source\PSoC4/RTC.c **** *  the customizer is unchecked 2) One of WDTs is selected in the "Use for RTC"
1258:.\Generated_Source\PSoC4/RTC.c **** *  panel of the low frequency clocks tab 3) Option "Implementation by IDE" is
1259:.\Generated_Source\PSoC4/RTC.c **** *  selected in the "Timer (WDT) ISR" panel.
1260:.\Generated_Source\PSoC4/RTC.c **** *
1261:.\Generated_Source\PSoC4/RTC.c **** *  If option "Implement RTC update manually" is checked in the customizer or
1262:.\Generated_Source\PSoC4/RTC.c **** *  option "None" is selected in the "Use for RTC" panel,it is the user's
1263:.\Generated_Source\PSoC4/RTC.c **** *  responsibility: 1) to call this API from the clock ISR to be
1264:.\Generated_Source\PSoC4/RTC.c **** *  used as the RTC's input 2) set the period of the RTC through
1265:.\Generated_Source\PSoC4/RTC.c **** *  RTC_SetPeriod() API.
1266:.\Generated_Source\PSoC4/RTC.c **** *
1267:.\Generated_Source\PSoC4/RTC.c **** * Parameters:
1268:.\Generated_Source\PSoC4/RTC.c **** *  None.
1269:.\Generated_Source\PSoC4/RTC.c **** *
1270:.\Generated_Source\PSoC4/RTC.c **** * Return:
1271:.\Generated_Source\PSoC4/RTC.c **** *  None.
1272:.\Generated_Source\PSoC4/RTC.c **** *
1273:.\Generated_Source\PSoC4/RTC.c **** * Side Effects:
1274:.\Generated_Source\PSoC4/RTC.c **** *  Updates the Unix time register, updates the alarm and DST status.
1275:.\Generated_Source\PSoC4/RTC.c **** *
1276:.\Generated_Source\PSoC4/RTC.c **** *******************************************************************************/
1277:.\Generated_Source\PSoC4/RTC.c **** void RTC_Update(void)
1278:.\Generated_Source\PSoC4/RTC.c **** {
1279:.\Generated_Source\PSoC4/RTC.c ****     static volatile uint32 RTC_currentTickNumber;
1280:.\Generated_Source\PSoC4/RTC.c ****     RTC_currentTickNumber += RTC_updateTimePeriod;
1281:.\Generated_Source\PSoC4/RTC.c **** 
1282:.\Generated_Source\PSoC4/RTC.c ****     if(RTC_currentTickNumber >= RTC_tickRefOneSec)
1283:.\Generated_Source\PSoC4/RTC.c ****     {
1284:.\Generated_Source\PSoC4/RTC.c ****         RTC_unixTime++;
1285:.\Generated_Source\PSoC4/RTC.c ****         RTC_currentTickNumber = 0u;
1286:.\Generated_Source\PSoC4/RTC.c **** 
1287:.\Generated_Source\PSoC4/RTC.c ****     #if(0u != RTC_INITIAL_DST_STATUS)
1288:.\Generated_Source\PSoC4/RTC.c ****         if(RTC_unixTime == RTC_unixTimeDstStart)
1289:.\Generated_Source\PSoC4/RTC.c ****         {
1290:.\Generated_Source\PSoC4/RTC.c ****             RTC_dstStatus = 1u;
1291:.\Generated_Source\PSoC4/RTC.c ****             RTC_dstTimeOffset = RTC_SECONDS_PER_HOUR;
1292:.\Generated_Source\PSoC4/RTC.c ****         }
1293:.\Generated_Source\PSoC4/RTC.c **** 
1294:.\Generated_Source\PSoC4/RTC.c ****         if(RTC_unixTime == (RTC_unixTimeDstStop  - RTC_dstTimeOffset))
1295:.\Generated_Source\PSoC4/RTC.c ****         {
1296:.\Generated_Source\PSoC4/RTC.c ****             RTC_dstStatus = 0u;
1297:.\Generated_Source\PSoC4/RTC.c ****             RTC_dstTimeOffset = 0u;
1298:.\Generated_Source\PSoC4/RTC.c ****             RTC_unixTimeDstStart = RTC_GetDstUnixTime(&RTC_dstStartTime);
1299:.\Generated_Source\PSoC4/RTC.c ****             RTC_unixTimeDstStop  = RTC_GetDstUnixTime(&RTC_dstStopTime);
1300:.\Generated_Source\PSoC4/RTC.c ****         }
1301:.\Generated_Source\PSoC4/RTC.c ****     #endif /* (0u != RTC_INITIAL_DST_STATUS) */
1302:.\Generated_Source\PSoC4/RTC.c **** 
1303:.\Generated_Source\PSoC4/RTC.c ****     #if(0u != RTC_INITIAL_ALARM_STATUS)
1304:.\Generated_Source\PSoC4/RTC.c ****         if((RTC_unixTime + RTC_dstTimeOffset) == RTC_unixTimeAlarm)
1305:.\Generated_Source\PSoC4/RTC.c ****         {
1306:.\Generated_Source\PSoC4/RTC.c ****             RTC_currentTimeDate.status |= (1uL << RTC_STATUS_ALARM_OFFSET);
1307:.\Generated_Source\PSoC4/RTC.c ****             RTC_alarmCurStatus = RTC_alarmCfgMask;
1308:.\Generated_Source\PSoC4/RTC.c ****             if (RTC_alarmCallbackPtr != (void *) 0)
1309:.\Generated_Source\PSoC4/RTC.c ****             {
ARM GAS  C:\Users\Vitali\AppData\Local\Temp\ccu81yp2.s 			page 61


1310:.\Generated_Source\PSoC4/RTC.c ****                 RTC_alarmCallbackPtr();
1311:.\Generated_Source\PSoC4/RTC.c ****             }
1312:.\Generated_Source\PSoC4/RTC.c ****             RTC_unixTimeAlarm = RTC_GetNexAlarmTime(RTC_unixTime + RTC_dstTimeOffset,
1313:.\Generated_Source\PSoC4/RTC.c ****                                                                                                   (
1314:.\Generated_Source\PSoC4/RTC.c ****         }
1315:.\Generated_Source\PSoC4/RTC.c ****     #endif/* (0u != RTC_INITIAL_ALARM_STATUS) */
1316:.\Generated_Source\PSoC4/RTC.c ****     }
1317:.\Generated_Source\PSoC4/RTC.c **** }
1318:.\Generated_Source\PSoC4/RTC.c **** 
1319:.\Generated_Source\PSoC4/RTC.c **** 
1320:.\Generated_Source\PSoC4/RTC.c **** /*******************************************************************************
1321:.\Generated_Source\PSoC4/RTC.c **** * Function Name: RTC_DateTimeToUnix
1322:.\Generated_Source\PSoC4/RTC.c **** ********************************************************************************
1323:.\Generated_Source\PSoC4/RTC.c **** *
1324:.\Generated_Source\PSoC4/RTC.c **** * Summary:
1325:.\Generated_Source\PSoC4/RTC.c **** *  This is an internal function to convert the date and time from
1326:.\Generated_Source\PSoC4/RTC.c **** *  the regular time format into the UNIX time format.
1327:.\Generated_Source\PSoC4/RTC.c **** *
1328:.\Generated_Source\PSoC4/RTC.c **** * Parameters:
1329:.\Generated_Source\PSoC4/RTC.c **** *  inputDate - The date in the selected in the customizer "date format".
1330:.\Generated_Source\PSoC4/RTC.c **** *  inputTime - The time in the defined "time format".
1331:.\Generated_Source\PSoC4/RTC.c **** *
1332:.\Generated_Source\PSoC4/RTC.c **** * Return:
1333:.\Generated_Source\PSoC4/RTC.c **** *  Returns the date and time in the UNIX format.
1334:.\Generated_Source\PSoC4/RTC.c **** *
1335:.\Generated_Source\PSoC4/RTC.c **** *******************************************************************************/
1336:.\Generated_Source\PSoC4/RTC.c **** uint64 RTC_DateTimeToUnix(uint32 inputDate, uint32 inputTime)
1337:.\Generated_Source\PSoC4/RTC.c **** {
 910              		.loc 2 1337 0
 911              		.cfi_startproc
 912              	.LVL103:
 913 0000 F0B5     		push	{r4, r5, r6, r7, lr}
 914              		.cfi_def_cfa_offset 20
 915              		.cfi_offset 4, -20
 916              		.cfi_offset 5, -16
 917              		.cfi_offset 6, -12
 918              		.cfi_offset 7, -8
 919              		.cfi_offset 14, -4
 920 0002 85B0     		sub	sp, sp, #20
 921              		.cfi_def_cfa_offset 40
 922              		.loc 2 1337 0
 923 0004 061C     		mov	r6, r0
 924 0006 0C1C     		mov	r4, r1
1338:.\Generated_Source\PSoC4/RTC.c ****     uint32 i;
1339:.\Generated_Source\PSoC4/RTC.c ****     uint32 tmpYear;
1340:.\Generated_Source\PSoC4/RTC.c ****     uint32 tmpMonth;
1341:.\Generated_Source\PSoC4/RTC.c ****     uint32 tmpVal;
1342:.\Generated_Source\PSoC4/RTC.c ****     uint64 unixTime;
1343:.\Generated_Source\PSoC4/RTC.c **** 
1344:.\Generated_Source\PSoC4/RTC.c ****     unixTime = 0u;
1345:.\Generated_Source\PSoC4/RTC.c ****     tmpYear = RTC_GetYear(inputDate);
 925              		.loc 2 1345 0
 926 0008 FFF7FEFF 		bl	RTC_GetYear
 927              	.LVL104:
1344:.\Generated_Source\PSoC4/RTC.c ****     tmpYear = RTC_GetYear(inputDate);
 928              		.loc 2 1344 0
 929 000c 0022     		mov	r2, #0
ARM GAS  C:\Users\Vitali\AppData\Local\Temp\ccu81yp2.s 			page 62


 930 000e 0023     		mov	r3, #0
 931              		.loc 2 1345 0
 932 0010 051C     		mov	r5, r0
 933              	.LVL105:
1344:.\Generated_Source\PSoC4/RTC.c ****     tmpYear = RTC_GetYear(inputDate);
 934              		.loc 2 1344 0
 935 0012 0092     		str	r2, [sp]
 936 0014 0193     		str	r3, [sp, #4]
1346:.\Generated_Source\PSoC4/RTC.c **** 
1347:.\Generated_Source\PSoC4/RTC.c ****     /* Calculate seconds from epoch start up to (but not including) current year. */
1348:.\Generated_Source\PSoC4/RTC.c ****     for(i = RTC_YEAR_0; i < tmpYear; i++)
 937              		.loc 2 1348 0
 938 0016 324F     		ldr	r7, .L62
 939              	.LVL106:
 940              	.L49:
 941              		.loc 2 1348 0 is_stmt 0 discriminator 1
 942 0018 AF42     		cmp	r7, r5
 943 001a 10D2     		bcs	.L61
1349:.\Generated_Source\PSoC4/RTC.c ****     {
1350:.\Generated_Source\PSoC4/RTC.c ****         if(0u != RTC_LeapYear(i))
 944              		.loc 2 1350 0 is_stmt 1
 945 001c 381C     		mov	r0, r7
 946 001e FFF7FEFF 		bl	RTC_LeapYear
 947              	.LVL107:
 948 0022 0028     		cmp	r0, #0
 949 0024 01D0     		beq	.L50
1351:.\Generated_Source\PSoC4/RTC.c ****         {
1352:.\Generated_Source\PSoC4/RTC.c ****             unixTime += RTC_SECONDS_PER_LEAP_YEAR;
 950              		.loc 2 1352 0
 951 0026 2F4A     		ldr	r2, .L62+4
 952 0028 00E0     		b	.L60
 953              	.L50:
1353:.\Generated_Source\PSoC4/RTC.c ****         }
1354:.\Generated_Source\PSoC4/RTC.c ****         else
1355:.\Generated_Source\PSoC4/RTC.c ****         {
1356:.\Generated_Source\PSoC4/RTC.c ****             unixTime += RTC_SECONDS_PER_NONLEAP_YEAR;
 954              		.loc 2 1356 0
 955 002a 2F4A     		ldr	r2, .L62+8
 956              	.L60:
 957 002c 0023     		mov	r3, #0
 958 002e 0098     		ldr	r0, [sp]
 959 0030 0199     		ldr	r1, [sp, #4]
 960 0032 8018     		add	r0, r0, r2
 961 0034 5941     		adc	r1, r1, r3
1348:.\Generated_Source\PSoC4/RTC.c ****     {
 962              		.loc 2 1348 0
 963 0036 0137     		add	r7, r7, #1
 964              	.LVL108:
 965              		.loc 2 1356 0
 966 0038 0090     		str	r0, [sp]
 967 003a 0191     		str	r1, [sp, #4]
 968              	.LVL109:
 969 003c ECE7     		b	.L49
 970              	.LVL110:
 971              	.L61:
1357:.\Generated_Source\PSoC4/RTC.c ****         }
1358:.\Generated_Source\PSoC4/RTC.c ****     }
ARM GAS  C:\Users\Vitali\AppData\Local\Temp\ccu81yp2.s 			page 63


1359:.\Generated_Source\PSoC4/RTC.c **** 
1360:.\Generated_Source\PSoC4/RTC.c ****     /* Calculates how many seconds had elapsed in this year prior to the current month. */
1361:.\Generated_Source\PSoC4/RTC.c ****     tmpMonth = RTC_GetMonth(inputDate);
 972              		.loc 2 1361 0
 973 003e 301C     		mov	r0, r6
 974 0040 FFF7FEFF 		bl	RTC_GetMonth
 975              	.LVL111:
1362:.\Generated_Source\PSoC4/RTC.c ****     tmpVal = RTC_daysBeforeMonthTbl[tmpMonth - 1u];
 976              		.loc 2 1362 0
 977 0044 294A     		ldr	r2, .L62+12
 978 0046 431E     		sub	r3, r0, #1
 979 0048 5B00     		lsl	r3, r3, #1
 980 004a 9F5A     		ldrh	r7, [r3, r2]
 981              	.LVL112:
1363:.\Generated_Source\PSoC4/RTC.c **** 
1364:.\Generated_Source\PSoC4/RTC.c ****     if((tmpMonth > 2u) && (0u != RTC_LeapYear(tmpYear)))
 982              		.loc 2 1364 0
 983 004c 0228     		cmp	r0, #2
 984 004e 05D9     		bls	.L53
 985              		.loc 2 1364 0 is_stmt 0 discriminator 1
 986 0050 281C     		mov	r0, r5
 987              	.LVL113:
 988 0052 FFF7FEFF 		bl	RTC_LeapYear
 989              	.LVL114:
1365:.\Generated_Source\PSoC4/RTC.c ****     {
1366:.\Generated_Source\PSoC4/RTC.c ****         tmpVal++;
 990              		.loc 2 1366 0 is_stmt 1 discriminator 1
 991 0056 431E     		sub	r3, r0, #1
 992 0058 9841     		sbc	r0, r0, r3
 993 005a 3F18     		add	r7, r7, r0
 994              	.LVL115:
 995              	.L53:
1367:.\Generated_Source\PSoC4/RTC.c ****     }
1368:.\Generated_Source\PSoC4/RTC.c **** 
1369:.\Generated_Source\PSoC4/RTC.c ****     /* Calculates how many seconds are in current month days prior to today. */
1370:.\Generated_Source\PSoC4/RTC.c ****     unixTime += tmpVal * RTC_SECONDS_PER_DAY;
 996              		.loc 2 1370 0
 997 005c 0023     		mov	r3, #0
 998 005e 244D     		ldr	r5, .L62+16
 999              	.LVL116:
1371:.\Generated_Source\PSoC4/RTC.c ****     unixTime += (RTC_GetDay(inputDate) - 1u) * RTC_SECONDS_PER_DAY;
 1000              		.loc 2 1371 0
 1001 0060 301C     		mov	r0, r6
1370:.\Generated_Source\PSoC4/RTC.c ****     unixTime += (RTC_GetDay(inputDate) - 1u) * RTC_SECONDS_PER_DAY;
 1002              		.loc 2 1370 0
 1003 0062 6F43     		mul	r7, r5
 1004              	.LVL117:
 1005 0064 0393     		str	r3, [sp, #12]
 1006              	.LVL118:
 1007 0066 0297     		str	r7, [sp, #8]
 1008              	.LVL119:
 1009              		.loc 2 1371 0
 1010 0068 FFF7FEFF 		bl	RTC_GetDay
 1011              	.LVL120:
 1012 006c 4543     		mul	r5, r0
 1013 006e 214B     		ldr	r3, .L62+20
1372:.\Generated_Source\PSoC4/RTC.c **** 
ARM GAS  C:\Users\Vitali\AppData\Local\Temp\ccu81yp2.s 			page 64


1373:.\Generated_Source\PSoC4/RTC.c ****     /* Calculates how many seconds have elapsed today up to the current hour. */
1374:.\Generated_Source\PSoC4/RTC.c ****     tmpVal = RTC_GetHours(inputTime);
 1014              		.loc 2 1374 0
 1015 0070 201C     		mov	r0, r4
1371:.\Generated_Source\PSoC4/RTC.c **** 
 1016              		.loc 2 1371 0
 1017 0072 EE18     		add	r6, r5, r3
 1018              	.LVL121:
 1019              		.loc 2 1374 0
 1020 0074 FFF7FEFF 		bl	RTC_GetHours
 1021              	.LVL122:
1371:.\Generated_Source\PSoC4/RTC.c **** 
 1022              		.loc 2 1371 0
 1023 0078 039F     		ldr	r7, [sp, #12]
 1024              		.loc 2 1374 0
 1025 007a 051C     		mov	r5, r0
 1026              	.LVL123:
 1027              	.LBB45:
 1028              	.LBB46:
 983:.\Generated_Source\PSoC4/RTC.h ****                                                                                   (uint32)RTC_24_HO
 1029              		.loc 1 983 0
 1030 007c 2302     		lsl	r3, r4, #8
 1031 007e 04D5     		bpl	.L55
 1032              	.LVL124:
 1033              	.LBE46:
 1034              	.LBE45:
 1035              	.LBB47:
 1036              	.LBB48:
 1037              	.LBB49:
 411:.\Generated_Source\PSoC4/RTC.h **** }
 1038              		.loc 1 411 0
 1039 0080 6302     		lsl	r3, r4, #9
 1040 0082 02D5     		bpl	.L55
 1041              	.LBE49:
 1042              	.LBE48:
 1043              	.LBE47:
1375:.\Generated_Source\PSoC4/RTC.c ****     if(((uint32)RTC_24_HOURS_FORMAT != RTC_GetTimeFormat(inputTime)) &&
1376:.\Generated_Source\PSoC4/RTC.c ****        ((uint32)RTC_AM != RTC_GetAmPm(inputTime)) && (tmpVal < 12u))
 1044              		.loc 2 1376 0
 1045 0084 0B28     		cmp	r0, #11
 1046 0086 00D8     		bhi	.L55
1377:.\Generated_Source\PSoC4/RTC.c ****     {
1378:.\Generated_Source\PSoC4/RTC.c ****         tmpVal += RTC_HOURS_PER_HALF_DAY;
 1047              		.loc 2 1378 0
 1048 0088 0C35     		add	r5, r5, #12
 1049              	.LVL125:
 1050              	.L55:
1379:.\Generated_Source\PSoC4/RTC.c ****     }
1380:.\Generated_Source\PSoC4/RTC.c ****     unixTime += tmpVal * RTC_SECONDS_PER_HOUR;
1381:.\Generated_Source\PSoC4/RTC.c **** 
1382:.\Generated_Source\PSoC4/RTC.c ****     /* Calculates how many seconds have elapsed today up to the current minute. */
1383:.\Generated_Source\PSoC4/RTC.c ****     unixTime += RTC_GetMinutes(inputTime) * RTC_SECONDS_PER_MINUTE;
 1051              		.loc 2 1383 0
 1052 008a 201C     		mov	r0, r4
 1053 008c FFF7FEFF 		bl	RTC_GetMinutes
 1054              	.LVL126:
 1055              	.LBB50:
ARM GAS  C:\Users\Vitali\AppData\Local\Temp\ccu81yp2.s 			page 65


 1056              	.LBB51:
 468:.\Generated_Source\PSoC4/RTC.h **** 
 1057              		.loc 1 468 0
 1058 0090 0F22     		mov	r2, #15
 467:.\Generated_Source\PSoC4/RTC.h ****     retVal += (inputTime & RTC_SECONDS_MASK) >> RTC_SECONDS_OFFSET;
 1059              		.loc 1 467 0
 1060 0092 0A23     		mov	r3, #10
 468:.\Generated_Source\PSoC4/RTC.h **** 
 1061              		.loc 1 468 0
 1062 0094 2240     		and	r2, r4
 467:.\Generated_Source\PSoC4/RTC.h ****     retVal += (inputTime & RTC_SECONDS_MASK) >> RTC_SECONDS_OFFSET;
 1063              		.loc 1 467 0
 1064 0096 6106     		lsl	r1, r4, #25
 1065              	.LBE51:
 1066              	.LBE50:
1384:.\Generated_Source\PSoC4/RTC.c **** 
1385:.\Generated_Source\PSoC4/RTC.c ****     /* Add remaining seconds of current minute. */
1386:.\Generated_Source\PSoC4/RTC.c ****     unixTime += RTC_GetSecond(inputTime);
 1067              		.loc 2 1386 0
 1068 0098 0024     		mov	r4, #0
 1069              	.LVL127:
 1070              	.LBB53:
 1071              	.LBB52:
 467:.\Generated_Source\PSoC4/RTC.h ****     retVal += (inputTime & RTC_SECONDS_MASK) >> RTC_SECONDS_OFFSET;
 1072              		.loc 1 467 0
 1073 009a 490F     		lsr	r1, r1, #29
 1074 009c 5943     		mul	r1, r3
 1075              	.LBE52:
 1076              	.LBE53:
 1077              		.loc 2 1386 0
 1078 009e 8B18     		add	r3, r1, r2
 1079 00a0 0099     		ldr	r1, [sp]
 1080 00a2 019A     		ldr	r2, [sp, #4]
 1081 00a4 C918     		add	r1, r1, r3
 1082 00a6 6241     		adc	r2, r2, r4
 1083 00a8 131C     		mov	r3, r2
 1084 00aa 0A1C     		mov	r2, r1
1383:.\Generated_Source\PSoC4/RTC.c **** 
 1085              		.loc 2 1383 0
 1086 00ac 8446     		mov	ip, r0
 1087 00ae 0298     		ldr	r0, [sp, #8]
 1088 00b0 0399     		ldr	r1, [sp, #12]
 1089 00b2 1218     		add	r2, r2, r0
 1090 00b4 4B41     		adc	r3, r3, r1
1380:.\Generated_Source\PSoC4/RTC.c **** 
 1091              		.loc 2 1380 0
 1092 00b6 E121     		mov	r1, #225
 1093 00b8 0901     		lsl	r1, r1, #4
 1094 00ba 6943     		mul	r1, r5
 1095 00bc B618     		add	r6, r6, r2
 1096 00be 5F41     		adc	r7, r7, r3
1383:.\Generated_Source\PSoC4/RTC.c **** 
 1097              		.loc 2 1383 0
 1098 00c0 6046     		mov	r0, ip
1380:.\Generated_Source\PSoC4/RTC.c **** 
 1099              		.loc 2 1380 0
 1100 00c2 0A1C     		mov	r2, r1
ARM GAS  C:\Users\Vitali\AppData\Local\Temp\ccu81yp2.s 			page 66


1383:.\Generated_Source\PSoC4/RTC.c **** 
 1101              		.loc 2 1383 0
 1102 00c4 3C21     		mov	r1, #60
1380:.\Generated_Source\PSoC4/RTC.c **** 
 1103              		.loc 2 1380 0
 1104 00c6 231C     		mov	r3, r4
1383:.\Generated_Source\PSoC4/RTC.c **** 
 1105              		.loc 2 1383 0
 1106 00c8 4143     		mul	r1, r0
 1107 00ca 9219     		add	r2, r2, r6
 1108 00cc 7B41     		adc	r3, r3, r7
 1109              	.LVL128:
 1110 00ce 0E1C     		mov	r6, r1
 1111 00d0 271C     		mov	r7, r4
 1112              		.loc 2 1386 0
 1113 00d2 9219     		add	r2, r2, r6
 1114 00d4 7B41     		adc	r3, r3, r7
 1115              	.LVL129:
 1116 00d6 101C     		mov	r0, r2
 1117 00d8 191C     		mov	r1, r3
1387:.\Generated_Source\PSoC4/RTC.c **** 
1388:.\Generated_Source\PSoC4/RTC.c ****     return(unixTime);
1389:.\Generated_Source\PSoC4/RTC.c **** }
 1118              		.loc 2 1389 0
 1119 00da 05B0     		add	sp, sp, #20
 1120              		@ sp needed
 1121              	.LVL130:
 1122 00dc F0BD     		pop	{r4, r5, r6, r7, pc}
 1123              	.L63:
 1124 00de C046     		.align	2
 1125              	.L62:
 1126 00e0 B2070000 		.word	1970
 1127 00e4 0085E201 		.word	31622400
 1128 00e8 8033E101 		.word	31536000
 1129 00ec 00000000 		.word	.LANCHOR2
 1130 00f0 80510100 		.word	86400
 1131 00f4 80AEFEFF 		.word	-86400
 1132              		.cfi_endproc
 1133              	.LFE51:
 1134              		.size	RTC_DateTimeToUnix, .-RTC_DateTimeToUnix
 1135              		.section	.text.RTC_DaysInMonth,"ax",%progbits
 1136              		.align	1
 1137              		.global	RTC_DaysInMonth
 1138              		.code	16
 1139              		.thumb_func
 1140              		.type	RTC_DaysInMonth, %function
 1141              	RTC_DaysInMonth:
 1142              	.LFB54:
1390:.\Generated_Source\PSoC4/RTC.c **** 
1391:.\Generated_Source\PSoC4/RTC.c **** 
1392:.\Generated_Source\PSoC4/RTC.c **** /*******************************************************************************
1393:.\Generated_Source\PSoC4/RTC.c **** * Function Name: RTC_UnixToDateTime
1394:.\Generated_Source\PSoC4/RTC.c **** ********************************************************************************
1395:.\Generated_Source\PSoC4/RTC.c **** *
1396:.\Generated_Source\PSoC4/RTC.c **** * Summary:
1397:.\Generated_Source\PSoC4/RTC.c **** *  This is an internal function to convert the date and time from
1398:.\Generated_Source\PSoC4/RTC.c **** *  the UNIX time format into the regular time format.
ARM GAS  C:\Users\Vitali\AppData\Local\Temp\ccu81yp2.s 			page 67


1399:.\Generated_Source\PSoC4/RTC.c **** *
1400:.\Generated_Source\PSoC4/RTC.c **** * Parameters:
1401:.\Generated_Source\PSoC4/RTC.c **** *  dayOfWeek: A day of a week:
1402:.\Generated_Source\PSoC4/RTC.c **** *                 RTC_SUNDAY
1403:.\Generated_Source\PSoC4/RTC.c **** *                 RTC_MONDAY
1404:.\Generated_Source\PSoC4/RTC.c **** *                 RTC_TUESDAY
1405:.\Generated_Source\PSoC4/RTC.c **** *                 RTC_WEDNESDAY
1406:.\Generated_Source\PSoC4/RTC.c **** *                 RTC_THURSDAY
1407:.\Generated_Source\PSoC4/RTC.c **** *                 RTC_FRIDAY
1408:.\Generated_Source\PSoC4/RTC.c **** *                 RTC_SATURDAY
1409:.\Generated_Source\PSoC4/RTC.c **** *
1410:.\Generated_Source\PSoC4/RTC.c **** *  weekOfMonth: A week of a month:
1411:.\Generated_Source\PSoC4/RTC.c **** *                 RTC_FIRST
1412:.\Generated_Source\PSoC4/RTC.c **** *                 RTC_SECOND
1413:.\Generated_Source\PSoC4/RTC.c **** *                 RTC_THIRD
1414:.\Generated_Source\PSoC4/RTC.c **** *                 RTC_FOURTH
1415:.\Generated_Source\PSoC4/RTC.c **** *                 RTC_LAST
1416:.\Generated_Source\PSoC4/RTC.c **** *
1417:.\Generated_Source\PSoC4/RTC.c **** *  month: A month of a year:
1418:.\Generated_Source\PSoC4/RTC.c **** *                   RTC_JANUARY
1419:.\Generated_Source\PSoC4/RTC.c **** *                  RTC_FEBRUARY
1420:.\Generated_Source\PSoC4/RTC.c **** *                  RTC_MARCH
1421:.\Generated_Source\PSoC4/RTC.c **** *                  RTC_APRIL
1422:.\Generated_Source\PSoC4/RTC.c **** *                  RTC_MAY
1423:.\Generated_Source\PSoC4/RTC.c **** *                  RTC_JUNE
1424:.\Generated_Source\PSoC4/RTC.c **** *                  RTC_JULY
1425:.\Generated_Source\PSoC4/RTC.c **** *                  RTC_AUGUST
1426:.\Generated_Source\PSoC4/RTC.c **** *                  RTC_SEPTEMBER
1427:.\Generated_Source\PSoC4/RTC.c **** *                  RTC_OCTOBER
1428:.\Generated_Source\PSoC4/RTC.c **** *                  RTC_NOVEMBER
1429:.\Generated_Source\PSoC4/RTC.c **** *                  RTC_DECEMBER
1430:.\Generated_Source\PSoC4/RTC.c **** *
1431:.\Generated_Source\PSoC4/RTC.c **** *  year: A year value.
1432:.\Generated_Source\PSoC4/RTC.c **** *
1433:.\Generated_Source\PSoC4/RTC.c **** * Return:
1434:.\Generated_Source\PSoC4/RTC.c **** *  A date in the "date format".
1435:.\Generated_Source\PSoC4/RTC.c **** *
1436:.\Generated_Source\PSoC4/RTC.c **** *******************************************************************************/
1437:.\Generated_Source\PSoC4/RTC.c **** void RTC_UnixToDateTime(RTC_DATE_TIME* dateTime, uint64 unixTime, uint32 timeFormat)
1438:.\Generated_Source\PSoC4/RTC.c **** {
1439:.\Generated_Source\PSoC4/RTC.c ****     uint32 tmpMinute;
1440:.\Generated_Source\PSoC4/RTC.c ****     uint32 tmpHour;
1441:.\Generated_Source\PSoC4/RTC.c ****     uint32 tmpAmPmState;
1442:.\Generated_Source\PSoC4/RTC.c **** 
1443:.\Generated_Source\PSoC4/RTC.c ****     uint32 tmpDay;
1444:.\Generated_Source\PSoC4/RTC.c ****     uint32 tmpMonth;
1445:.\Generated_Source\PSoC4/RTC.c ****     uint32 tmpYear;
1446:.\Generated_Source\PSoC4/RTC.c **** 
1447:.\Generated_Source\PSoC4/RTC.c ****     uint32 tmpVar;
