ARM GAS  C:\Users\Vitali\AppData\Local\Temp\ccAmxwy1.s 			page 1


   1              		.cpu cortex-m0
   2              		.fpu softvfp
   3              		.eabi_attribute 20, 1
   4              		.eabi_attribute 21, 1
   5              		.eabi_attribute 23, 3
   6              		.eabi_attribute 24, 1
   7              		.eabi_attribute 25, 1
   8              		.eabi_attribute 26, 1
   9              		.eabi_attribute 30, 4
  10              		.eabi_attribute 34, 0
  11              		.eabi_attribute 18, 4
  12              		.code	16
  13              		.file	"TaskDispatcher.c"
  14              		.text
  15              	.Ltext0:
  16              		.cfi_sections	.debug_frame
  17              		.section	.text.Idle,"ax",%progbits
  18              		.align	1
  19              		.global	Idle
  20              		.code	16
  21              		.thumb_func
  22              		.type	Idle, %function
  23              	Idle:
  24              	.LFB64:
  25              		.file 1 ".\\TaskDispatcher.c"
   1:.\TaskDispatcher.c **** /* ========================================
   2:.\TaskDispatcher.c ****  *
   3:.\TaskDispatcher.c ****  * Copyright YOUR COMPANY, THE YEAR
   4:.\TaskDispatcher.c ****  * All Rights Reserved
   5:.\TaskDispatcher.c ****  * UNPUBLISHED, LICENSED SOFTWARE.
   6:.\TaskDispatcher.c ****  *
   7:.\TaskDispatcher.c ****  * CONFIDENTIAL AND PROPRIETARY INFORMATION
   8:.\TaskDispatcher.c ****  * WHICH IS THE PROPERTY OF your company.
   9:.\TaskDispatcher.c ****  *
  10:.\TaskDispatcher.c ****  * ========================================
  11:.\TaskDispatcher.c **** */
  12:.\TaskDispatcher.c **** 
  13:.\TaskDispatcher.c **** #include "TaskDispatcher.h"
  14:.\TaskDispatcher.c **** 
  15:.\TaskDispatcher.c **** inline void TaskManager(void) //–î–∏—Å–ø–µ—Ç—á–µ—Ä –∑–∞–¥–∞—á
  16:.\TaskDispatcher.c **** {
  17:.\TaskDispatcher.c ****     uint8      index=0;
  18:.\TaskDispatcher.c ****     TPTR   GoToTask = Idle;      // –ò–Ω–∏—Ü–∏–∞–ª–∏–∑–∏—Ä—É–µ–º –ø–µ—Ä–µ–º–µ–Ω–Ω—ã–µ
  19:.\TaskDispatcher.c ****  
  20:.\TaskDispatcher.c ****         // –ö–∞–∫ –≤–∏–¥–∏—à—å, —Ç—É—Ç –µ—Å—Ç—å —É–∫–∞–∑–∞—Ç–µ–ª—å Idle - –≤–µ–¥—É—â–∏–π –Ω–∞ –ø—Ä–
  21:.\TaskDispatcher.c ****         // –ù–∞ –Ω–µ–µ –º–æ–∂–Ω–æ –ø–æ–≤–µ—Å–∏—Ç—å —á—Ç–æ –Ω–∏–±—É–¥—å —Å–æ–≤—Å–µ–º —Ñ–æ–Ω–æ–≤–æ–µ,
  22:.\TaskDispatcher.c ****         // –ò –ª–æ–∫–∞–ª—å–Ω–∞—è –ø–µ—Ä–µ–º–µ–Ω–Ω–∞—è-—É–∫–∞–∑–∞—Ç–µ–ª—å GoToTask –∫—É–¥–∞ –º—ã –±—
  23:.\TaskDispatcher.c ****  
  24:.\TaskDispatcher.c ****     CyGlobalIntDisable;
  25:.\TaskDispatcher.c ****         // –ó–∞–ø—Ä–µ—â–∞–µ–º –ø—Ä–µ—Ä—ã–≤–∞–Ω–∏—è!!! –≠—Ç–æ –º–∞–∫—Ä–æ—Å. –ü–æ—ç—Ç–æ–º—É –±–µ–∑ ; 
  26:.\TaskDispatcher.c ****         // –ü–æ—á–µ–º—É –Ω–µ CLI()? –≠—Ç–æ –∫–æ–º–∞–Ω–¥–∞ AVR, –∞ —è —Ö–æ—Ç–µ–ª —Å–¥–µ–ª–∞—Ç—å –º–∞
  27:.\TaskDispatcher.c ****         // –ø–ª–∞—Ç—Ñ–æ—Ä–º–æ–Ω–µ–∑–∞–≤–∏—Å–∏–º—ã–π –¥–∏—Å–ø–µ—Ç—á–µ—Ä. –ü—Ä–µ—Ä—ã–≤–∞–Ω–∏—è –Ω–∞–¥
  28:.\TaskDispatcher.c ****         // –ò–¥–µ—Ç –æ–±—Ä–∞—â–µ–Ω–∏–µ –∫ –≥–ª–æ–±–∞–ª—å–Ω–æ–π –æ—á–µ—Ä–µ–¥–∏ –¥–∏—Å–ø–µ—Ç—á–µ—Ä–∞.
  29:.\TaskDispatcher.c ****         // –ü–æ—ç—Ç–æ–º—É –∑–∞–±–æ—Ç–∏–º—Å—è –æ–± –∞—Ç–æ–º–∞—Ä–Ω–æ—Å—Ç–∏ –æ–ø–µ—Ä–∞—Ü–∏–∏. 
  30:.\TaskDispatcher.c ****  
  31:.\TaskDispatcher.c ****     GoToTask = TaskQueue[0];	// –•–≤–∞—Ç–∞–µ–º –ø–µ—Ä–≤–æ–µ –∑–Ω–∞—á–µ–Ω–∏–µ –∏–∑ –æ—á–µ—Ä–µ–¥–∏
  32:.\TaskDispatcher.c ****  
ARM GAS  C:\Users\Vitali\AppData\Local\Temp\ccAmxwy1.s 			page 2


  33:.\TaskDispatcher.c ****     if (GoToTask==Idle)		// –ï—Å–ª–∏ —Ç–∞–º –ø—É—Å—Ç–æ
  34:.\TaskDispatcher.c **** 	{
  35:.\TaskDispatcher.c **** 	    CyGlobalIntEnable;		// –†–∞–∑—Ä–µ—à–∞–µ–º –ø—Ä–µ—Ä—ã–≤–∞–Ω–∏—è
  36:.\TaskDispatcher.c **** 	    (Idle)();			// –ü–µ—Ä–µ—Ö–æ–¥–∏–º –Ω–∞ –æ–±—Ä–∞–±–æ—Ç–∫—É –ø—É—Å—Ç–æ–≥–æ —Ü–∏–∫–ª–∞
  37:.\TaskDispatcher.c ****     }
  38:.\TaskDispatcher.c ****     else
  39:.\TaskDispatcher.c ****    	{
  40:.\TaskDispatcher.c ****        	for(index=0;index!=TaskQueueSize;index++)	// –í –ø—Ä–æ—Ç–∏–≤–Ω–æ–º —Å–ª—É—á–∞–µ —Å–¥–≤–∏–≥–
  41:.\TaskDispatcher.c ****   		{
  42:.\TaskDispatcher.c ****     		TaskQueue[index]=TaskQueue[index+1];
  43:.\TaskDispatcher.c **** 		}
  44:.\TaskDispatcher.c ****         TaskQueue[TaskQueueSize]= Idle;	// –í –ø–æ—Å–ª–µ–¥–Ω—é—é –∑–∞–ø–∏—Å—å –ø–∏—Ö–∞–µ–º –∑–∞—Ç—ã
  45:.\TaskDispatcher.c ****      
  46:.\TaskDispatcher.c ****     	CyGlobalIntEnable;		// –†–∞–∑—Ä–µ—à–∞–µ–º –ø—Ä–µ—Ä—ã–≤–∞–Ω–∏—è
  47:.\TaskDispatcher.c ****     	(GoToTask)();		// –ü–µ—Ä–µ—Ö–æ–¥–∏–º –∫ –∑–∞–¥–∞—á–µ
  48:.\TaskDispatcher.c ****        	}
  49:.\TaskDispatcher.c **** }
  50:.\TaskDispatcher.c **** 
  51:.\TaskDispatcher.c **** 
  52:.\TaskDispatcher.c **** void SetTask(TPTR TS)
  53:.\TaskDispatcher.c **** {
  54:.\TaskDispatcher.c ****     uint8		index = 0;
  55:.\TaskDispatcher.c ****     uint8   	nointerrupted = 0;
  56:.\TaskDispatcher.c **** 
  57:.\TaskDispatcher.c ****     	CyGlobalIntDisable;
  58:.\TaskDispatcher.c ****     	nointerrupted = 1;					// –ò —Å—Ç–∞–≤–∏–º —Ñ–ª–∞–≥, —á—Ç–æ –º—ã –Ω–µ –≤ –ø—Ä–µ—Ä—ã–≤–∞–Ω–∏–∏. 
  59:.\TaskDispatcher.c ****     	
  60:.\TaskDispatcher.c **** 
  61:.\TaskDispatcher.c ****     while(TaskQueue[index]!=Idle) 			// –ü—Ä–æ—á–µ—Å—ã–≤–∞–µ–º –æ—á–µ—Ä–µ–¥—å –∑–∞–¥–∞—á –Ω–∞ –ø—Ä–
  62:.\TaskDispatcher.c ****     	{									// —Å –∑–Ω–∞—á–µ–Ω–∏–µ–º Idle - –∫–æ–Ω–µ—Ü –æ—á–µ—Ä–µ–¥–∏.
  63:.\TaskDispatcher.c ****     	index++;
  64:.\TaskDispatcher.c ****     	if (index==TaskQueueSize+1) 		// –ï—Å–ª–∏ –æ—á–µ—Ä–µ–¥—å –ø–µ—Ä–µ–ø–æ–ª–Ω–µ–Ω–∞ —Ç–æ –≤—ã—Ö–æ–
  65:.\TaskDispatcher.c ****     		{
  66:.\TaskDispatcher.c ****     		if (nointerrupted)	CyGlobalIntEnable; 	// –ï—Å–ª–∏ –º—ã –Ω–µ –≤ –ø—Ä–µ—Ä—ã–≤–∞–Ω–∏–∏, —Ç–æ —Ä
  67:.\TaskDispatcher.c ****     		return;									// –†–∞–Ω—å—à–µ —Ñ—É–Ω–∫—Ü–∏—è –≤–æ–∑–≤—Ä–∞—â–∞–ª–∞ –∫–æ–¥ –æ—à–∏–±–∫–∏ - –æ—
  68:.\TaskDispatcher.c ****     		}
  69:.\TaskDispatcher.c ****     	}
  70:.\TaskDispatcher.c ****     												// –ï—Å–ª–∏ –Ω–∞—à–ª–∏ —Å–≤–æ–±–æ–¥–Ω–æ–µ –º–µ—Å—Ç–æ, —Ç–æ
  71:.\TaskDispatcher.c ****     TaskQueue[index] = TS;							// –ó–∞–ø–∏—Å—ã–≤–∞–µ–º –≤ –æ—á–µ—Ä–µ–¥—å –∑–∞–¥–∞—á—É
  72:.\TaskDispatcher.c ****     if (nointerrupted) CyGlobalIntEnable;			// –ò –≤–∫–ª—é—á–∞–µ–º –ø—Ä–µ—Ä—ã–≤–∞–Ω–∏—è –µ—Å–ª–∏ –Ω
  73:.\TaskDispatcher.c **** }
  74:.\TaskDispatcher.c **** 
  75:.\TaskDispatcher.c **** //–§—É–Ω–∫—Ü–∏—è —É—Å—Ç–∞–Ω–æ–≤–∫–∏ –∑–∞–¥–∞—á–∏ –ø–æ —Ç–∞–π–º–µ—Ä—É. –ü–µ—Ä–µ–¥–∞–≤–∞–µ–º—ã–µ –ø–∞
  76:.\TaskDispatcher.c **** // –í—Ä–µ–º—è –≤—ã–¥–µ—Ä–∂–∫–∏ –≤ —Ç–∏–∫–∞—Ö —Å–∏—Å—Ç–µ–º–Ω–æ–≥–æ —Ç–∞–π–º–µ—Ä–∞. –í–æ–∑–≤—Ä–∞—â–µ—
  77:.\TaskDispatcher.c **** void SetTimerTask(TPTR TS, uint32 NewTime)
  78:.\TaskDispatcher.c **** {
  79:.\TaskDispatcher.c ****     uint8		index=0;
  80:.\TaskDispatcher.c ****     uint8		nointerrupted = 0;
  81:.\TaskDispatcher.c **** 
  82:.\TaskDispatcher.c **** 	CyGlobalIntDisable;
  83:.\TaskDispatcher.c **** 	nointerrupted = 1;
  84:.\TaskDispatcher.c **** 	
  85:.\TaskDispatcher.c ****     for(index=0;index!=MainTimerQueueSize+1;++index)	//–ü—Ä–æ—á–µ—Å—ã–≤–∞–µ–º –æ—á–µ—Ä–µ–¥—å —Ç–∞–π
  86:.\TaskDispatcher.c ****     	{
  87:.\TaskDispatcher.c ****     	    if(MainTimer[index].GoToTask == TS)				// –ï—Å–ª–∏ —É–∂–µ –µ—Å—Ç—å –∑–∞–ø–∏—Å—å —Å —Ç–∞–∫–
  88:.\TaskDispatcher.c ****     	    {
  89:.\TaskDispatcher.c **** 		        MainTimer[index].Time = NewTime;			// –ü–µ—Ä–µ–∑–∞–ø–∏—Å—ã–≤–∞–µ–º –µ–π –≤—ã–¥–µ—Ä–∂–∫—É
ARM GAS  C:\Users\Vitali\AppData\Local\Temp\ccAmxwy1.s 			page 3


  90:.\TaskDispatcher.c **** 		        if (nointerrupted) 	CyGlobalIntEnable;		// –†–∞–∑—Ä–µ—à–∞–µ–º –ø—Ä–µ—Ä—ã–≤–∞–Ω–∏—è –µ—Å–ª
  91:.\TaskDispatcher.c **** 		        return;										// –í—ã—Ö–æ–¥–∏–º. –†–∞–Ω—å—à–µ –±—ã–ª –∫–æ–¥ —É—Å–ø–µ—à–Ω–æ–π –æ–ø–µ—Ä–
  92:.\TaskDispatcher.c ****             }
  93:.\TaskDispatcher.c ****         }
  94:.\TaskDispatcher.c **** 	
  95:.\TaskDispatcher.c **** 
  96:.\TaskDispatcher.c ****     for(index=0;index!=MainTimerQueueSize+1;++index)	// –ï—Å–ª–∏ –Ω–µ –Ω–∞—Ö–æ–¥–∏–º –ø–æ—Ö–æ–∂–∏–π
  97:.\TaskDispatcher.c **** 	{
  98:.\TaskDispatcher.c ****     	if (MainTimer[index].GoToTask == Idle)		
  99:.\TaskDispatcher.c ****     	{
 100:.\TaskDispatcher.c ****     		MainTimer[index].GoToTask = TS;			// –ó–∞–ø–æ–ª–Ω—è–µ–º –ø–æ–ª–µ –ø–µ—Ä–µ—Ö–æ–¥–∞ –∑–∞–¥–∞—á–
 101:.\TaskDispatcher.c ****     		MainTimer[index].Time = NewTime;		// –ò –ø–æ–ª–µ –≤—ã–¥–µ—Ä–∂–∫–∏ –≤—Ä–µ–º–µ–Ω–∏
 102:.\TaskDispatcher.c ****     		if (nointerrupted) 	CyGlobalIntEnable;	// –†–∞–∑—Ä–µ—à–∞–µ–º –ø—Ä–µ—Ä—ã–≤–∞–Ω–∏—è
 103:.\TaskDispatcher.c ****     		return;									// –í—ã—Ö–æ–¥. 
 104:.\TaskDispatcher.c ****     	}
 105:.\TaskDispatcher.c **** 		
 106:.\TaskDispatcher.c **** 	}												// —Ç—É—Ç –º–æ–∂–Ω–æ —Å–¥–µ–ª–∞—Ç—å return c –∫–æ–¥–æ–º –æ—à–∏–±–∫–∏ - –Ω–µ—Ç —Å–≤–æ–
 107:.\TaskDispatcher.c **** }
 108:.\TaskDispatcher.c **** 
 109:.\TaskDispatcher.c **** 
 110:.\TaskDispatcher.c **** inline void InitRTOS(void)
 111:.\TaskDispatcher.c **** {
 112:.\TaskDispatcher.c ****     uint8	index;
 113:.\TaskDispatcher.c **** 
 114:.\TaskDispatcher.c ****     for(index=0;index!=TaskQueueSize+1;index++)	// –í–æ –≤—Å–µ –ø–æ–∑–∏—Ü–∏–∏ –∑–∞–ø–∏—Å—ã–≤–∞–µ–º 
 115:.\TaskDispatcher.c ****     	{
 116:.\TaskDispatcher.c ****     	TaskQueue[index] = Idle;
 117:.\TaskDispatcher.c ****     	}
 118:.\TaskDispatcher.c **** 
 119:.\TaskDispatcher.c **** 
 120:.\TaskDispatcher.c ****     for(index=0;index!=MainTimerQueueSize+1;index++) // –û–±–Ω—É–ª—è–µ–º –≤—Å–µ —Ç–∞–π–º–µ—Ä—ã.
 121:.\TaskDispatcher.c ****     	{
 122:.\TaskDispatcher.c ****     	MainTimer[index].GoToTask = Idle;
 123:.\TaskDispatcher.c ****     	MainTimer[index].Time = 0;
 124:.\TaskDispatcher.c ****     	}
 125:.\TaskDispatcher.c **** }
 126:.\TaskDispatcher.c **** 
 127:.\TaskDispatcher.c **** inline void RTOS_Start()
 128:.\TaskDispatcher.c **** {
 129:.\TaskDispatcher.c ****     InitRTOS();
 130:.\TaskDispatcher.c ****     Timer_RTOS_ISR_StartEx(TaskDispatcher_ISR);
 131:.\TaskDispatcher.c **** }
 132:.\TaskDispatcher.c **** 
 133:.\TaskDispatcher.c **** inline void  Idle(void)
 134:.\TaskDispatcher.c **** {
  26              		.loc 1 134 0
  27              		.cfi_startproc
 135:.\TaskDispatcher.c ****     
 136:.\TaskDispatcher.c **** }
  28              		.loc 1 136 0
  29              		@ sp needed
  30 0000 7047     		bx	lr
  31              		.cfi_endproc
  32              	.LFE64:
  33              		.size	Idle, .-Idle
  34              		.section	.text.TaskManager,"ax",%progbits
  35              		.align	1
ARM GAS  C:\Users\Vitali\AppData\Local\Temp\ccAmxwy1.s 			page 4


  36              		.global	TaskManager
  37              		.code	16
  38              		.thumb_func
  39              		.type	TaskManager, %function
  40              	TaskManager:
  41              	.LFB59:
  16:.\TaskDispatcher.c ****     uint8      index=0;
  42              		.loc 1 16 0
  43              		.cfi_startproc
  44              	.LVL0:
  45 0000 38B5     		push	{r3, r4, r5, lr}
  46              		.cfi_def_cfa_offset 16
  47              		.cfi_offset 3, -16
  48              		.cfi_offset 4, -12
  49              		.cfi_offset 5, -8
  50              		.cfi_offset 14, -4
  24:.\TaskDispatcher.c ****         // –ó–∞–ø—Ä–µ—â–∞–µ–º –ø—Ä–µ—Ä—ã–≤–∞–Ω–∏—è!!! –≠—Ç–æ –º–∞–∫—Ä–æ—Å. –ü–æ—ç—Ç–æ–º—É –±–µ–∑ ; 
  51              		.loc 1 24 0
  52              	@ 24 ".\TaskDispatcher.c" 1
  53 0002 72B6     		CPSID   i
  54              	@ 0 "" 2
  31:.\TaskDispatcher.c ****  
  55              		.loc 1 31 0
  56              		.code	16
  57 0004 094B     		ldr	r3, .L7
  58 0006 0A4C     		ldr	r4, .L7+4
  59 0008 1868     		ldr	r0, [r3]
  60              	.LVL1:
  61 000a 0022     		mov	r2, #0
  33:.\TaskDispatcher.c **** 	{
  62              		.loc 1 33 0
  63 000c A042     		cmp	r0, r4
  64 000e 01D1     		bne	.L3
  35:.\TaskDispatcher.c **** 	    (Idle)();			// –ü–µ—Ä–µ—Ö–æ–¥–∏–º –Ω–∞ –æ–±—Ä–∞–±–æ—Ç–∫—É –ø—É—Å—Ç–æ–≥–æ —Ü–∏–∫–ª–∞
  65              		.loc 1 35 0
  66              	@ 35 ".\TaskDispatcher.c" 1
  67 0010 62B6     		CPSIE   i
  68              	@ 0 "" 2
  69              		.code	16
  70 0012 0AE0     		b	.L2
  71              	.LVL2:
  72              	.L3:
  42:.\TaskDispatcher.c **** 		}
  73              		.loc 1 42 0 discriminator 3
  74 0014 111C     		mov	r1, r2
  75 0016 0132     		add	r2, r2, #1
  76              	.LVL3:
  77 0018 9500     		lsl	r5, r2, #2
  78 001a 5D59     		ldr	r5, [r3, r5]
  79 001c 8900     		lsl	r1, r1, #2
  80 001e 5D50     		str	r5, [r3, r1]
  81              	.LVL4:
  40:.\TaskDispatcher.c ****   		{
  82              		.loc 1 40 0 discriminator 3
  83 0020 0A2A     		cmp	r2, #10
  84 0022 F7D1     		bne	.L3
  44:.\TaskDispatcher.c ****      
ARM GAS  C:\Users\Vitali\AppData\Local\Temp\ccAmxwy1.s 			page 5


  85              		.loc 1 44 0
  86 0024 9C62     		str	r4, [r3, #40]
  46:.\TaskDispatcher.c ****     	(GoToTask)();		// –ü–µ—Ä–µ—Ö–æ–¥–∏–º –∫ –∑–∞–¥–∞—á–µ
  87              		.loc 1 46 0
  88              	@ 46 ".\TaskDispatcher.c" 1
  89 0026 62B6     		CPSIE   i
  90              	@ 0 "" 2
  47:.\TaskDispatcher.c ****        	}
  91              		.loc 1 47 0
  92              		.code	16
  93 0028 8047     		blx	r0
  94              	.LVL5:
  95              	.L2:
  49:.\TaskDispatcher.c **** 
  96              		.loc 1 49 0
  97              		@ sp needed
  98 002a 38BD     		pop	{r3, r4, r5, pc}
  99              	.L8:
 100              		.align	2
 101              	.L7:
 102 002c 00000000 		.word	.LANCHOR0
 103 0030 00000000 		.word	Idle
 104              		.cfi_endproc
 105              	.LFE59:
 106              		.size	TaskManager, .-TaskManager
 107              		.section	.text.SetTask,"ax",%progbits
 108              		.align	1
 109              		.global	SetTask
 110              		.code	16
 111              		.thumb_func
 112              		.type	SetTask, %function
 113              	SetTask:
 114              	.LFB60:
  53:.\TaskDispatcher.c ****     uint8		index = 0;
 115              		.loc 1 53 0
 116              		.cfi_startproc
 117              	.LVL6:
 118 0000 30B5     		push	{r4, r5, lr}
 119              		.cfi_def_cfa_offset 12
 120              		.cfi_offset 4, -12
 121              		.cfi_offset 5, -8
 122              		.cfi_offset 14, -4
  57:.\TaskDispatcher.c ****     	nointerrupted = 1;					// –ò —Å—Ç–∞–≤–∏–º —Ñ–ª–∞–≥, —á—Ç–æ –º—ã –Ω–µ –≤ –ø—Ä–µ—Ä—ã–≤–∞–Ω–∏–∏. 
 123              		.loc 1 57 0
 124              	@ 57 ".\TaskDispatcher.c" 1
 125 0002 72B6     		CPSID   i
 126              	@ 0 "" 2
 127              	.LVL7:
  61:.\TaskDispatcher.c ****     	{									// —Å –∑–Ω–∞—á–µ–Ω–∏–µ–º Idle - –∫–æ–Ω–µ—Ü –æ—á–µ—Ä–µ–¥–∏.
 128              		.loc 1 61 0
 129              		.code	16
 130 0004 0023     		mov	r3, #0
 131              	.LVL8:
 132              	.L10:
 133 0006 064A     		ldr	r2, .L15
 134 0008 9900     		lsl	r1, r3, #2
 135 000a 8D58     		ldr	r5, [r1, r2]
ARM GAS  C:\Users\Vitali\AppData\Local\Temp\ccAmxwy1.s 			page 6


 136 000c 054C     		ldr	r4, .L15+4
 137 000e A542     		cmp	r5, r4
 138 0010 03D0     		beq	.L14
 139              	.LVL9:
 140 0012 0133     		add	r3, r3, #1
 141              	.LVL10:
  64:.\TaskDispatcher.c ****     		{
 142              		.loc 1 64 0
 143 0014 0B2B     		cmp	r3, #11
 144 0016 F6D1     		bne	.L10
 145 0018 00E0     		b	.L13
 146              	.LVL11:
 147              	.L14:
  71:.\TaskDispatcher.c ****     if (nointerrupted) CyGlobalIntEnable;			// –ò –≤–∫–ª—é—á–∞–µ–º –ø—Ä–µ—Ä—ã–≤–∞–Ω–∏—è –µ—Å–ª–∏ –Ω
 148              		.loc 1 71 0
 149 001a 8850     		str	r0, [r1, r2]
 150              	.LVL12:
 151              	.L13:
  72:.\TaskDispatcher.c **** }
 152              		.loc 1 72 0
 153              	@ 72 ".\TaskDispatcher.c" 1
 154 001c 62B6     		CPSIE   i
 155              	@ 0 "" 2
  73:.\TaskDispatcher.c **** 
 156              		.loc 1 73 0
 157              		.code	16
 158              		@ sp needed
 159 001e 30BD     		pop	{r4, r5, pc}
 160              	.L16:
 161              		.align	2
 162              	.L15:
 163 0020 00000000 		.word	.LANCHOR0
 164 0024 00000000 		.word	Idle
 165              		.cfi_endproc
 166              	.LFE60:
 167              		.size	SetTask, .-SetTask
 168              		.section	.text.SetTimerTask,"ax",%progbits
 169              		.align	1
 170              		.global	SetTimerTask
 171              		.code	16
 172              		.thumb_func
 173              		.type	SetTimerTask, %function
 174              	SetTimerTask:
 175              	.LFB61:
  78:.\TaskDispatcher.c ****     uint8		index=0;
 176              		.loc 1 78 0
 177              		.cfi_startproc
 178              	.LVL13:
 179 0000 70B5     		push	{r4, r5, r6, lr}
 180              		.cfi_def_cfa_offset 16
 181              		.cfi_offset 4, -16
 182              		.cfi_offset 5, -12
 183              		.cfi_offset 6, -8
 184              		.cfi_offset 14, -4
  82:.\TaskDispatcher.c **** 	nointerrupted = 1;
 185              		.loc 1 82 0
 186              	@ 82 ".\TaskDispatcher.c" 1
ARM GAS  C:\Users\Vitali\AppData\Local\Temp\ccAmxwy1.s 			page 7


 187 0002 72B6     		CPSID   i
 188              	@ 0 "" 2
 189              	.LVL14:
 190              		.code	16
 191 0004 0023     		mov	r3, #0
 192              	.LVL15:
 193              	.L20:
  87:.\TaskDispatcher.c ****     	    {
 194              		.loc 1 87 0
 195 0006 0F4C     		ldr	r4, .L24
 196 0008 DA00     		lsl	r2, r3, #3
 197 000a A218     		add	r2, r4, r2
 198 000c 161C     		mov	r6, r2
 199 000e D26A     		ldr	r2, [r2, #44]
 200 0010 2C36     		add	r6, r6, #44
 201 0012 251C     		mov	r5, r4
 202 0014 8242     		cmp	r2, r0
 203 0016 01D1     		bne	.L18
  89:.\TaskDispatcher.c **** 		        if (nointerrupted) 	CyGlobalIntEnable;		// –†–∞–∑—Ä–µ—à–∞–µ–º –ø—Ä–µ—Ä—ã–≤–∞–Ω–∏—è –µ—Å–ª
 204              		.loc 1 89 0
 205 0018 7160     		str	r1, [r6, #4]
 206 001a 0DE0     		b	.L23
 207              	.L18:
 208              	.LVL16:
 209 001c 0133     		add	r3, r3, #1
 210              	.LVL17:
  85:.\TaskDispatcher.c ****     	{
 211              		.loc 1 85 0 discriminator 2
 212 001e 152B     		cmp	r3, #21
 213 0020 F1D1     		bne	.L20
 214 0022 0023     		mov	r3, #0
 215              	.L22:
 216              	.LVL18:
  98:.\TaskDispatcher.c ****     	{
 217              		.loc 1 98 0
 218 0024 DA00     		lsl	r2, r3, #3
 219 0026 AA18     		add	r2, r5, r2
 220 0028 141C     		mov	r4, r2
 221 002a D66A     		ldr	r6, [r2, #44]
 222 002c 064A     		ldr	r2, .L24+4
 223 002e 2C34     		add	r4, r4, #44
 224 0030 9642     		cmp	r6, r2
 225 0032 03D1     		bne	.L21
 100:.\TaskDispatcher.c ****     		MainTimer[index].Time = NewTime;		// –ò –ø–æ–ª–µ –≤—ã–¥–µ—Ä–∂–∫–∏ –≤—Ä–µ–º–µ–Ω–∏
 226              		.loc 1 100 0
 227 0034 2060     		str	r0, [r4]
 101:.\TaskDispatcher.c ****     		if (nointerrupted) 	CyGlobalIntEnable;	// –†–∞–∑—Ä–µ—à–∞–µ–º –ø—Ä–µ—Ä—ã–≤–∞–Ω–∏—è
 228              		.loc 1 101 0
 229 0036 6160     		str	r1, [r4, #4]
 230              	.L23:
 102:.\TaskDispatcher.c ****     		return;									// –í—ã—Ö–æ–¥. 
 231              		.loc 1 102 0
 232              	@ 102 ".\TaskDispatcher.c" 1
 233 0038 62B6     		CPSIE   i
 234              	@ 0 "" 2
 235              		.code	16
 236 003a 02E0     		b	.L17
ARM GAS  C:\Users\Vitali\AppData\Local\Temp\ccAmxwy1.s 			page 8


 237              	.L21:
 238              	.LVL19:
 239 003c 0133     		add	r3, r3, #1
 240              	.LVL20:
  96:.\TaskDispatcher.c **** 	{
 241              		.loc 1 96 0 discriminator 2
 242 003e 152B     		cmp	r3, #21
 243 0040 F0D1     		bne	.L22
 244              	.L17:
 107:.\TaskDispatcher.c **** 
 245              		.loc 1 107 0
 246              		@ sp needed
 247 0042 70BD     		pop	{r4, r5, r6, pc}
 248              	.L25:
 249              		.align	2
 250              	.L24:
 251 0044 00000000 		.word	.LANCHOR0
 252 0048 00000000 		.word	Idle
 253              		.cfi_endproc
 254              	.LFE61:
 255              		.size	SetTimerTask, .-SetTimerTask
 256              		.section	.text.InitRTOS,"ax",%progbits
 257              		.align	1
 258              		.global	InitRTOS
 259              		.code	16
 260              		.thumb_func
 261              		.type	InitRTOS, %function
 262              	InitRTOS:
 263              	.LFB62:
 111:.\TaskDispatcher.c ****     uint8	index;
 264              		.loc 1 111 0
 265              		.cfi_startproc
 266              	.LVL21:
 267 0000 10B5     		push	{r4, lr}
 268              		.cfi_def_cfa_offset 8
 269              		.cfi_offset 4, -8
 270              		.cfi_offset 14, -4
 111:.\TaskDispatcher.c ****     uint8	index;
 271              		.loc 1 111 0
 272 0002 0024     		mov	r4, #0
 273              	.LVL22:
 274              	.L27:
 116:.\TaskDispatcher.c ****     	}
 275              		.loc 1 116 0 discriminator 3
 276 0004 094A     		ldr	r2, .L29
 277 0006 0A4B     		ldr	r3, .L29+4
 278 0008 A100     		lsl	r1, r4, #2
 279 000a 0134     		add	r4, r4, #1
 280              	.LVL23:
 281 000c 8B50     		str	r3, [r1, r2]
 282 000e 101C     		mov	r0, r2
 283 0010 191C     		mov	r1, r3
 114:.\TaskDispatcher.c ****     	{
 284              		.loc 1 114 0 discriminator 3
 285 0012 0B2C     		cmp	r4, #11
 286 0014 F6D1     		bne	.L27
 287 0016 0023     		mov	r3, #0
ARM GAS  C:\Users\Vitali\AppData\Local\Temp\ccAmxwy1.s 			page 9


 288              	.L28:
 289              	.LVL24:
 122:.\TaskDispatcher.c ****     	MainTimer[index].Time = 0;
 290              		.loc 1 122 0 discriminator 3
 291 0018 DA00     		lsl	r2, r3, #3
 292 001a 8218     		add	r2, r0, r2
 293 001c 141C     		mov	r4, r2
 294 001e D162     		str	r1, [r2, #44]
 123:.\TaskDispatcher.c ****     	}
 295              		.loc 1 123 0 discriminator 3
 296 0020 0022     		mov	r2, #0
 297 0022 0133     		add	r3, r3, #1
 298              	.LVL25:
 299 0024 2263     		str	r2, [r4, #48]
 120:.\TaskDispatcher.c ****     	{
 300              		.loc 1 120 0 discriminator 3
 301 0026 152B     		cmp	r3, #21
 302 0028 F6D1     		bne	.L28
 125:.\TaskDispatcher.c **** 
 303              		.loc 1 125 0
 304              		@ sp needed
 305 002a 10BD     		pop	{r4, pc}
 306              	.L30:
 307              		.align	2
 308              	.L29:
 309 002c 00000000 		.word	.LANCHOR0
 310 0030 00000000 		.word	Idle
 311              		.cfi_endproc
 312              	.LFE62:
 313              		.size	InitRTOS, .-InitRTOS
 314              		.section	.text.RTOS_Start,"ax",%progbits
 315              		.align	1
 316              		.global	RTOS_Start
 317              		.code	16
 318              		.thumb_func
 319              		.type	RTOS_Start, %function
 320              	RTOS_Start:
 321              	.LFB63:
 128:.\TaskDispatcher.c ****     InitRTOS();
 322              		.loc 1 128 0
 323              		.cfi_startproc
 324 0000 08B5     		push	{r3, lr}
 325              		.cfi_def_cfa_offset 8
 326              		.cfi_offset 3, -8
 327              		.cfi_offset 14, -4
 129:.\TaskDispatcher.c ****     Timer_RTOS_ISR_StartEx(TaskDispatcher_ISR);
 328              		.loc 1 129 0
 329 0002 FFF7FEFF 		bl	InitRTOS
 330              	.LVL26:
 130:.\TaskDispatcher.c **** }
 331              		.loc 1 130 0
 332 0006 0248     		ldr	r0, .L32
 333 0008 FFF7FEFF 		bl	Timer_RTOS_ISR_StartEx
 334              	.LVL27:
 131:.\TaskDispatcher.c **** 
 335              		.loc 1 131 0
 336              		@ sp needed
ARM GAS  C:\Users\Vitali\AppData\Local\Temp\ccAmxwy1.s 			page 10


 337 000c 08BD     		pop	{r3, pc}
 338              	.L33:
 339 000e C046     		.align	2
 340              	.L32:
 341 0010 00000000 		.word	TaskDispatcher_ISR
 342              		.cfi_endproc
 343              	.LFE63:
 344              		.size	RTOS_Start, .-RTOS_Start
 345              		.section	.text.TimerService,"ax",%progbits
 346              		.align	1
 347              		.global	TimerService
 348              		.code	16
 349              		.thumb_func
 350              		.type	TimerService, %function
 351              	TimerService:
 352              	.LFB65:
 137:.\TaskDispatcher.c **** 
 138:.\TaskDispatcher.c **** /*
 139:.\TaskDispatcher.c **** –°–ª—É–∂–±–∞ —Ç–∞–π–º–µ—Ä–æ–≤ —è–¥—Ä–∞. –î–æ–ª–∂–Ω–∞ –≤—ã–∑—ã–≤–∞—Ç—å—Å—è –∏–∑ –ø—Ä–µ—Ä—ã–≤–∞–Ω–∏—è
 140:.\TaskDispatcher.c **** 
 141:.\TaskDispatcher.c **** To DO: –ü—Ä–∏–≤–µ—Å—Ç–∏ –∫ –≤–æ–∑–º–æ–∂–Ω–æ—Å—Ç–∏ –∑–∞–≥—Ä—É–∂–∞—Ç—å –ø—Ä–æ–∏–∑–≤–æ–ª—å–Ω—É—é –æ—á–
 142:.\TaskDispatcher.c **** –ê —Ç–∞–∫–∂–µ –∏—Å–ø–æ–ª—å–∑–æ–≤–∞—Ç—å —ç—Ç—É —Ñ—É–Ω–∫—Ü–∏—é –ø—Ä–æ–∏–∑–≤–æ–ª—å–Ω—ã–º –æ–±—Ä–∞–∑–æ–
 143:.\TaskDispatcher.c **** –í —ç—Ç–æ–º —Å–ª—É—á–∞–µ –Ω–µ –∑–∞–±—ã—Ç—å –¥–æ–±–∞–≤–∏—Ç—å –ø—Ä–æ–≤–µ—Ä–∫—É –ø—Ä–µ—Ä—ã–≤–∞–Ω–∏—è. 
 144:.\TaskDispatcher.c **** */
 145:.\TaskDispatcher.c **** inline void TimerService(void)
 146:.\TaskDispatcher.c **** {
 353              		.loc 1 146 0
 354              		.cfi_startproc
 355              	.LVL28:
 356 0000 70B5     		push	{r4, r5, r6, lr}
 357              		.cfi_def_cfa_offset 16
 358              		.cfi_offset 4, -16
 359              		.cfi_offset 5, -12
 360              		.cfi_offset 6, -8
 361              		.cfi_offset 14, -4
 362              		.loc 1 146 0
 363 0002 0025     		mov	r5, #0
 364              	.LVL29:
 365              	.L37:
 147:.\TaskDispatcher.c ****     uint8 index;
 148:.\TaskDispatcher.c **** 
 149:.\TaskDispatcher.c ****     for(index=0;index!=MainTimerQueueSize+1;index++)		// –ü—Ä–æ—á–µ—Å—ã–≤–∞–µ–º –æ—á–µ—Ä–µ–¥—å —Ç–∞
 150:.\TaskDispatcher.c ****     	{
 151:.\TaskDispatcher.c ****     	if(MainTimer[index].GoToTask == Idle) continue;		// –ï—Å–ª–∏ –Ω–∞—à–ª–∏ –ø—É—Å—Ç—ã—à–∫—É - —â–
 366              		.loc 1 151 0
 367 0004 0B4C     		ldr	r4, .L38
 368 0006 EB00     		lsl	r3, r5, #3
 369 0008 E418     		add	r4, r4, r3
 370 000a 231C     		mov	r3, r4
 371 000c E26A     		ldr	r2, [r4, #44]
 372 000e 0A4E     		ldr	r6, .L38+4
 373 0010 2C33     		add	r3, r3, #44
 374 0012 B242     		cmp	r2, r6
 375 0014 0AD0     		beq	.L35
 152:.\TaskDispatcher.c **** 
 153:.\TaskDispatcher.c ****     	if(MainTimer[index].Time !=1)						// –ï—Å–ª–∏ —Ç–∞–π–º–µ—Ä –Ω–µ –≤—ã—â–µ–ª–∫–∞–ª, —Ç–æ —â–µ–ª
 376              		.loc 1 153 0
ARM GAS  C:\Users\Vitali\AppData\Local\Temp\ccAmxwy1.s 			page 11


 377 0016 5A68     		ldr	r2, [r3, #4]
 378 0018 012A     		cmp	r2, #1
 379 001a 03D0     		beq	.L36
 154:.\TaskDispatcher.c ****     		{												// To Do: –í—ã—á–∏—Å–ª–∏—Ç—å –ø–æ —Ç–∞–∫—Ç–∞–º, —á—Ç–æ –ª—É—á—à–µ !=1 –∏–ª–∏ !=0
 155:.\TaskDispatcher.c ****     		MainTimer[index].Time --;						// –£–º–µ–Ω—å—à–∞–µ–º —á–∏—Å–ª–æ –≤ —è—á–µ–π–∫–µ –µ—Å–ª–∏ –Ω–µ
 380              		.loc 1 155 0
 381 001c 5A68     		ldr	r2, [r3, #4]
 382 001e 013A     		sub	r2, r2, #1
 383 0020 5A60     		str	r2, [r3, #4]
 384 0022 03E0     		b	.L35
 385              	.L36:
 156:.\TaskDispatcher.c ****     		}
 157:.\TaskDispatcher.c ****     	else
 158:.\TaskDispatcher.c ****     		{
 159:.\TaskDispatcher.c ****     		SetTask(MainTimer[index].GoToTask);				// –î–æ—â–µ–ª–∫–∞–ª–∏ –¥–æ –Ω—É–ª—è? –ü–∏—Ö–∞–µ–º –≤ –
 386              		.loc 1 159 0
 387 0024 E06A     		ldr	r0, [r4, #44]
 388 0026 FFF7FEFF 		bl	SetTask
 389              	.LVL30:
 160:.\TaskDispatcher.c ****     		MainTimer[index].GoToTask = Idle;				// –ê –≤ —è—á–µ–π–∫—É –ø–∏—à–µ–º –∑–∞—Ç—ã—á–∫—É
 390              		.loc 1 160 0
 391 002a E662     		str	r6, [r4, #44]
 392              	.L35:
 393              	.LVL31:
 394 002c 0135     		add	r5, r5, #1
 395              	.LVL32:
 149:.\TaskDispatcher.c ****     	{
 396              		.loc 1 149 0 discriminator 2
 397 002e 152D     		cmp	r5, #21
 398 0030 E8D1     		bne	.L37
 161:.\TaskDispatcher.c ****     		}
 162:.\TaskDispatcher.c ****     	}
 163:.\TaskDispatcher.c **** }
 399              		.loc 1 163 0
 400              		@ sp needed
 401 0032 70BD     		pop	{r4, r5, r6, pc}
 402              	.L39:
 403              		.align	2
 404              	.L38:
 405 0034 00000000 		.word	.LANCHOR0
 406 0038 00000000 		.word	Idle
 407              		.cfi_endproc
 408              	.LFE65:
 409              		.size	TimerService, .-TimerService
 410              		.section	.text.TaskDispatcher_ISR,"ax",%progbits
 411              		.align	1
 412              		.global	TaskDispatcher_ISR
 413              		.code	16
 414              		.thumb_func
 415              		.type	TaskDispatcher_ISR, %function
 416              	TaskDispatcher_ISR:
 417              	.LFB66:
 164:.\TaskDispatcher.c **** 
 165:.\TaskDispatcher.c **** 
 166:.\TaskDispatcher.c **** 
 167:.\TaskDispatcher.c **** CY_ISR(TaskDispatcher_ISR)
 168:.\TaskDispatcher.c **** {
ARM GAS  C:\Users\Vitali\AppData\Local\Temp\ccAmxwy1.s 			page 12


 418              		.loc 1 168 0
 419              		.cfi_startproc
 420 0000 08B5     		push	{r3, lr}
 421              		.cfi_def_cfa_offset 8
 422              		.cfi_offset 3, -8
 423              		.cfi_offset 14, -4
 169:.\TaskDispatcher.c ****     TimerService();
 424              		.loc 1 169 0
 425 0002 FFF7FEFF 		bl	TimerService
 426              	.LVL33:
 170:.\TaskDispatcher.c ****     RTC_Update();
 171:.\TaskDispatcher.c **** }
 427              		.loc 1 171 0
 428              		@ sp needed
 170:.\TaskDispatcher.c ****     RTC_Update();
 429              		.loc 1 170 0
 430 0006 FFF7FEFF 		bl	RTC_Update
 431              	.LVL34:
 432              		.loc 1 171 0
 433 000a 08BD     		pop	{r3, pc}
 434              		.cfi_endproc
 435              	.LFE66:
 436              		.size	TaskDispatcher_ISR, .-TaskDispatcher_ISR
 437              		.comm	System_Timer,40,4
 438              		.comm	System_Timer_Flag,5,1
 439              		.bss
 440              		.align	2
 441              		.set	.LANCHOR0,. + 0
 442              		.type	TaskQueue, %object
 443              		.size	TaskQueue, 44
 444              	TaskQueue:
 445 0000 00000000 		.space	44
 445      00000000 
 445      00000000 
 445      00000000 
 445      00000000 
 446              		.type	MainTimer, %object
 447              		.size	MainTimer, 168
 448              	MainTimer:
 449 002c 00000000 		.space	168
 449      00000000 
 449      00000000 
 449      00000000 
 449      00000000 
 450              		.text
 451              	.Letext0:
 452              		.file 2 "Generated_Source\\PSoC4/cytypes.h"
 453              		.file 3 ".\\SysClock.h"
 454              		.file 4 ".\\TaskDispatcher.h"
 455              		.file 5 "Generated_Source\\PSoC4/RTC.h"
 456              		.file 6 "Generated_Source\\PSoC4/Timer_RTOS_ISR.h"