ARM GAS  C:\Users\Vitali\AppData\Local\Temp\cc82nV58.s 			page 1


   1              		.cpu cortex-m0
   2              		.fpu softvfp
   3              		.eabi_attribute 20, 1
   4              		.eabi_attribute 21, 1
   5              		.eabi_attribute 23, 3
   6              		.eabi_attribute 24, 1
   7              		.eabi_attribute 25, 1
   8              		.eabi_attribute 26, 1
   9              		.eabi_attribute 30, 4
  10              		.eabi_attribute 34, 0
  11              		.eabi_attribute 18, 4
  12              		.code	16
  13              		.file	"WS0010.c"
  14              		.text
  15              	.Ltext0:
  16              		.cfi_sections	.debug_frame
  17              		.section	.text.Enable_Frame_DDR,"ax",%progbits
  18              		.align	1
  19              		.global	Enable_Frame_DDR
  20              		.code	16
  21              		.thumb_func
  22              		.type	Enable_Frame_DDR, %function
  23              	Enable_Frame_DDR:
  24              	.LFB59:
  25              		.file 1 ".\\WS0010.c"
   1:.\WS0010.c    **** /* ========================================
   2:.\WS0010.c    ****  *
   3:.\WS0010.c    ****  * Copyright YOUR COMPANY, THE YEAR
   4:.\WS0010.c    ****  * All Rights Reserved
   5:.\WS0010.c    ****  * UNPUBLISHED, LICENSED SOFTWARE.
   6:.\WS0010.c    ****  *
   7:.\WS0010.c    ****  * CONFIDENTIAL AND PROPRIETARY INFORMATION
   8:.\WS0010.c    ****  * WHICH IS THE PROPERTY OF your company.
   9:.\WS0010.c    ****  *
  10:.\WS0010.c    ****  * ========================================
  11:.\WS0010.c    **** */
  12:.\WS0010.c    **** #include "WS0010.h"
  13:.\WS0010.c    **** 
  14:.\WS0010.c    ****     void inline Enable_Frame_DDR()
  15:.\WS0010.c    ****     {
  26              		.loc 1 15 0
  27              		.cfi_startproc
  28              	.LVL0:
  29 0000 0021     		mov	r1, #0
  30 0002 10B5     		push	{r4, lr}
  31              		.cfi_def_cfa_offset 8
  32              		.cfi_offset 4, -8
  33              		.cfi_offset 14, -4
  34              	.LVL1:
  35              	.L2:
  36              		.loc 1 15 0
  37 0004 0022     		mov	r2, #0
  38              	.LVL2:
  39              	.L3:
  16:.\WS0010.c    ****         uint8 Line, Col;
  17:.\WS0010.c    ****     
  18:.\WS0010.c    ****         for(Line = 0; Line < LCD_Line; Line++)
ARM GAS  C:\Users\Vitali\AppData\Local\Temp\cc82nV58.s 			page 2


  19:.\WS0010.c    ****         {
  20:.\WS0010.c    ****             for(Col = 0; Col < LCD_Column; Col++)
  21:.\WS0010.c    ****             {
  22:.\WS0010.c    ****                 FrameDDR[Line][Col] = 0x20;
  40              		.loc 1 22 0 discriminator 3
  41 0006 1423     		mov	r3, #20
  42 0008 2024     		mov	r4, #32
  43 000a 4B43     		mul	r3, r1
  44 000c 0648     		ldr	r0, .L6
  45 000e 9B18     		add	r3, r3, r2
  46 0010 0132     		add	r2, r2, #1
  47              	.LVL3:
  48 0012 1C54     		strb	r4, [r3, r0]
  20:.\WS0010.c    ****             {
  49              		.loc 1 20 0 discriminator 3
  50 0014 142A     		cmp	r2, #20
  51 0016 F6D1     		bne	.L3
  52              	.LVL4:
  53 0018 0131     		add	r1, r1, #1
  54              	.LVL5:
  18:.\WS0010.c    ****         {
  55              		.loc 1 18 0 discriminator 2
  56 001a 0429     		cmp	r1, #4
  57 001c F2D1     		bne	.L2
  23:.\WS0010.c    ****             }
  24:.\WS0010.c    ****         }
  25:.\WS0010.c    ****         Frame_Tail = 0;
  58              		.loc 1 25 0
  59 001e 0022     		mov	r2, #0
  60 0020 024B     		ldr	r3, .L6+4
  26:.\WS0010.c    ****     }
  61              		.loc 1 26 0
  62              		@ sp needed
  25:.\WS0010.c    ****     }
  63              		.loc 1 25 0
  64 0022 1A70     		strb	r2, [r3]
  65              		.loc 1 26 0
  66 0024 10BD     		pop	{r4, pc}
  67              	.L7:
  68 0026 C046     		.align	2
  69              	.L6:
  70 0028 00000000 		.word	FrameDDR
  71 002c 00000000 		.word	Frame_Tail
  72              		.cfi_endproc
  73              	.LFE59:
  74              		.size	Enable_Frame_DDR, .-Enable_Frame_DDR
  75              		.section	.text.LCD_WS0010Start,"ax",%progbits
  76              		.align	1
  77              		.global	LCD_WS0010Start
  78              		.code	16
  79              		.thumb_func
  80              		.type	LCD_WS0010Start, %function
  81              	LCD_WS0010Start:
  82              	.LFB60:
  27:.\WS0010.c    ****     
  28:.\WS0010.c    ****     void inline LCD_WS0010Start()
  29:.\WS0010.c    ****     {
ARM GAS  C:\Users\Vitali\AppData\Local\Temp\cc82nV58.s 			page 3


  83              		.loc 1 29 0
  84              		.cfi_startproc
  85 0000 08B5     		push	{r3, lr}
  86              		.cfi_def_cfa_offset 8
  87              		.cfi_offset 3, -8
  88              		.cfi_offset 14, -4
  30:.\WS0010.c    ****       
  31:.\WS0010.c    ****         LCD_WriteControl(0x00);//
  89              		.loc 1 31 0
  90 0002 0020     		mov	r0, #0
  91 0004 FFF7FEFF 		bl	LCD_WriteControl
  92              	.LVL6:
  32:.\WS0010.c    ****         LCD_WriteControl(0x00);
  93              		.loc 1 32 0
  94 0008 0020     		mov	r0, #0
  95 000a FFF7FEFF 		bl	LCD_WriteControl
  96              	.LVL7:
  33:.\WS0010.c    ****         LCD_WriteControl(0x02);
  97              		.loc 1 33 0
  98 000e 0220     		mov	r0, #2
  99 0010 FFF7FEFF 		bl	LCD_WriteControl
 100              	.LVL8:
  34:.\WS0010.c    ****         LCD_WriteControl(0x2A);
 101              		.loc 1 34 0
 102 0014 2A20     		mov	r0, #42
 103 0016 FFF7FEFF 		bl	LCD_WriteControl
 104              	.LVL9:
  35:.\WS0010.c    ****         LCD_WriteControl(0x08);
 105              		.loc 1 35 0
 106 001a 0820     		mov	r0, #8
 107 001c FFF7FEFF 		bl	LCD_WriteControl
 108              	.LVL10:
  36:.\WS0010.c    ****         LCD_WriteControl(0x01);
 109              		.loc 1 36 0
 110 0020 0120     		mov	r0, #1
 111 0022 FFF7FEFF 		bl	LCD_WriteControl
 112              	.LVL11:
  37:.\WS0010.c    ****         LCD_WriteControl(0x02);
 113              		.loc 1 37 0
 114 0026 0220     		mov	r0, #2
 115 0028 FFF7FEFF 		bl	LCD_WriteControl
 116              	.LVL12:
  38:.\WS0010.c    ****         LCD_WriteControl(0x06);
 117              		.loc 1 38 0
 118 002c 0620     		mov	r0, #6
 119 002e FFF7FEFF 		bl	LCD_WriteControl
 120              	.LVL13:
  39:.\WS0010.c    ****         
  40:.\WS0010.c    ****         Enable_Frame_DDR();
 121              		.loc 1 40 0
 122 0032 FFF7FEFF 		bl	Enable_Frame_DDR
 123              	.LVL14:
  41:.\WS0010.c    ****         LCD_WriteControl(0x0C);
 124              		.loc 1 41 0
 125 0036 0C20     		mov	r0, #12
 126 0038 FFF7FEFF 		bl	LCD_WriteControl
 127              	.LVL15:
ARM GAS  C:\Users\Vitali\AppData\Local\Temp\cc82nV58.s 			page 4


  42:.\WS0010.c    ****     }
 128              		.loc 1 42 0
 129              		@ sp needed
 130 003c 08BD     		pop	{r3, pc}
 131              		.cfi_endproc
 132              	.LFE60:
 133              		.size	LCD_WS0010Start, .-LCD_WS0010Start
 134              		.section	.text.Add_To_DDR,"ax",%progbits
 135              		.align	1
 136              		.global	Add_To_DDR
 137              		.code	16
 138              		.thumb_func
 139              		.type	Add_To_DDR, %function
 140              	Add_To_DDR:
 141              	.LFB61:
  43:.\WS0010.c    ****     
  44:.\WS0010.c    ****     void Add_To_DDR(char8 *string)
  45:.\WS0010.c    ****     {
 142              		.loc 1 45 0
 143              		.cfi_startproc
 144              	.LVL16:
 145 0000 F0B5     		push	{r4, r5, r6, r7, lr}
 146              		.cfi_def_cfa_offset 20
 147              		.cfi_offset 4, -20
 148              		.cfi_offset 5, -16
 149              		.cfi_offset 6, -12
 150              		.cfi_offset 7, -8
 151              		.cfi_offset 14, -4
  46:.\WS0010.c    ****         uint8 TailBuf = Frame_Tail;
 152              		.loc 1 46 0
 153 0002 224B     		ldr	r3, .L22
  47:.\WS0010.c    ****         uint8 index = 1;
  48:.\WS0010.c    ****         uint8 Col = 0;
  49:.\WS0010.c    ****         uint8 Line;
  50:.\WS0010.c    ****         char8 current = *string;
 154              		.loc 1 50 0
 155 0004 0178     		ldrb	r1, [r0]
  46:.\WS0010.c    ****         uint8 TailBuf = Frame_Tail;
 156              		.loc 1 46 0
 157 0006 1D78     		ldrb	r5, [r3]
  51:.\WS0010.c    ****         if(TailBuf == 4)
 158              		.loc 1 51 0
 159 0008 0022     		mov	r2, #0
  46:.\WS0010.c    ****         uint8 TailBuf = Frame_Tail;
 160              		.loc 1 46 0
 161 000a EDB2     		uxtb	r5, r5
 162              	.LVL17:
 163              		.loc 1 51 0
 164 000c 042D     		cmp	r5, #4
 165 000e 2BD1     		bne	.L11
 166 0010 0023     		mov	r3, #0
 167              	.LVL18:
 168              	.L10:
  52:.\WS0010.c    ****         {
  53:.\WS0010.c    ****             for(Col = 0; Col < LCD_Column; Col++)
  54:.\WS0010.c    ****             {
  55:.\WS0010.c    ****                 FrameDDR[0][Col] = (char8) ' ';
ARM GAS  C:\Users\Vitali\AppData\Local\Temp\cc82nV58.s 			page 5


 169              		.loc 1 55 0 discriminator 3
 170 0012 2024     		mov	r4, #32
 171 0014 1E4A     		ldr	r2, .L22+4
 172 0016 D454     		strb	r4, [r2, r3]
 173              	.LVL19:
 174 0018 0133     		add	r3, r3, #1
 175              	.LVL20:
  53:.\WS0010.c    ****             {
 176              		.loc 1 53 0 discriminator 3
 177 001a 142B     		cmp	r3, #20
 178 001c F9D1     		bne	.L10
 179 001e 0125     		mov	r5, #1
 180              	.LVL21:
 181              	.L12:
 182 0020 0024     		mov	r4, #0
 183              	.LVL22:
 184              	.L13:
  56:.\WS0010.c    ****             }
  57:.\WS0010.c    ****             for(Line = 1; Line< LCD_Line; Line++)
  58:.\WS0010.c    ****             {
  59:.\WS0010.c    ****                 for(Col = 0; Col < LCD_Column; Col++)
  60:.\WS0010.c    ****                 {
  61:.\WS0010.c    ****                     FrameDDR[Line - 1][Col] = FrameDDR[Line][Col]; 
 185              		.loc 1 61 0 discriminator 3
 186 0022 1423     		mov	r3, #20
 187 0024 1E1C     		mov	r6, r3
 188 0026 6E43     		mul	r6, r5
 189 0028 6F1E     		sub	r7, r5, #1
 190 002a 7B43     		mul	r3, r7
 191 002c 3619     		add	r6, r6, r4
 192 002e 965D     		ldrb	r6, [r2, r6]
 193 0030 1B19     		add	r3, r3, r4
 194 0032 F6B2     		uxtb	r6, r6
 195 0034 0134     		add	r4, r4, #1
 196              	.LVL23:
 197 0036 D654     		strb	r6, [r2, r3]
  59:.\WS0010.c    ****                 {
 198              		.loc 1 59 0 discriminator 3
 199 0038 142C     		cmp	r4, #20
 200 003a F2D1     		bne	.L13
 201              	.LVL24:
 202 003c 0135     		add	r5, r5, #1
 203              	.LVL25:
  57:.\WS0010.c    ****             {
 204              		.loc 1 57 0 discriminator 2
 205 003e 042D     		cmp	r5, #4
 206 0040 EED1     		bne	.L12
 207 0042 0023     		mov	r3, #0
 208              	.LVL26:
 209              	.L14:
  62:.\WS0010.c    ****                 }
  63:.\WS0010.c    ****             }
  64:.\WS0010.c    ****             for(Col = 0; Col < LCD_Column; Col++)
  65:.\WS0010.c    ****             {
  66:.\WS0010.c    ****                 FrameDDR[3][Col] = (char8) ' ';
 210              		.loc 1 66 0 discriminator 3
 211 0044 2025     		mov	r5, #32
ARM GAS  C:\Users\Vitali\AppData\Local\Temp\cc82nV58.s 			page 6


 212 0046 D418     		add	r4, r2, r3
 213 0048 3C34     		add	r4, r4, #60
 214 004a 0133     		add	r3, r3, #1
 215              	.LVL27:
 216 004c 2570     		strb	r5, [r4]
  64:.\WS0010.c    ****             {
 217              		.loc 1 64 0 discriminator 3
 218 004e 142B     		cmp	r3, #20
 219 0050 F8D1     		bne	.L14
  64:.\WS0010.c    ****             {
 220              		.loc 1 64 0 is_stmt 0
 221 0052 0023     		mov	r3, #0
 222              	.LVL28:
 223              	.L15:
 224 0054 5C1C     		add	r4, r3, #1
 225 0056 E4B2     		uxtb	r4, r4
 226              	.LVL29:
  67:.\WS0010.c    ****             }
  68:.\WS0010.c    ****             Col = 0;
  69:.\WS0010.c    ****             while((char8) '\0' != current)
 227              		.loc 1 69 0 is_stmt 1
 228 0058 0029     		cmp	r1, #0
 229 005a 15D0     		beq	.L9
  70:.\WS0010.c    ****                 {
  71:.\WS0010.c    ****                     FrameDDR[3][Col] = current;
 230              		.loc 1 71 0
 231 005c D318     		add	r3, r2, r3
 232 005e 3C33     		add	r3, r3, #60
 233 0060 1970     		strb	r1, [r3]
  72:.\WS0010.c    ****                     current = string[index];
 234              		.loc 1 72 0
 235 0062 015D     		ldrb	r1, [r0, r4]
 236              	.LVL30:
  73:.\WS0010.c    ****                     index++;
  74:.\WS0010.c    ****                     Col++;
 237              		.loc 1 74 0
 238 0064 231C     		mov	r3, r4
 239 0066 F5E7     		b	.L15
 240              	.LVL31:
 241              	.L11:
 242 0068 541C     		add	r4, r2, #1
 243 006a E4B2     		uxtb	r4, r4
 244              	.LVL32:
  75:.\WS0010.c    ****                 }
  76:.\WS0010.c    ****         }
  77:.\WS0010.c    ****         else
  78:.\WS0010.c    ****         {
  79:.\WS0010.c    ****             while((char8) '\0' != current)
 245              		.loc 1 79 0
 246 006c 0029     		cmp	r1, #0
 247 006e 07D0     		beq	.L21
  80:.\WS0010.c    ****                 {
  81:.\WS0010.c    ****                     FrameDDR[TailBuf][Col] = current;
 248              		.loc 1 81 0
 249 0070 1426     		mov	r6, #20
 250 0072 6E43     		mul	r6, r5
 251 0074 B218     		add	r2, r6, r2
ARM GAS  C:\Users\Vitali\AppData\Local\Temp\cc82nV58.s 			page 7


 252 0076 064E     		ldr	r6, .L22+4
 253 0078 9155     		strb	r1, [r2, r6]
  82:.\WS0010.c    ****                     current = string[index];
 254              		.loc 1 82 0
 255 007a 015D     		ldrb	r1, [r0, r4]
 256              	.LVL33:
  83:.\WS0010.c    ****                     index++;
  84:.\WS0010.c    ****                     Col++;
 257              		.loc 1 84 0
 258 007c 221C     		mov	r2, r4
 259 007e F3E7     		b	.L11
 260              	.LVL34:
 261              	.L21:
  85:.\WS0010.c    ****                 }
  86:.\WS0010.c    ****                 Frame_Tail++;
 262              		.loc 1 86 0
 263 0080 1A78     		ldrb	r2, [r3]
 264 0082 0132     		add	r2, r2, #1
 265 0084 D2B2     		uxtb	r2, r2
 266 0086 1A70     		strb	r2, [r3]
 267              	.LVL35:
 268              	.L9:
  87:.\WS0010.c    ****         }
  88:.\WS0010.c    ****     }
 269              		.loc 1 88 0
 270              		@ sp needed
 271              	.LVL36:
 272 0088 F0BD     		pop	{r4, r5, r6, r7, pc}
 273              	.L23:
 274 008a C046     		.align	2
 275              	.L22:
 276 008c 00000000 		.word	Frame_Tail
 277 0090 00000000 		.word	FrameDDR
 278              		.cfi_endproc
 279              	.LFE61:
 280              		.size	Add_To_DDR, .-Add_To_DDR
 281              		.section	.text.Print_DDR,"ax",%progbits
 282              		.align	1
 283              		.global	Print_DDR
 284              		.code	16
 285              		.thumb_func
 286              		.type	Print_DDR, %function
 287              	Print_DDR:
 288              	.LFB62:
  89:.\WS0010.c    ****     
  90:.\WS0010.c    ****     void Print_DDR()
  91:.\WS0010.c    ****     {
 289              		.loc 1 91 0
 290              		.cfi_startproc
 291              	.LVL37:
 292 0000 38B5     		push	{r3, r4, r5, lr}
 293              		.cfi_def_cfa_offset 16
 294              		.cfi_offset 3, -16
 295              		.cfi_offset 4, -12
 296              		.cfi_offset 5, -8
 297              		.cfi_offset 14, -4
 298              		.loc 1 91 0
ARM GAS  C:\Users\Vitali\AppData\Local\Temp\cc82nV58.s 			page 8


 299 0002 0024     		mov	r4, #0
 300              	.LVL38:
 301              	.L26:
  92:.\WS0010.c    ****         uint8 Line, Col;
  93:.\WS0010.c    ****     
  94:.\WS0010.c    ****         for(Line = 0; Line < LCD_Line; Line++)
  95:.\WS0010.c    ****         {
  96:.\WS0010.c    ****             LCD_Position(Line,0);
 302              		.loc 1 96 0
 303 0004 E0B2     		uxtb	r0, r4
 304 0006 0021     		mov	r1, #0
 305 0008 FFF7FEFF 		bl	LCD_Position
 306              	.LVL39:
 307 000c 0025     		mov	r5, #0
 308              	.LVL40:
 309              	.L25:
  97:.\WS0010.c    ****             for(Col = 0; Col < LCD_Column; Col++)
  98:.\WS0010.c    ****             {
  99:.\WS0010.c    ****                 LCD_PutChar(FrameDDR[Line][Col]);
 310              		.loc 1 99 0 discriminator 3
 311 000e 1423     		mov	r3, #20
 312 0010 6343     		mul	r3, r4
 313 0012 064A     		ldr	r2, .L27
 314 0014 5B19     		add	r3, r3, r5
 315 0016 985C     		ldrb	r0, [r3, r2]
 316 0018 0135     		add	r5, r5, #1
 317              	.LVL41:
 318 001a C0B2     		uxtb	r0, r0
 319 001c FFF7FEFF 		bl	LCD_PutChar
 320              	.LVL42:
  97:.\WS0010.c    ****             for(Col = 0; Col < LCD_Column; Col++)
 321              		.loc 1 97 0 discriminator 3
 322 0020 142D     		cmp	r5, #20
 323 0022 F4D1     		bne	.L25
 324              	.LVL43:
 325 0024 0134     		add	r4, r4, #1
 326              	.LVL44:
  94:.\WS0010.c    ****         {
 327              		.loc 1 94 0 discriminator 2
 328 0026 042C     		cmp	r4, #4
 329 0028 ECD1     		bne	.L26
 100:.\WS0010.c    ****             }
 101:.\WS0010.c    ****         }
 102:.\WS0010.c    ****     }
 330              		.loc 1 102 0
 331              		@ sp needed
 332 002a 38BD     		pop	{r3, r4, r5, pc}
 333              	.L28:
 334              		.align	2
 335              	.L27:
 336 002c 00000000 		.word	FrameDDR
 337              		.cfi_endproc
 338              	.LFE62:
 339              		.size	Print_DDR, .-Print_DDR
 340              		.comm	Frame_Tail,1,1
 341              		.comm	FrameDDR,80,1
 342              		.text
ARM GAS  C:\Users\Vitali\AppData\Local\Temp\cc82nV58.s 			page 9


 343              	.Letext0:
 344              		.file 2 "Generated_Source\\PSoC4/cytypes.h"
 345              		.file 3 ".\\WS0010.h"
 346              		.file 4 "Generated_Source\\PSoC4/LCD.h"