ARM GAS  C:\Users\Vitali\AppData\Local\Temp\cc1aa80U.s 			page 1


   1              		.cpu cortex-m0
   2              		.fpu softvfp
   3              		.eabi_attribute 20, 1
   4              		.eabi_attribute 21, 1
   5              		.eabi_attribute 23, 3
   6              		.eabi_attribute 24, 1
   7              		.eabi_attribute 25, 1
   8              		.eabi_attribute 26, 1
   9              		.eabi_attribute 30, 4
  10              		.eabi_attribute 34, 0
  11              		.eabi_attribute 18, 4
  12              		.code	16
  13              		.file	"UART_UART_BOOT.c"
  14              		.text
  15              	.Ltext0:
  16              		.cfi_sections	.debug_frame
  17              		.section	.text.UART_UartCyBtldrCommStart,"ax",%progbits
  18              		.align	1
  19              		.global	UART_UartCyBtldrCommStart
  20              		.code	16
  21              		.thumb_func
  22              		.type	UART_UartCyBtldrCommStart, %function
  23              	UART_UartCyBtldrCommStart:
  24              	.LFB0:
  25              		.file 1 ".\\Generated_Source\\PSoC4\\UART_UART_BOOT.c"
   1:.\Generated_Source\PSoC4/UART_UART_BOOT.c **** /*******************************************************************************
   2:.\Generated_Source\PSoC4/UART_UART_BOOT.c **** * File Name: UART_UART_BOOT.c
   3:.\Generated_Source\PSoC4/UART_UART_BOOT.c **** * Version 3.0
   4:.\Generated_Source\PSoC4/UART_UART_BOOT.c **** *
   5:.\Generated_Source\PSoC4/UART_UART_BOOT.c **** * Description:
   6:.\Generated_Source\PSoC4/UART_UART_BOOT.c **** *  This file provides the source code of the bootloader communication APIs
   7:.\Generated_Source\PSoC4/UART_UART_BOOT.c **** *  for the SCB Component UART mode.
   8:.\Generated_Source\PSoC4/UART_UART_BOOT.c **** *
   9:.\Generated_Source\PSoC4/UART_UART_BOOT.c **** * Note:
  10:.\Generated_Source\PSoC4/UART_UART_BOOT.c **** *
  11:.\Generated_Source\PSoC4/UART_UART_BOOT.c **** ********************************************************************************
  12:.\Generated_Source\PSoC4/UART_UART_BOOT.c **** * Copyright 2013-2015, Cypress Semiconductor Corporation.  All rights reserved.
  13:.\Generated_Source\PSoC4/UART_UART_BOOT.c **** * You may use this file only in accordance with the license, terms, conditions,
  14:.\Generated_Source\PSoC4/UART_UART_BOOT.c **** * disclaimers, and limitations in the end user license agreement accompanying
  15:.\Generated_Source\PSoC4/UART_UART_BOOT.c **** * the software package with which this file was provided.
  16:.\Generated_Source\PSoC4/UART_UART_BOOT.c **** *******************************************************************************/
  17:.\Generated_Source\PSoC4/UART_UART_BOOT.c **** 
  18:.\Generated_Source\PSoC4/UART_UART_BOOT.c **** #include "UART_BOOT.h"
  19:.\Generated_Source\PSoC4/UART_UART_BOOT.c **** #include "UART_SPI_UART.h"
  20:.\Generated_Source\PSoC4/UART_UART_BOOT.c **** 
  21:.\Generated_Source\PSoC4/UART_UART_BOOT.c **** #if defined(CYDEV_BOOTLOADER_IO_COMP) && (UART_UART_BTLDR_COMM_ENABLED)
  22:.\Generated_Source\PSoC4/UART_UART_BOOT.c **** 
  23:.\Generated_Source\PSoC4/UART_UART_BOOT.c **** /*******************************************************************************
  24:.\Generated_Source\PSoC4/UART_UART_BOOT.c **** * Function Name: UART_UartCyBtldrCommStart
  25:.\Generated_Source\PSoC4/UART_UART_BOOT.c **** ********************************************************************************
  26:.\Generated_Source\PSoC4/UART_UART_BOOT.c **** *
  27:.\Generated_Source\PSoC4/UART_UART_BOOT.c **** * Summary:
  28:.\Generated_Source\PSoC4/UART_UART_BOOT.c **** *  Starts the UART component.
  29:.\Generated_Source\PSoC4/UART_UART_BOOT.c **** *
  30:.\Generated_Source\PSoC4/UART_UART_BOOT.c **** * Parameters:
  31:.\Generated_Source\PSoC4/UART_UART_BOOT.c **** *  None
  32:.\Generated_Source\PSoC4/UART_UART_BOOT.c **** *
ARM GAS  C:\Users\Vitali\AppData\Local\Temp\cc1aa80U.s 			page 2


  33:.\Generated_Source\PSoC4/UART_UART_BOOT.c **** * Return:
  34:.\Generated_Source\PSoC4/UART_UART_BOOT.c **** *  None
  35:.\Generated_Source\PSoC4/UART_UART_BOOT.c **** *
  36:.\Generated_Source\PSoC4/UART_UART_BOOT.c **** *******************************************************************************/
  37:.\Generated_Source\PSoC4/UART_UART_BOOT.c **** void UART_UartCyBtldrCommStart(void)
  38:.\Generated_Source\PSoC4/UART_UART_BOOT.c **** {
  26              		.loc 1 38 0
  27              		.cfi_startproc
  28 0000 08B5     		push	{r3, lr}
  29              		.cfi_def_cfa_offset 8
  30              		.cfi_offset 3, -8
  31              		.cfi_offset 14, -4
  39:.\Generated_Source\PSoC4/UART_UART_BOOT.c ****     UART_Start();
  32              		.loc 1 39 0
  33 0002 FFF7FEFF 		bl	UART_Start
  34              	.LVL0:
  40:.\Generated_Source\PSoC4/UART_UART_BOOT.c **** }
  35              		.loc 1 40 0
  36              		@ sp needed
  37 0006 08BD     		pop	{r3, pc}
  38              		.cfi_endproc
  39              	.LFE0:
  40              		.size	UART_UartCyBtldrCommStart, .-UART_UartCyBtldrCommStart
  41              		.section	.text.UART_UartCyBtldrCommStop,"ax",%progbits
  42              		.align	1
  43              		.global	UART_UartCyBtldrCommStop
  44              		.code	16
  45              		.thumb_func
  46              		.type	UART_UartCyBtldrCommStop, %function
  47              	UART_UartCyBtldrCommStop:
  48              	.LFB1:
  41:.\Generated_Source\PSoC4/UART_UART_BOOT.c **** 
  42:.\Generated_Source\PSoC4/UART_UART_BOOT.c **** 
  43:.\Generated_Source\PSoC4/UART_UART_BOOT.c **** /*******************************************************************************
  44:.\Generated_Source\PSoC4/UART_UART_BOOT.c **** * Function Name: UART_UartCyBtldrCommStop
  45:.\Generated_Source\PSoC4/UART_UART_BOOT.c **** ********************************************************************************
  46:.\Generated_Source\PSoC4/UART_UART_BOOT.c **** *
  47:.\Generated_Source\PSoC4/UART_UART_BOOT.c **** * Summary:
  48:.\Generated_Source\PSoC4/UART_UART_BOOT.c **** *  Disables the UART component.
  49:.\Generated_Source\PSoC4/UART_UART_BOOT.c **** *
  50:.\Generated_Source\PSoC4/UART_UART_BOOT.c **** * Parameters:
  51:.\Generated_Source\PSoC4/UART_UART_BOOT.c **** *  None
  52:.\Generated_Source\PSoC4/UART_UART_BOOT.c **** *
  53:.\Generated_Source\PSoC4/UART_UART_BOOT.c **** * Return:
  54:.\Generated_Source\PSoC4/UART_UART_BOOT.c **** *  None
  55:.\Generated_Source\PSoC4/UART_UART_BOOT.c **** *
  56:.\Generated_Source\PSoC4/UART_UART_BOOT.c **** *******************************************************************************/
  57:.\Generated_Source\PSoC4/UART_UART_BOOT.c **** void UART_UartCyBtldrCommStop(void)
  58:.\Generated_Source\PSoC4/UART_UART_BOOT.c **** {
  49              		.loc 1 58 0
  50              		.cfi_startproc
  51 0000 08B5     		push	{r3, lr}
  52              		.cfi_def_cfa_offset 8
  53              		.cfi_offset 3, -8
  54              		.cfi_offset 14, -4
  59:.\Generated_Source\PSoC4/UART_UART_BOOT.c ****     UART_Stop();
  55              		.loc 1 59 0
ARM GAS  C:\Users\Vitali\AppData\Local\Temp\cc1aa80U.s 			page 3


  56 0002 FFF7FEFF 		bl	UART_Stop
  57              	.LVL1:
  60:.\Generated_Source\PSoC4/UART_UART_BOOT.c **** }
  58              		.loc 1 60 0
  59              		@ sp needed
  60 0006 08BD     		pop	{r3, pc}
  61              		.cfi_endproc
  62              	.LFE1:
  63              		.size	UART_UartCyBtldrCommStop, .-UART_UartCyBtldrCommStop
  64              		.section	.text.UART_UartCyBtldrCommReset,"ax",%progbits
  65              		.align	1
  66              		.global	UART_UartCyBtldrCommReset
  67              		.code	16
  68              		.thumb_func
  69              		.type	UART_UartCyBtldrCommReset, %function
  70              	UART_UartCyBtldrCommReset:
  71              	.LFB2:
  61:.\Generated_Source\PSoC4/UART_UART_BOOT.c **** 
  62:.\Generated_Source\PSoC4/UART_UART_BOOT.c **** 
  63:.\Generated_Source\PSoC4/UART_UART_BOOT.c **** /*******************************************************************************
  64:.\Generated_Source\PSoC4/UART_UART_BOOT.c **** * Function Name: UART_UartCyBtldrCommReset
  65:.\Generated_Source\PSoC4/UART_UART_BOOT.c **** ********************************************************************************
  66:.\Generated_Source\PSoC4/UART_UART_BOOT.c **** *
  67:.\Generated_Source\PSoC4/UART_UART_BOOT.c **** * Summary:
  68:.\Generated_Source\PSoC4/UART_UART_BOOT.c **** *  Resets the receive and transmit communication buffers.
  69:.\Generated_Source\PSoC4/UART_UART_BOOT.c **** *
  70:.\Generated_Source\PSoC4/UART_UART_BOOT.c **** * Parameters:
  71:.\Generated_Source\PSoC4/UART_UART_BOOT.c **** *  None
  72:.\Generated_Source\PSoC4/UART_UART_BOOT.c **** *
  73:.\Generated_Source\PSoC4/UART_UART_BOOT.c **** * Return:
  74:.\Generated_Source\PSoC4/UART_UART_BOOT.c **** *  None
  75:.\Generated_Source\PSoC4/UART_UART_BOOT.c **** *
  76:.\Generated_Source\PSoC4/UART_UART_BOOT.c **** *******************************************************************************/
  77:.\Generated_Source\PSoC4/UART_UART_BOOT.c **** void UART_UartCyBtldrCommReset(void)
  78:.\Generated_Source\PSoC4/UART_UART_BOOT.c **** {
  72              		.loc 1 78 0
  73              		.cfi_startproc
  74 0000 08B5     		push	{r3, lr}
  75              		.cfi_def_cfa_offset 8
  76              		.cfi_offset 3, -8
  77              		.cfi_offset 14, -4
  79:.\Generated_Source\PSoC4/UART_UART_BOOT.c ****     /* Clear RX and TX buffers */
  80:.\Generated_Source\PSoC4/UART_UART_BOOT.c ****     UART_SpiUartClearRxBuffer();
  78              		.loc 1 80 0
  79 0002 FFF7FEFF 		bl	UART_SpiUartClearRxBuffer
  80              	.LVL2:
  81:.\Generated_Source\PSoC4/UART_UART_BOOT.c ****     UART_SpiUartClearTxBuffer();
  82:.\Generated_Source\PSoC4/UART_UART_BOOT.c **** }
  81              		.loc 1 82 0
  82              		@ sp needed
  81:.\Generated_Source\PSoC4/UART_UART_BOOT.c ****     UART_SpiUartClearTxBuffer();
  83              		.loc 1 81 0
  84 0006 FFF7FEFF 		bl	UART_SpiUartClearTxBuffer
  85              	.LVL3:
  86              		.loc 1 82 0
  87 000a 08BD     		pop	{r3, pc}
  88              		.cfi_endproc
ARM GAS  C:\Users\Vitali\AppData\Local\Temp\cc1aa80U.s 			page 4


  89              	.LFE2:
  90              		.size	UART_UartCyBtldrCommReset, .-UART_UartCyBtldrCommReset
  91              		.section	.text.UART_UartCyBtldrCommRead,"ax",%progbits
  92              		.align	1
  93              		.global	UART_UartCyBtldrCommRead
  94              		.code	16
  95              		.thumb_func
  96              		.type	UART_UartCyBtldrCommRead, %function
  97              	UART_UartCyBtldrCommRead:
  98              	.LFB3:
  83:.\Generated_Source\PSoC4/UART_UART_BOOT.c **** 
  84:.\Generated_Source\PSoC4/UART_UART_BOOT.c **** 
  85:.\Generated_Source\PSoC4/UART_UART_BOOT.c **** /*******************************************************************************
  86:.\Generated_Source\PSoC4/UART_UART_BOOT.c **** * Function Name: UART_UartCyBtldrCommRead
  87:.\Generated_Source\PSoC4/UART_UART_BOOT.c **** ********************************************************************************
  88:.\Generated_Source\PSoC4/UART_UART_BOOT.c **** *
  89:.\Generated_Source\PSoC4/UART_UART_BOOT.c **** * Summary:
  90:.\Generated_Source\PSoC4/UART_UART_BOOT.c **** *  Allows the caller to read data from the bootloader host (the host writes the
  91:.\Generated_Source\PSoC4/UART_UART_BOOT.c **** *  data). The function handles polling to allow a block of data to be completely
  92:.\Generated_Source\PSoC4/UART_UART_BOOT.c **** *  received from the host device.
  93:.\Generated_Source\PSoC4/UART_UART_BOOT.c **** *
  94:.\Generated_Source\PSoC4/UART_UART_BOOT.c **** * Parameters:
  95:.\Generated_Source\PSoC4/UART_UART_BOOT.c **** *  pData:    Pointer to storage for the block of data to be read from the
  96:.\Generated_Source\PSoC4/UART_UART_BOOT.c **** *            bootloader host
  97:.\Generated_Source\PSoC4/UART_UART_BOOT.c **** *  size:     Number of bytes to be read.
  98:.\Generated_Source\PSoC4/UART_UART_BOOT.c **** *  count:    Pointer to the variable to write the number of bytes actually
  99:.\Generated_Source\PSoC4/UART_UART_BOOT.c **** *            read.
 100:.\Generated_Source\PSoC4/UART_UART_BOOT.c **** *  timeOut:  Number of units in 10 ms to wait before returning because of a
 101:.\Generated_Source\PSoC4/UART_UART_BOOT.c **** *            timeout.
 102:.\Generated_Source\PSoC4/UART_UART_BOOT.c **** *
 103:.\Generated_Source\PSoC4/UART_UART_BOOT.c **** * Return:
 104:.\Generated_Source\PSoC4/UART_UART_BOOT.c **** *  Returns CYRET_SUCCESS if no problem was encountered or returns the value
 105:.\Generated_Source\PSoC4/UART_UART_BOOT.c **** *  that best describes the problem. For more information refer to the
 106:.\Generated_Source\PSoC4/UART_UART_BOOT.c **** *  "Return Codes" section of the System Reference Guide.
 107:.\Generated_Source\PSoC4/UART_UART_BOOT.c **** *
 108:.\Generated_Source\PSoC4/UART_UART_BOOT.c **** *******************************************************************************/
 109:.\Generated_Source\PSoC4/UART_UART_BOOT.c **** cystatus UART_UartCyBtldrCommRead(uint8 pData[], uint16 size, uint16 * count, uint8 timeOut)
 110:.\Generated_Source\PSoC4/UART_UART_BOOT.c **** {
  99              		.loc 1 110 0
 100              		.cfi_startproc
 101              	.LVL4:
 102 0000 F8B5     		push	{r3, r4, r5, r6, r7, lr}
 103              		.cfi_def_cfa_offset 24
 104              		.cfi_offset 3, -24
 105              		.cfi_offset 4, -20
 106              		.cfi_offset 5, -16
 107              		.cfi_offset 6, -12
 108              		.cfi_offset 7, -8
 109              		.cfi_offset 14, -4
 111:.\Generated_Source\PSoC4/UART_UART_BOOT.c ****     cystatus status;
 112:.\Generated_Source\PSoC4/UART_UART_BOOT.c ****     uint32 byteCount;
 113:.\Generated_Source\PSoC4/UART_UART_BOOT.c ****     uint32 timeoutMs;
 114:.\Generated_Source\PSoC4/UART_UART_BOOT.c ****     uint32 i;
 115:.\Generated_Source\PSoC4/UART_UART_BOOT.c **** 
 116:.\Generated_Source\PSoC4/UART_UART_BOOT.c ****     status = CYRET_BAD_PARAM;
 110              		.loc 1 116 0
 111 0002 0127     		mov	r7, #1
ARM GAS  C:\Users\Vitali\AppData\Local\Temp\cc1aa80U.s 			page 5


 117:.\Generated_Source\PSoC4/UART_UART_BOOT.c **** 
 118:.\Generated_Source\PSoC4/UART_UART_BOOT.c ****     if ((NULL != pData) && (size > 0u))
 112              		.loc 1 118 0
 113 0004 0028     		cmp	r0, #0
 114 0006 2BD0     		beq	.L5
 115              		.loc 1 118 0 is_stmt 0 discriminator 1
 116 0008 0029     		cmp	r1, #0
 117 000a 29D0     		beq	.L5
 118 000c 161C     		mov	r6, r2
 119 000e 0D1C     		mov	r5, r1
 120 0010 041C     		mov	r4, r0
 121              	.LVL5:
 119:.\Generated_Source\PSoC4/UART_UART_BOOT.c ****     {
 120:.\Generated_Source\PSoC4/UART_UART_BOOT.c ****         status = CYRET_TIMEOUT;
 121:.\Generated_Source\PSoC4/UART_UART_BOOT.c ****         timeoutMs = ((uint32) 10u * timeOut); /* Convert from 10mS check to 1mS checks */
 122              		.loc 1 121 0 is_stmt 1
 123 0012 0937     		add	r7, r7, #9
 124 0014 5F43     		mul	r7, r3
 125              	.LVL6:
 126              	.L10:
 122:.\Generated_Source\PSoC4/UART_UART_BOOT.c **** 
 123:.\Generated_Source\PSoC4/UART_UART_BOOT.c ****         /* Wait with timeout 1mS for packet end */
 124:.\Generated_Source\PSoC4/UART_UART_BOOT.c ****         byteCount = 0u;
 125:.\Generated_Source\PSoC4/UART_UART_BOOT.c ****         do
 126:.\Generated_Source\PSoC4/UART_UART_BOOT.c ****         {
 127:.\Generated_Source\PSoC4/UART_UART_BOOT.c ****             /* Check packet start */
 128:.\Generated_Source\PSoC4/UART_UART_BOOT.c ****             if (0u != UART_SpiUartGetRxBufferSize())
 127              		.loc 1 128 0
 128 0016 FFF7FEFF 		bl	UART_SpiUartGetRxBufferSize
 129              	.LVL7:
 130 001a 0028     		cmp	r0, #0
 131 001c 10D0     		beq	.L6
 132              	.LVL8:
 133              	.L7:
 129:.\Generated_Source\PSoC4/UART_UART_BOOT.c ****             {
 130:.\Generated_Source\PSoC4/UART_UART_BOOT.c ****                 /* Wait for end of packet */
 131:.\Generated_Source\PSoC4/UART_UART_BOOT.c ****                 do
 132:.\Generated_Source\PSoC4/UART_UART_BOOT.c ****                 {
 133:.\Generated_Source\PSoC4/UART_UART_BOOT.c ****                     byteCount = UART_SpiUartGetRxBufferSize();
 134              		.loc 1 133 0 discriminator 1
 135 001e FFF7FEFF 		bl	UART_SpiUartGetRxBufferSize
 136              	.LVL9:
 137 0022 071C     		mov	r7, r0
 138              	.LVL10:
 134:.\Generated_Source\PSoC4/UART_UART_BOOT.c ****                     CyDelayUs(UART_UART_BYTE_TO_BYTE);
 139              		.loc 1 134 0 discriminator 1
 140 0024 AD20     		mov	r0, #173
 141              	.LVL11:
 142 0026 FFF7FEFF 		bl	CyDelayUs
 143              	.LVL12:
 135:.\Generated_Source\PSoC4/UART_UART_BOOT.c ****                 }
 136:.\Generated_Source\PSoC4/UART_UART_BOOT.c ****                 while (byteCount != UART_SpiUartGetRxBufferSize());
 144              		.loc 1 136 0 discriminator 1
 145 002a FFF7FEFF 		bl	UART_SpiUartGetRxBufferSize
 146              	.LVL13:
 147 002e 8742     		cmp	r7, r0
 148 0030 F5D1     		bne	.L7
ARM GAS  C:\Users\Vitali\AppData\Local\Temp\cc1aa80U.s 			page 6


 137:.\Generated_Source\PSoC4/UART_UART_BOOT.c **** 
 138:.\Generated_Source\PSoC4/UART_UART_BOOT.c ****                 byteCount = UART_BYTES_TO_COPY(byteCount, size);
 149              		.loc 1 138 0
 150 0032 3B1E     		sub	r3, r7, #0
 151 0034 AB42     		cmp	r3, r5
 152 0036 00D9     		bls	.L8
 153 0038 2B1C     		mov	r3, r5
 154              	.L8:
 155              	.LVL14:
 139:.\Generated_Source\PSoC4/UART_UART_BOOT.c ****                 *count = (uint16) byteCount;
 156              		.loc 1 139 0
 157 003a 3380     		strh	r3, [r6]
 158              	.LVL15:
 140:.\Generated_Source\PSoC4/UART_UART_BOOT.c ****                 status = CYRET_SUCCESS;
 159              		.loc 1 140 0
 160 003c 0027     		mov	r7, #0
 141:.\Generated_Source\PSoC4/UART_UART_BOOT.c **** 
 142:.\Generated_Source\PSoC4/UART_UART_BOOT.c ****                 break;
 161              		.loc 1 142 0
 162 003e 07E0     		b	.L9
 163              	.LVL16:
 164              	.L6:
 143:.\Generated_Source\PSoC4/UART_UART_BOOT.c ****             }
 144:.\Generated_Source\PSoC4/UART_UART_BOOT.c **** 
 145:.\Generated_Source\PSoC4/UART_UART_BOOT.c ****             CyDelay(UART_WAIT_1_MS);
 165              		.loc 1 145 0
 166 0040 0120     		mov	r0, #1
 146:.\Generated_Source\PSoC4/UART_UART_BOOT.c ****             --timeoutMs;
 167              		.loc 1 146 0
 168 0042 013F     		sub	r7, r7, #1
 169              	.LVL17:
 145:.\Generated_Source\PSoC4/UART_UART_BOOT.c ****             --timeoutMs;
 170              		.loc 1 145 0
 171 0044 FFF7FEFF 		bl	CyDelay
 172              	.LVL18:
 147:.\Generated_Source\PSoC4/UART_UART_BOOT.c ****         }
 148:.\Generated_Source\PSoC4/UART_UART_BOOT.c ****         while (0u != timeoutMs);
 173              		.loc 1 148 0
 174 0048 002F     		cmp	r7, #0
 175 004a E4D1     		bne	.L10
 124:.\Generated_Source\PSoC4/UART_UART_BOOT.c ****         do
 176              		.loc 1 124 0
 177 004c 3B1C     		mov	r3, r7
 120:.\Generated_Source\PSoC4/UART_UART_BOOT.c ****         timeoutMs = ((uint32) 10u * timeOut); /* Convert from 10mS check to 1mS checks */
 178              		.loc 1 120 0
 179 004e 1037     		add	r7, r7, #16
 180              	.LVL19:
 181              	.L9:
 182 0050 E518     		add	r5, r4, r3
 183              	.LVL20:
 184              	.L11:
 149:.\Generated_Source\PSoC4/UART_UART_BOOT.c **** 
 150:.\Generated_Source\PSoC4/UART_UART_BOOT.c ****         /* Get data from RX buffer into bootloader buffer */
 151:.\Generated_Source\PSoC4/UART_UART_BOOT.c ****         for (i = 0u; i < byteCount; ++i)
 185              		.loc 1 151 0 discriminator 1
 186 0052 AC42     		cmp	r4, r5
 187 0054 04D0     		beq	.L5
ARM GAS  C:\Users\Vitali\AppData\Local\Temp\cc1aa80U.s 			page 7


 152:.\Generated_Source\PSoC4/UART_UART_BOOT.c ****         {
 153:.\Generated_Source\PSoC4/UART_UART_BOOT.c ****             pData[i] = (uint8) UART_SpiUartReadRxData();
 188              		.loc 1 153 0 discriminator 3
 189 0056 FFF7FEFF 		bl	UART_SpiUartReadRxData
 190              	.LVL21:
 191 005a 2070     		strb	r0, [r4]
 192              	.LVL22:
 193 005c 0134     		add	r4, r4, #1
 194              	.LVL23:
 195 005e F8E7     		b	.L11
 196              	.LVL24:
 197              	.L5:
 154:.\Generated_Source\PSoC4/UART_UART_BOOT.c ****         }
 155:.\Generated_Source\PSoC4/UART_UART_BOOT.c ****     }
 156:.\Generated_Source\PSoC4/UART_UART_BOOT.c **** 
 157:.\Generated_Source\PSoC4/UART_UART_BOOT.c ****     return (status);
 158:.\Generated_Source\PSoC4/UART_UART_BOOT.c **** }
 198              		.loc 1 158 0
 199 0060 381C     		mov	r0, r7
 200              		@ sp needed
 201              	.LVL25:
 202 0062 F8BD     		pop	{r3, r4, r5, r6, r7, pc}
 203              		.cfi_endproc
 204              	.LFE3:
 205              		.size	UART_UartCyBtldrCommRead, .-UART_UartCyBtldrCommRead
 206              		.section	.text.UART_UartCyBtldrCommWrite,"ax",%progbits
 207              		.align	1
 208              		.global	UART_UartCyBtldrCommWrite
 209              		.code	16
 210              		.thumb_func
 211              		.type	UART_UartCyBtldrCommWrite, %function
 212              	UART_UartCyBtldrCommWrite:
 213              	.LFB4:
 159:.\Generated_Source\PSoC4/UART_UART_BOOT.c **** 
 160:.\Generated_Source\PSoC4/UART_UART_BOOT.c **** 
 161:.\Generated_Source\PSoC4/UART_UART_BOOT.c **** /*******************************************************************************
 162:.\Generated_Source\PSoC4/UART_UART_BOOT.c **** * Function Name: UART_UartCyBtldrCommWrite
 163:.\Generated_Source\PSoC4/UART_UART_BOOT.c **** ********************************************************************************
 164:.\Generated_Source\PSoC4/UART_UART_BOOT.c **** *
 165:.\Generated_Source\PSoC4/UART_UART_BOOT.c **** * Summary:
 166:.\Generated_Source\PSoC4/UART_UART_BOOT.c **** *  Allows the caller to write data to the bootloader host (the host reads the
 167:.\Generated_Source\PSoC4/UART_UART_BOOT.c **** *  data). The function does not use timeout and returns after data has been
 168:.\Generated_Source\PSoC4/UART_UART_BOOT.c **** *  copied into the transmit buffer. The data transmission starts immediately
 169:.\Generated_Source\PSoC4/UART_UART_BOOT.c **** *  after the first data element is written into the buffer and lasts until all
 170:.\Generated_Source\PSoC4/UART_UART_BOOT.c **** *  data elements from the buffer are sent.
 171:.\Generated_Source\PSoC4/UART_UART_BOOT.c **** *
 172:.\Generated_Source\PSoC4/UART_UART_BOOT.c **** * Parameters:
 173:.\Generated_Source\PSoC4/UART_UART_BOOT.c **** *  pData:    Pointer to the block of data to be written to the bootloader host.
 174:.\Generated_Source\PSoC4/UART_UART_BOOT.c **** *  size:     Number of bytes to be written.
 175:.\Generated_Source\PSoC4/UART_UART_BOOT.c **** *  count:    Pointer to the variable to write the number of bytes actually
 176:.\Generated_Source\PSoC4/UART_UART_BOOT.c **** *            written.
 177:.\Generated_Source\PSoC4/UART_UART_BOOT.c **** *  timeOut:  The timeout is not used by this function. The function returns
 178:.\Generated_Source\PSoC4/UART_UART_BOOT.c **** *            as soon as data is copied into the transmit buffer.
 179:.\Generated_Source\PSoC4/UART_UART_BOOT.c **** *
 180:.\Generated_Source\PSoC4/UART_UART_BOOT.c **** * Return:
 181:.\Generated_Source\PSoC4/UART_UART_BOOT.c **** *  Returns CYRET_SUCCESS if no problem was encountered or returns the value
 182:.\Generated_Source\PSoC4/UART_UART_BOOT.c **** *  that best describes the problem. For more information refer to the
ARM GAS  C:\Users\Vitali\AppData\Local\Temp\cc1aa80U.s 			page 8


 183:.\Generated_Source\PSoC4/UART_UART_BOOT.c **** *  "Return Codes" section of the System Reference Guide.
 184:.\Generated_Source\PSoC4/UART_UART_BOOT.c **** *
 185:.\Generated_Source\PSoC4/UART_UART_BOOT.c **** *******************************************************************************/
 186:.\Generated_Source\PSoC4/UART_UART_BOOT.c **** cystatus UART_UartCyBtldrCommWrite(const uint8 pData[], uint16 size, uint16 * count, uint8 timeOut)
 187:.\Generated_Source\PSoC4/UART_UART_BOOT.c **** {
 214              		.loc 1 187 0
 215              		.cfi_startproc
 216              	.LVL26:
 217 0000 38B5     		push	{r3, r4, r5, lr}
 218              		.cfi_def_cfa_offset 16
 219              		.cfi_offset 3, -16
 220              		.cfi_offset 4, -12
 221              		.cfi_offset 5, -8
 222              		.cfi_offset 14, -4
 223              		.loc 1 187 0
 224 0002 0C1C     		mov	r4, r1
 225 0004 151C     		mov	r5, r2
 188:.\Generated_Source\PSoC4/UART_UART_BOOT.c ****     cystatus status;
 189:.\Generated_Source\PSoC4/UART_UART_BOOT.c **** 
 190:.\Generated_Source\PSoC4/UART_UART_BOOT.c ****     status = CYRET_BAD_PARAM;
 226              		.loc 1 190 0
 227 0006 0123     		mov	r3, #1
 228              	.LVL27:
 191:.\Generated_Source\PSoC4/UART_UART_BOOT.c **** 
 192:.\Generated_Source\PSoC4/UART_UART_BOOT.c ****     if ((NULL != pData) && (size > 0u))
 229              		.loc 1 192 0
 230 0008 0028     		cmp	r0, #0
 231 000a 05D0     		beq	.L18
 232              		.loc 1 192 0 is_stmt 0 discriminator 1
 233 000c 0029     		cmp	r1, #0
 234 000e 03D0     		beq	.L18
 193:.\Generated_Source\PSoC4/UART_UART_BOOT.c ****     {
 194:.\Generated_Source\PSoC4/UART_UART_BOOT.c ****         /* Transmit data. This function does not wait until data is sent. */
 195:.\Generated_Source\PSoC4/UART_UART_BOOT.c ****         UART_SpiUartPutArray(pData, (uint32) size);
 235              		.loc 1 195 0 is_stmt 1
 236 0010 FFF7FEFF 		bl	UART_SpiUartPutArray
 237              	.LVL28:
 196:.\Generated_Source\PSoC4/UART_UART_BOOT.c **** 
 197:.\Generated_Source\PSoC4/UART_UART_BOOT.c ****         *count = size;
 198:.\Generated_Source\PSoC4/UART_UART_BOOT.c ****         status = CYRET_SUCCESS;
 238              		.loc 1 198 0
 239 0014 0023     		mov	r3, #0
 197:.\Generated_Source\PSoC4/UART_UART_BOOT.c ****         status = CYRET_SUCCESS;
 240              		.loc 1 197 0
 241 0016 2C80     		strh	r4, [r5]
 242              	.LVL29:
 243              	.L18:
 199:.\Generated_Source\PSoC4/UART_UART_BOOT.c **** 
 200:.\Generated_Source\PSoC4/UART_UART_BOOT.c ****         if (0u != timeOut)
 201:.\Generated_Source\PSoC4/UART_UART_BOOT.c ****         {
 202:.\Generated_Source\PSoC4/UART_UART_BOOT.c ****             /* Suppress compiler warning */
 203:.\Generated_Source\PSoC4/UART_UART_BOOT.c ****         }
 204:.\Generated_Source\PSoC4/UART_UART_BOOT.c ****     }
 205:.\Generated_Source\PSoC4/UART_UART_BOOT.c **** 
 206:.\Generated_Source\PSoC4/UART_UART_BOOT.c ****     return (status);
 207:.\Generated_Source\PSoC4/UART_UART_BOOT.c **** }
 244              		.loc 1 207 0
ARM GAS  C:\Users\Vitali\AppData\Local\Temp\cc1aa80U.s 			page 9


 245 0018 181C     		mov	r0, r3
 246              		@ sp needed
 247              	.LVL30:
 248 001a 38BD     		pop	{r3, r4, r5, pc}
 249              		.cfi_endproc
 250              	.LFE4:
 251              		.size	UART_UartCyBtldrCommWrite, .-UART_UartCyBtldrCommWrite
 252              		.text
 253              	.Letext0:
 254              		.file 2 "Generated_Source\\PSoC4/cytypes.h"
 255              		.file 3 ".\\Generated_Source\\PSoC4\\UART.h"
 256              		.file 4 ".\\Generated_Source\\PSoC4\\UART_SPI_UART.h"
 257              		.file 5 "Generated_Source\\PSoC4/CyLib.h"